(dp1
S'sede'
p2
(dp3
S'length'
p4
I512
sS'unique'
p5
I00
sS'sortable'
p6
I3
sS'sql'
p7
S'VARCHAR(512)'
p8
sS'notnull'
p9
I00
sS'type'
p10
S'string'
p11
ssS'ci'
p12
(dp13
g4
I8
sg5
I01
sg6
I2
sg7
S'INTEGER REFERENCES usuario (id) ON DELETE CASCADE  NOT NULL  UNIQUE'
p14
sg9
I01
sg10
S'reference usuario'
p15
ssS'id'
p16
(dp17
g4
I512
sg5
I00
sg6
I1
sg7
S'SERIAL PRIMARY KEY'
p18
sg9
I00
sg10
g16
ss.