(dp1
S'fecha_clase'
p2
(dp3
S'length'
p4
I512
sS'unique'
p5
I00
sS'sortable'
p6
I4
sS'sql'
p7
S'DATE'
p8
sS'notnull'
p9
I00
sS'type'
p10
S'date'
p11
ssS'id'
p12
(dp13
g4
I512
sg5
I00
sg6
I1
sg7
S'SERIAL PRIMARY KEY'
p14
sg9
I00
sg10
g12
ssS'ci_estudiante'
p15
(dp16
g4
I512
sg5
I00
sg6
I2
sg7
S'VARCHAR(512)'
p17
sg9
I00
sg10
S'string'
p18
ssS'id_materia'
p19
(dp20
g4
I512
sg5
I00
sg6
I3
sg7
S'INTEGER REFERENCES materia (id) ON DELETE CASCADE  '
p21
sg9
I00
sg10
S'reference materia'
p22
ss.