(dp1
S'nombre'
p2
(dp3
S'sortable'
p4
L2L
sS'sql'
p5
S'VARCHAR(512) NOT NULL'
p6
sS'length'
p7
L512L
sS'notnull'
p8
L1L
sS'unique'
p9
L0L
sS'type'
p10
S'string'
p11
ssS'id'
p12
(dp13
g4
L1L
sg5
S'SERIAL PRIMARY KEY'
p14
sg7
L512L
sg8
L0L
sg9
L0L
sg10
S'id'
p15
ssS'ci_profesor'
p16
(dp17
S'length'
p18
I512
sS'unique'
p19
I00
sS'sortable'
p20
I3
sS'sql'
p21
S'INTEGER REFERENCES profesor (id) ON DELETE CASCADE  '
p22
sS'notnull'
p23
I00
sS'type'
p24
S'reference profesor'
p25
ss.