(dp1
S'nombre'
p2
(dp3
S'length'
p4
I512
sS'unique'
p5
I00
sS'sortable'
p6
I2
sS'sql'
p7
S'VARCHAR(512) NOT NULL'
p8
sS'notnull'
p9
I01
sS'type'
p10
S'string'
p11
ssS'id'
p12
(dp13
g4
I512
sg5
I00
sg6
I1
sg7
S'SERIAL PRIMARY KEY'
p14
sg9
I00
sg10
g12
ssS'ci_profesor'
p15
(dp16
g4
I512
sg5
I00
sg6
I3
sg7
S'VARCHAR(512)'
p17
sg9
I00
sg10
g11
ss.