(dp1
S'ci'
p2
(dp3
S'length'
p4
I8
sS'unique'
p5
I01
sS'sortable'
p6
I2
sS'sql'
p7
S'INTEGER REFERENCES usuario (id) ON DELETE CASCADE  NOT NULL  UNIQUE'
p8
sS'notnull'
p9
I01
sS'type'
p10
S'reference usuario'
p11
ssS'id'
p12
(dp13
S'sortable'
p14
L1L
sS'sql'
p15
S'SERIAL PRIMARY KEY'
p16
sS'length'
p17
L512L
sS'notnull'
p18
L0L
sS'unique'
p19
L0L
sS'type'
p20
S'id'
p21
ss.