(dp1
S'correo'
p2
(dp3
S'length'
p4
I128
sS'unique'
p5
I00
sS'sortable'
p6
I3
sS'sql'
p7
S'VARCHAR(128)'
p8
sS'notnull'
p9
I00
sS'type'
p10
S'string'
p11
ssS'ci'
p12
(dp13
S'sortable'
p14
I2
sS'sql'
p15
S'VARCHAR(8) NOT NULL UNIQUE'
p16
sS'length'
p17
I8
sS'notnull'
p18
I01
sS'unique'
p19
I01
sS'type'
p20
S'string'
p21
ssS'id'
p22
(dp23
g14
I1
sg15
S'SERIAL PRIMARY KEY'
p24
sg17
I512
sg18
I00
sg19
I00
sg20
S'id'
p25
ss.