(dp1
S'ci'
p2
(dp3
S'length'
p4
I8
sS'unique'
p5
I01
sS'sortable'
p6
I1
sS'sql'
p7
S'VARCHAR(8), CONSTRAINT  "FK_profesor_ci__constraint" FOREIGN KEY (ci) REFERENCES usuario (username) ON DELETE CASCADE'
p8
sS'notnull'
p9
I01
sS'type'
p10
S'reference usuario.username'
p11
ss.