(dp1
S'sede'
p2
(dp3
S'length'
p4
I512
sS'unique'
p5
I00
sS'sortable'
p6
I2
sS'sql'
p7
S'VARCHAR(512)'
p8
sS'notnull'
p9
I00
sS'type'
p10
S'string'
p11
ssS'ci'
p12
(dp13
g4
I8
sg5
I01
sg6
I1
sg7
S'VARCHAR(8), CONSTRAINT  "FK_representante_sede_ci__constraint" FOREIGN KEY (ci) REFERENCES usuario (username) ON DELETE CASCADE'
p14
sg9
I01
sg10
S'reference usuario.username'
p15
ss.