(dp1
S'ci'
p2
(dp3
S'length'
p4
I512
sS'unique'
p5
I01
sS'sortable'
p6
I2
sS'sql'
p7
S'VARCHAR(512) NOT NULL UNIQUE'
p8
sS'notnull'
p9
I01
sS'type'
p10
S'string'
p11
ssS'telefono'
p12
(dp13
g4
I12
sg5
I00
sg6
I4
sg7
S'VARCHAR(12)'
p14
sg9
I00
sg10
g11
ssS'id'
p15
(dp16
g4
I512
sg5
I00
sg6
I1
sg7
S'SERIAL PRIMARY KEY'
p17
sg9
I00
sg10
g15
ssS'nombre_liceo'
p18
(dp19
g4
I512
sg5
I00
sg6
I3
sg7
S'VARCHAR(512)'
p20
sg9
I00
sg10
g11
ss.