(dp1
S'sede'
p2
(dp3
S'length'
p4
I512
sS'unique'
p5
I00
sS'sortable'
p6
I3
sS'sql'
p7
S'VARCHAR(512)'
p8
sS'notnull'
p9
I00
sS'type'
p10
S'string'
p11
ssS'ci'
p12
(dp13
S'sortable'
p14
L2L
sS'sql'
p15
S'VARCHAR(8) NOT NULL UNIQUE'
p16
sS'length'
p17
L8L
sS'notnull'
p18
L1L
sS'unique'
p19
L1L
sS'type'
p20
S'string'
p21
ssS'id'
p22
(dp23
g14
L1L
sg15
S'SERIAL PRIMARY KEY'
p24
sg17
L512L
sg18
L0L
sg19
L0L
sg20
S'id'
p25
ss.