(dp1
S'ci'
p2
(dp3
S'sortable'
p4
I2
sS'sql'
p5
S'VARCHAR(8) NOT NULL UNIQUE'
p6
sS'length'
p7
I8
sS'notnull'
p8
I01
sS'unique'
p9
I01
sS'type'
p10
S'string'
p11
ssS'nombre_liceo'
p12
(dp13
g4
I3
sg5
S'VARCHAR(512)'
p14
sg7
I512
sg8
I00
sg9
I00
sg10
g11
ssS'id'
p15
(dp16
g4
I1
sg5
S'SERIAL PRIMARY KEY'
p17
sg7
I512
sg8
I00
sg9
I00
sg10
S'id'
p18
ss.