(dp1
S'sede'
p2
(dp3
S'sortable'
p4
L3L
sS'sql'
p5
S'VARCHAR(512)'
p6
sS'length'
p7
L512L
sS'notnull'
p8
L0L
sS'unique'
p9
L0L
sS'type'
p10
S'string'
p11
ssS'ci'
p12
(dp13
S'length'
p14
I8
sS'unique'
p15
I01
sS'sortable'
p16
I2
sS'sql'
p17
S'INTEGER REFERENCES usuario (id) ON DELETE CASCADE  NOT NULL  UNIQUE'
p18
sS'notnull'
p19
I01
sS'type'
p20
S'reference usuario'
p21
ssS'id'
p22
(dp23
g4
L1L
sg5
S'SERIAL PRIMARY KEY'
p24
sg7
L512L
sg8
L0L
sg9
L0L
sg10
S'id'
p25
ss.