(dp1
S'output'
p2
S"<type 'exceptions.NameError'> global name 'erroresCarga' is not defined"
p3
sS'layer'
p4
S'C:\\Users\\capf9\\Desktop\\University\\web2py_win\\web2py\\applications\\SisPIO\\controllers/default.py'
p5
sS'code'
p6
S'# -*- coding: utf-8 -*-\n# this file is released under public domain and you can use without limitations\n\n# -------------------------------------------------------------------------\n# This is a sample controller\n# - index is the default action of any application\n# - user is required for authentication and authorization\n# - download is for downloading files uploaded in the db (does streaming)\n# -------------------------------------------------------------------------\nimport os\nimport re\n\ndef user():\n    """\n    exposes:\n    http://..../[app]/default/user/login\n    http://..../[app]/default/user/logout\n    http://..../[app]/default/user/register\n    http://..../[app]/default/user/profile\n    http://..../[app]/default/user/retrieve_password\n    http://..../[app]/default/user/change_password\n    http://..../[app]/default/user/bulk_register\n    use @auth.requires_login()\n        @auth.requires_membership(\'group name\')\n        @auth.requires_permission(\'read\',\'table name\',record_id)\n    to decorate functions that need access control\n    also notice there is http://..../[app]/appadmin/manage/auth to allow administrator to manage users\n    """\n    if not(request.args):\n        if auth.is_logged_in():\n            redirect(URL(\'redireccionando\'))\n        else:\n            redirect(URL(\'index\'))\n    else:\n        if request.args[0] == \'login\':\n            if auth.is_logged_in():\n                redirect(URL(\'redireccionando\'))\n            else:\n                redirect(URL(\'index\'))\n    return dict(form=auth())\n\n\n@cache.action()\ndef download():\n    """\n    allows downloading of uploaded files\n    http://..../[app]/default/download/[filename]\n    """\n    return response.download(request, db)\n\n@auth.requires_login()\ndef call():\n    """\n    exposes services. for example:\n    http://..../[app]/default/call/jsonrpc\n    decorate with @services.jsonrpc the functions to expose\n    supports xml, json, xmlrpc, jsonrpc, amfrpc, rss, csv\n    """\n    return service()\n\ndef index():\n    if auth.is_logged_in():\n        redirect(URL(\'default\', \'user\', args=\'logout\')) # Si ya hay un usuario conectado, desconectarlo\n    return dict(form=auth.login())\n\ndef redireccionando():\n    if auth.is_logged_in():\n        if \'Administrador\' in auth.user_groups.values():\n            redirect(URL(\'admin\'))\n        elif \'Estudiante\' in auth.user_groups.values():\n            redirect(URL(\'welcome\'))\n        elif \'Profesor\' in auth.user_groups.values():\n            redirect(URL(\'profesor\'))\n        elif \'Representante_liceo\' in auth.user_groups.values():\n            redirect(URL(\'coordinadorLiceo\'))\n        elif \'Representante_sede\' in auth.user_groups.values():\n            redirect(URL(\'coordinadorPio\'))\n        else:\n            redirect(URL(\'default\', \'user\', args=\'logout\'))\n    else:\n        redirect(URL(\'index\'))\n    return dict()\n\n\n################ ADMIN ##################\n\n@auth.requires_membership(\'Administrador\')\n@auth.requires_login()\ndef admin():\n\n    #############\n    # Modificar\n    ############\n    modificando = None\n    formularioModificar = None\n    cedulaModificar = FORM()\n    if cedulaModificar.accepts(request.vars,formname="cedulaModificar"):    # Verificamos que se haya introducido una cedula\n        if db(db.estudiante.ci==request.vars.ci).select():\n            session.tipo = "Estudiante"\n            session.cedula = request.vars.ci\n        elif db(db.representante_sede.ci==request.vars.ci).select():\n            session.tipo = "Representante de sede"\n            session.cedula = request.vars.ci\n        elif db(db.representante_liceo.ci==request.vars.ci).select():\n            session.tipo = "Representante de liceo"\n            session.cedula = request.vars.ci\n        else:\n            response.flash = \'No hay un usuario para esta cedula\'\n\n    if session.tipo:\n        if session.tipo == "Estudiante":\n            if db(db.estudiante.ci==session.cedula).select():\n                modificando = [session.tipo, db(db.estudiante.ci==session.cedula).select()]\n                formularioModificar = SQLFORM(db.estudiante, modificando[1][0],showid=False)\n        elif session.tipo == "Representante de sede":\n            if db(db.representante_sede.ci==session.cedula).select():\n                modificando = [session.tipo, db(db.representante_sede.ci==session.cedula).select()]\n                formularioModificar = SQLFORM(db.representante_sede, modificando[1][0],showid=False)\n        elif session.tipo == "Representante de liceo":\n            if db(db.representante_liceo.ci==session.cedula).select():\n                modificando = [session.tipo, db(db.representante_liceo.ci==session.cedula).select()]\n                formularioModificar = SQLFORM(db.representante_liceo, modificando[1][0],showid=False)\n\n        if formularioModificar:\n            if formularioModificar.accepts(request.vars,formname=\'formularioModificar\'):            # Procesamos el formulario\n                response.flash = \'Modificado exitosamente\'\n                db(db.usuario.username==session.cedula).update(email=request.vars.correo)           # Se cambia el correo de ser necesario\n                db(db.usuario.username==session.cedula).update(username=request.vars.ci)            # Se cambia el username si se cambia la cedula\n                db(db.usuario.username==session.cedula).update(first_name=request.vars.Nombre)\n                db(db.usuario.username==session.cedula).update(last_name=request.vars.Apellido)\n                session.tipo = None\n                formularioModificar = None\n                modificando = None\n            elif formularioModificar.errors:\n                response.flash = \'Hay errores en el formulario\'\n\n    ##################\n    # Fin de modificar\n    ##################\n\n    #################\n    # Agregar Manualmente Estudiante\n    #################\n\n\n    formularioAgregarManual = FORM()\n    cohorte = db(db.cohorte.activo==True).select()[0].identificador # Cohorte Actual\n\n    #SI ha pasado correctamente el formulario\n    if formularioAgregarManual.accepts(request.vars,formname="formularioAgregarManual"):\n        if request.vars.tipoUsuario == "estudiante":\n            if (not(db(db.usuario.username == request.vars.cedula).select()) and not(db(db.estudiante.ci == request.vars.cedula).select())):\n                if 0 <= int(request.vars.PromedioEntero) + float(request.vars.PromedioDecimal)/100 <= 20:\n                    if db(db.liceo.nombre == request.vars.liceo).select():\n                        if re.match(\'^[0-9]{1,8}$\', request.vars.cedula):\n                            usuario_nuevo = db.usuario.insert(\n                                            username=request.vars.cedula,\n                                            first_name=request.vars.nombres,\n                                            last_name=request.vars.apellidos,\n                                            email="",\n                                            password=db.usuario.password.validate(request.vars.cedula)[0],\n                                            registration_key = "",\n                                            reset_password_key = "",\n                                            registration_id = ""\n                            )\n                            db.auth_membership.insert(user_id = usuario_nuevo, group_id= 1) # Agregar permisos de estudiante\n\n                            db.estudiante.insert(\n                                            Nombre=request.vars.nombres,\n                                            Apellido=request.vars.apellidos,\n                                            ci=request.vars.cedula,\n                                            promedio=int(request.vars.PromedioEntero) + float(request.vars.PromedioDecimal)/100,\n                                            direccion="",\n                                            telefono_habitacion="",\n                                            telefono_otro="",\n                                            fecha_nacimiento="",\n                                            sexo="",\n                                            estatus="Pre-inscrito",\n                                            cohorte=cohorte,\n                                            ci_representante="",\n                                            nombre_representante="",\n                                            apellido_representante="",\n                                            sexo_representante="",\n                                            correo_representante="",\n                                            direccion_representante="",\n                                            nombre_liceo=request.vars.liceo,\n                                            telefono_representante_oficina="",\n                                            telefono_representante_otro="",\n                                            sufre_enfermedad="",\n                                            enfermedad="",\n                                            indicaciones_enfermedad="")\n\n                            response.flash = "Estudiante agregado exitosamente"\n                        else:\n                            response.flash = "El formato de la cedula no es el correcto"\n                    else:\n                        response.flash = "El liceo no se encuentra en la base de datos"\n                else:\n                    response.flash = "El promedio debe ser un valor comprendido entre 0 y 20"\n            else:\n                response.flash = "Ya existe un usuario con esa c\xc3\xa9dula"\n\n    #######################\n    # Agregar coordinador de liceo manualmente\n    #######################\n\n        elif request.vars.tipoUsuario == "coordinadorLiceo":\n            if (not(db(db.usuario.username == request.vars.cedula).select()) and not(db(db.representante_liceo.ci == request.vars.cedula).select())):\n                if db(db.liceo.nombre == request.vars.liceo).select():                # Verificamos que el liceo este en la base de datos\n                    if re.match(\'^[0-9]{1,8}$\', request.vars.cedula):\n                        id = db.usuario.insert(first_name = request.vars.nombres ,\n                                               last_name = request.vars.apellidos,\n                                               email = "",\n                                               username = request.vars.cedula,\n                                               password = db.usuario.password.validate(request.vars.cedula)[0],\n                                               registration_key = "",\n                                               reset_password_key = "",\n                                               registration_id = "" ) # Agregar el usuario\n\n                        db.auth_membership.insert(user_id = id, group_id=3) # Agregar permisos de representante liceo (group_id=3)\n\n                        db.representante_liceo.insert(\n                                                      Nombre=request.vars.nombres,\n                                                      Apellido=request.vars.apellidos,\n                                                      ci=request.vars.cedula,\n                                                      nombre_liceo=request.vars.liceo) # Agregar el representante de liceo\n                        response.flash = "Coordinador del liceo agregado exitosamente"\n                    else:\n                        response.flash = "El formato de la cedula no es el correcto"\n                else:\n                    response.flash = "El liceo no se encuentra en la base de datos"\n            else:\n                response.flash = "Ya existe un usuario con esa c\xc3\xa9dula"\n\n    #######################\n    # Agregar coordinador pio manualmente\n    #######################\n\n        elif request.vars.tipoUsuario == "coordinadorSede":\n            if (not(db(db.usuario.username == request.vars.cedula).select()) and not(db(db.representante_sede.ci == request.vars.cedula).select())):\n                if request.vars.sede=="Sartenejas" or request.vars.sede=="Litoral" or request.vars.sede=="Higuerote" or request.vars.sede=="Guarenas":\n                    if re.match(\'^[0-9]{1,8}$\', request.vars.cedula):\n                        representante_nuevo = db.usuario.insert(first_name = request.vars.nombres,\n                                                                last_name = request.vars.apellidos,\n                                                                email = "",\n                                                                username = request.vars.cedula,\n                                                                password = db.usuario.password.validate(request.vars.cedula)[0],\n                                                                registration_key = "",\n                                                                reset_password_key = "",\n                                                                registration_id = "" ) # Agregar el usuario\n\n                        db.auth_membership.insert(user_id = representante_nuevo, group_id=4) # Agregar permisos de representante sede (group_id=4)\n\n                        db.representante_sede.insert(ci=request.vars.cedula,\n                                                    Nombre=request.vars.nombres,\n                                                    Apellido=request.vars.apellidos,\n                                                    sede=request.vars.sede) # Agregar el representante de sede\n                        response.flash = "Representante de sede agregado exitosamente"\n                    else:\n                        response.flash = "El formato de la cedula no es el correcto"\n                else:\n                    response.flash = "La sede no se encuentra en la base de datos"\n            else:\n                response.flash = "Ya existe un usuario con esa c\xc3\xa9dula"\n\n\n    #######################\n    # Agregar profesor manualmente\n    #######################\n\n        elif request.vars.tipoUsuario == "profesor":\n            if (not(db(db.usuario.username == request.vars.cedula).select())):\n                if re.match(\'^[0-9]{1,8}$\', request.vars.cedula):\n                    id = db.usuario.insert(first_name = request.vars.nombres,\n                                                    last_name = request.vars.apellidos,\n                                                    email = "",\n                                                    username = request.vars.cedula,\n                                                    password = db.usuario.password.validate(request.vars.cedula)[0],\n                                                    registration_key = "",\n                                                    reset_password_key = "",\n                                                    registration_id = "" ) # Agregar el usuario\n                    db.auth_membership.insert(user_id = id, group_id= 2) # Agregar permisos de profesor\n\n                    db.profesor.insert(Nombre = request.vars.nombres,\n                                        Apellido = request.vars.apellidos,\n                                        ci = request.vars.cedula,\n                                        correo = \'\')\n                    response.flash = \'Agregado profesor exitosamente\'\n\n                else:\n                    response.flash= "El formato de la cedula no es el correcto"\n            else:\n                response.flash = "Ya existe un usuario con esa cedula"\n    #####################################\n    # Agregar administradores manualmente\n    #####################################\n\n        elif request.vars.tipoUsuario == "admin":\n            if (not(db(db.usuario.username == request.vars.cedula).select())):\n                if re.match(\'^[0-9]{1,8}$\', request.vars.cedula):\n                    admin_nuevo = db.usuario.insert(first_name = request.vars.nombres,\n                                                    last_name = request.vars.apellidos,\n                                                    email = request.vars.email,\n                                                    username = request.vars.cedula,\n                                                    password = db.usuario.password.validate(request.vars.cedula)[0],\n                                                    registration_key = "",\n                                                    reset_password_key = "",\n                                                    registration_id = "" ) # Agregar el usuario\n\n                    db.auth_membership.insert(user_id = admin_nuevo, group_id= 5) # Agregar permisos de estudiantes\n                    response.flash = "Adminitrador agregado exitosamente"\n                else:\n                    response.flash= "El formato de la cedula no es el correcto"\n            else:\n                response.flash = "Ya existe un usuario con esa cedula"\n    elif formularioAgregarManual.errors:\n        response.flash = "Formulario no fue aceptado VERSION 1"\n\n\n\n    #######################\n    # Agregar liceo manualmente\n    #######################\n\n    formularioLiceoManual = SQLFORM(db.liceo)\n    if formularioLiceoManual.process().accepted:\n        response.flash = "Agregado Exitosamente"\n    elif formularioLiceoManual.errors:\n        response.flash = "Hay Errores en el formulario"\n\n    ########################\n    ###Consula de datos\n    ########################\n    T.force(\'es\')\n    username = auth.user.username\n    usuario = db(db.usuario.username==username).select().first()\n\n    formAdministrador = SQLFORM.factory(\n        Field(\'first_name\' +  \'last_name\',\n            type=\'string\',\n            default=usuario.first_name + " " + usuario.last_name,\n            requires=db.usuario.first_name.requires and db.usuario.last_name.requires,\n            label=\'nombre\'\n            ),\n        Field(\'username\',\n            type=\'string\',\n            notnull = True,\n            default=usuario.username,\n            requires=db.usuario.username.requires,\n            label=\'ci\'\n            ),\n        Field(\'email\',\n            type=\'string\',\n            default=usuario.email,\n            requires=db.usuario.email.requires,\n            label=\'email\'),\n        readonly = True\n        )\n\n    if formAdministrador.process(session=None, formname=\'perfil del administrador\', keepvalues=True).accepted:\n        response.flash = \'El formulario fue aceptado exitosamente.\'\n\n    elif formAdministrador.errors:\n        #error = True\n        response.flash = \'Hay un error en un campo.\'\n    ############################\n    ###fin de Consula de datos\n    ############################\n\n    #######################\n    # Para los desplegables\n    #######################\n\n    liceos = db(db.liceo.id>0).select()\n\n    sedes = db(db.sede.id>0).select()\n    profesores = db(db.profesor.id>0).select()\n    cohortes = db(db.cohorte.id>0).select()\n\n    ##########################\n    # Fin de los desplegables\n    ##########################\n\n    #############\n    # Consulta\n    #############\n    consulta = None\n    formularioConsulta = FORM()\n    consultarTodo = FORM()\n\n    if consultarTodo.accepts(request.vars,formname="consultarTodo"):\n        consulta = db(db.usuario.id>0).select()\n\n    if formularioConsulta.accepts(request.vars,formname="formularioConsulta"):\n        pass\n\n    ###############\n    # Fin Consulta\n    ###############\n\n    #################\n    # Eliminar liceo\n    #################\n\n    formularioEliminarLiceo = FORM()\n    if formularioEliminarLiceo.accepts(request.vars,formname="formularioEliminarLiceo"):\n        db(db.liceo.nombre==request.vars.liceoEliminar).delete()\n        response.flash = \'Eliminado exitosamente el liceo \' + str(request.vars.liceoEliminar)\n    elif formularioEliminarLiceo.errors:\n        response.flash = \'No se pudo eliminar el liceo\'\n\n    #####################\n    # Fin eliminar liceo\n    #####################\n\n    return dict(formAdministrador=formAdministrador, erroresCarga=erroresCarga,\n                cargaExitosa=cargaExitosa, eliminando=eliminando,\n                tipoUserEliminando=tipoUserEliminando, modificando=modificando,\n                formularioModificar = formularioModificar, liceos=liceos,\n                sedes=sedes, profesores=profesores, cohortes=cohortes,\n                consulta=consulta, formularioLiceoManual=formularioLiceoManual)\n\ndef eliminar():\n    ###############\n    # Eliminar\n    ###############\n    eliminando =  None\n    tipoUserEliminando = "none"\n    formularioEliminar = FORM()\n    if formularioEliminar.accepts(request.vars,formname=\'formularioEliminar\'): # Chequeamos si hay una cedula para revisar\n        if db(db.usuario.username==request.vars.ci).select():       # chequeamos si existe un usuario con la cedula introducidad\n            user = request.vars.ci                                  # Guardamos la cedula para usarla mas tarde\n            session.eliminar = user                                 # Guardamos la cedula para usarla en el siguiente formulario\n            eliminando = db(db.usuario.username==user).select()     # Seleccionamos el usuario a eliminar\n            tipoUserEliminando = db(db.auth_membership.user_id==eliminando[0].id).select()[0].group_id # Numero del grupo al que pertenece el user a eliminar\n            tipoUserEliminando = db(db.auth_group.id==tipoUserEliminando).select()[0].role              # Buscamos el nombre correspondiente al grupo\n        else:\n            eliminando = "No hay un usuario con esa cedula"\n\n    # Si se confirma la eliminacion\n    confirmacionEliminar = FORM()\n    if confirmacionEliminar.accepts(request.vars,formname=\'confirmacionEliminar\'): # Chequeamos si hay una cedula para revisar\n        db(db.usuario.username==session.eliminar).delete()          # Eliminamos el usuario\n        db(db.estudiante.ci==session.eliminar).delete()             # Eliminamos el estudiante\n        db(db.representante_sede.ci==session.eliminar).delete()     # Eliminamos el representante de sede\n        db(db.representante_liceo.ci==session.eliminar).delete()    # Eliminamos el representante de liceo\n        session.eliminar = None                                     # Destruimos la variable para evitar bugs\n        response.flash = "Eliminado exitosamente"\n    ################\n    # Fin Eliminar\n    ################\n\n@auth.requires_membership(\'Administrador\')\n@auth.requires_login()\ndef adminNoticias():\n    return dict()\n\n@auth.requires_membership(\'Administrador\')\n@auth.requires_login()\ndef cargarArchivo():\n    ##################\n    # Carga de archivo\n    ##################\n    erroresCarga = [] # Los errores en la carga van aqui\n    cargaExitosa = [] # Los usuarios agregados exitosamente van aqui\n    cohorte = db(db.cohorte.activo==True).select()[0].identificador # Cohorte Actual\n    formularioArchivo = FORM(\n                            INPUT(_name=\'tituloArchivo\', _type=\'text\'),\n                            INPUT(_name=\'archivo\', _type=\'file\')\n                            )\n    if formularioArchivo.accepts(request.vars,formname=\'formularioArchivo\'): # Chequeamos si hay un archivo cargado\n        archivo =request.vars.fileToUpload.filename.split(".")  # Separamos el nombre del archivo de la extension\n        nombreArchivo, extension = archivo[0], archivo[1]\n        if extension == "csv":          # Chequeamos la extension del archivo\n            response.flash = \'Procesado archivo exitosamente\'\n            ######################\n            # Cargando Estudiantes\n            ######################\n            if request.vars.optradio == "estudiante":   # Chequeamos el tipo de usuario a agregar\n                f = request.vars.fileToUpload.file      # Archivo cargado\n                texto = f.read().splitlines()           # Leer el archivo\n                cabecera = texto[0].split(";")          # Extraemos la cabecera\n                liceo = texto[1].split(";")             # Extraemos la linea que contiene el nombre del liceo\n                texto.remove(texto[1])                  # Eliminamos del texto la linea del liceo para no iterar sobre ella\n                texto.remove(texto[0])                  # Eliminamos del texto la cabecera para no iterar sobre ella\n                if ((cabecera[0]=="C.I." and cabecera[1]==\'Nombres\' and\n                cabecera[2]==\'Apellidos\' and cabecera[3]==\'Promedio (00.00)\') and\n                (liceo[0] == "Nombre del Liceo:") and liceo[1] == "" and liceo[2] != ""): # Verificamos que la cabecera y la linea del liceo tenga el formato correcto\n                    liceo = liceo[2]                    # Seleccionamos el nombre del liceo\n                    datos = []                          # Los usuarios a agregar van aqui\n                    for i in texto:\n                        if i != ";;;;":\n                            dato = i.split(";")         # Separamos los datos del usuario\n                            datos.append(dato)          # Agregamos el usuario a la lista de usuarios por agregar\n\n                    for i in datos:\n                        if (not(db(db.usuario.username == i[0]).select()) and\n                           not(db(db.estudiante.ci == i[0]).select())):         # Verificar que no existe un usuario para esa cedula\n                            if 0 <= float(i[3]) <= 20:                          # Verificamos que el indice sea correcto\n                                if db(db.liceo.nombre == liceo).select():       # Verificamos que el liceo este en la base de datos\n                                    if re.match(\'^[0-9]{1,8}$\', i[0]):          # Verificamos que la cedula cumpla la expresion regular\n                                        id = db.usuario.insert(first_name = i[1],last_name = i[2], email = "", username = i[0],\n                                                      password = db.usuario.password.validate(i[0])[0], registration_key = "",\n                                                      reset_password_key = "", registration_id = "" )       # Agregar el usuario\n                                        db.auth_membership.insert(user_id = id, group_id= 1)                # Agregar permisos de estudiante (group_id=1)\n                                        db.estudiante.insert(Nombre=i[1], Apellido=i[2], ci=i[0], promedio=float(i[3]), direccion="", telefono_habitacion="",\n                                                        telefono_otro="", fecha_nacimiento="", sexo="", estatus="Pre-inscrito",\n                                                        cohorte=cohorte, ci_representante="", nombre_representante="",\n                                                        apellido_representante="", sexo_representante="", correo_representante="",\n                                                        direccion_representante="", nombre_liceo=liceo, telefono_representante_oficina="",\n                                                        telefono_representante_otro="", sufre_enfermedad="", enfermedad="",\n                                                        indicaciones_enfermedad="")     # Agregamos el estudiante Cohorte deberia ser una variable global\n                                        cargaExitosa.append(i)                          # Agregarlo a los estudiantes cargados exitosamente\n                                    else:\n                                        erroresCarga.append([i,"Cedula incorrecta"])                                            # Error de Carga\n                                else:\n                                    erroresCarga.append([i,"Su liceo no esta en la base de datos. Contacte al administrador"])  # Error de Carga\n                            else:\n                                erroresCarga.append([i,"El promedio debe ser un numero entre 0 y 20"])                          # Error de Carga\n                        else:\n                            erroresCarga.append([i,"Ya existe un usuario en el sistema con esta cedula"])                       # Error de Carga\n\n                else:\n                    response.flash = "Formato de los datos del archivo invalido. Consulte el manual"                            # Error de Carga\n            #################################\n            # Cargando Representantes de sede\n            #################################\n            elif request.vars.optradio == "sede":\n                f = request.vars.fileToUpload.file      # Archivo cargado\n                texto = f.read().splitlines()           # Leer el archivo\n                cabecera = texto[0].split(";")          # Extraemos la cabecera\n                texto.remove(texto[0])                  # Eliminamos del texto la cabecera para no iterar sobre ella\n                if (cabecera[0]=="C.I." and cabecera[1]==\'Nombres\' and\n                    cabecera[2]==\'Apellidos\' and cabecera[3]==\'Sede\'): # Verificamos que la cabecera tenga el formato correcto\n                    datos = []                          # Los usuarios a agregar van aqui\n                    for i in texto:\n                        if i != ";;;;":\n                            dato = i.split(";")         # Separamos los datos del usuario\n                            datos.append(dato)          # Agregamos el usuario a la lista de usuarios por agregar\n\n                    for i in datos:\n                        if (not(db(db.usuario.username == i[0]).select()) and\n                            not(db(db.representante_sede.ci == i[0]).select())):    # Verificar que no existe un usuario para esa cedula\n                            if db(db.sede.zona == i[3]).select():                # Verificamos que la sede este en la base de datos\n                                if re.match(\'^[0-9]{1,8}$\', i[0]):                      # Verificamos que la cedula cumpla la expresion regular\n                                    id = db.usuario.insert(first_name = i[1],last_name = i[2], email = "", username = i[0],\n                                                  password = db.usuario.password.validate(i[0])[0], registration_key = "",\n                                                  reset_password_key = "", registration_id = "" ) # Agregar el usuario\n                                    db.auth_membership.insert(user_id = id, group_id=4) # Agregar permisos de representante sede (group_id=4)\n                                    db.representante_sede.insert(Nombre=i[1], Apellido=i[2], ci=i[0], sede=i[3]) # Agregar el representante de sede\n                                    cargaExitosa.append(i) # Agregarlo a los usuarios cargados exitosamente\n                                else:\n                                    erroresCarga.append([i,"Cedula incorrecta"])                                                # Error de Carga\n                            else:\n                                erroresCarga.append([i,"Su sede no esta en la base de datos. Contacte al administrador"])  # Error de Carga\n                        else:\n                            erroresCarga.append([i,"Ya existe un usuario en el sistema con esta cedula"])                   # Error de Carga\n                else: #Error\n                    response.flash = "Formato de los datos del archivo invalido. Consulte el manual"                       # Error de Carga\n            ##################################\n            # Cargando Representante de liceos\n            ##################################\n            elif request.vars.optradio == "liceo":\n                f = request.vars.fileToUpload.file      # Archivo cargado\n                texto = f.read().splitlines()           # Leer el archivo\n                cabecera = texto[0].split(";")          # Extraemos la cabecera\n                texto.remove(texto[0])                  # Eliminamos del texto la cabecera para no iterar sobre ella\n                if (cabecera[0]=="C.I." and cabecera[1]==\'Nombres\' and\n                cabecera[2]==\'Apellidos\' and cabecera[3]==\'Liceo\'): # Verificamos que la cabecera tenga el formato correcto\n                    datos = []                          # Los usuarios a agregar van aqui\n                    for i in texto:\n                        if i != ";;;;":\n                            dato = i.split(";")         # Separamos los datos del usuario\n                            datos.append(dato)          # Agregamos el usuario a la lista de usuarios por agregar\n\n                    for i in datos:\n                        if (not(db(db.usuario.username == i[0]).select()) and\n                            not(db(db.representante_liceo.ci == i[0]).select())):    # Verificar que no existe un usuario para esa cedula\n                            if db(db.liceo.nombre == i[3]).select():                # Verificamos que el liceo este en la base de datos\n                                if re.match(\'^[0-9]{1,8}$\', i[0]):      # Verificamos que la cedula cumpla la expresion regular\n                                    id = db.usuario.insert(first_name = i[1],last_name = i[2], email = "", username = i[0],\n                                                  password = db.usuario.password.validate(i[0])[0], registration_key = "",\n                                                  reset_password_key = "", registration_id = "" ) # Agregar el usuario\n                                    db.auth_membership.insert(user_id = id, group_id=3) # Agregar permisos de representante liceo (group_id=3)\n                                    db.representante_liceo.insert(Nombre=i[1], Apellido=i[2], ci=i[0], nombre_liceo=i[3]) # Agregar el representante de liceo\n                                    cargaExitosa.append(i) # Agregarlo a los usuarios cargados exitosamente\n                                else:\n                                    erroresCarga.append([i,"Cedula incorrecta"])                                            # Error de Carga\n                            else:\n                                erroresCarga.append([i,"Su liceo no esta en la base de datos. Contacte al administrador"])  # Error de Carga\n                        else:\n                            erroresCarga.append([i,"Ya existe un usuario en el sistema con esta cedula"])                   # Error de Carga\n                else: #Error\n                    response.flash= "Formato de los datos del archivo invalido. Consulte el manual"                          # Error de Carga\n            #####################\n            # Cargando Profesores\n            #####################\n            elif request.vars.optradio == "profesor":\n                f = request.vars.fileToUpload.file      # Archivo cargado\n                texto = f.read().splitlines()           # Leer el archivo\n                cabecera = texto[0].split(";")          # Extraemos la cabecera\n                chequeo = texto[1].split(";")             # Extraemos la linea que contiene el nombre del liceo\n                texto.remove(texto[1])                  # Eliminamos del texto la linea del liceo para no iterar sobre ella\n                texto.remove(texto[0])\n                if (cabecera[0]=="C.I." and cabecera[1]==\'Nombres\' and\n                    cabecera[2]==\'Apellidos\' and cabecera[3]==\'Materia\' and\n                    chequeo[0] == "A continuacion ingrese los profesores" and\n                    chequeo[1] == "" and chequeo[2] == ""):\n\n                    datos = []                          # Los usuarios a agregar van aqui\n                    for i in texto:\n                        if i != ";;;;":\n                            dato = i.split(";")         # Separamos los datos del usuario\n                            datos.append(dato)\n\n                    for i in datos:\n                        if (not(db(db.usuario.username == i[0]).select()) and\n                            not(db(db.profesor.ci == i[0]).select())):    # Verificar que no existe un usuario para esa cedula\n                            if re.match(\'^[0-9]{1,8}$\', i[0]):      # Verificamos que la cedula cumpla la expresion regular\n                                id = db.usuario.insert(first_name = i[1],last_name = i[2], email = "", username = i[0],\n                                              password = db.usuario.password.validate(i[0])[0], registration_key = "",\n                                              reset_password_key = "", registration_id = "" ) # Agregar el usuario\n                                db.auth_membership.insert(user_id = id, group_id=2) # Agregar permisos de profesor(group_id=2)\n                                db.profesor.insert(Nombre=i[1], Apellido=i[2], ci=i[0]) # Agregar el profesor FALTA LA MATERIA EN LA BD\n                                cargaExitosa.append(i) # Agregarlo a los usuarios cargados exitosamente\n                            else:\n                                erroresCarga.append([i,"Cedula incorrecta"])                                            # Error de Carga\n                        else:\n                            erroresCarga.append([i,"Ya existe un usuario en el sistema con esta cedula"])                   # Error de Carga\n                else: #Error\n                    response.flash= "Formato de los datos del archivo invalido. Consulte el manual"\n            #####################\n            # Cargando Liceos\n            #####################\n            elif request.vars.optradio == "liceos":\n                f = request.vars.fileToUpload.file      # Archivo cargado\n                texto = f.read().splitlines()           # Leer el archivo\n                cabecera = texto[0].split(";")          # Extraemos la cabecera\n                texto.remove(texto[0])                  # Eliminamos del texto la cabecera para no iterar sobre ella\n                if (cabecera[0]=="Nombre del Liceo" and cabecera[2]==\'Tipo del Liceo\' and\n                cabecera[4]==\'Sede\'):                   # Verificamos que la cabecera tenga el formato correcto\n                    datos = []                          # Los liceos a agregar van aqui\n                    for i in texto:\n                        if i != ";;;;":\n                            dato = i.split(";")         # Separamos los datos del usuario\n                            datos.append(dato)          # Agregamos el usuario a la lista de usuarios por agregar\n\n                    for i in datos:\n                        if not(db(db.liceo.nombre == i[0]).select()):               # Verificar que no existe un liceo con ese nombre\n                            db.liceo.insert(nombre = i[0], tipo = i[2], sede = i[4]) # Agregar el liceos\n                            cargaExitosa.append(i) # Agregarlo a los liceos cargados exitosamente\n                        else:\n                            erroresCarga.append([i,"Ya existe un liceo en el sistema con ese nombre"])                      # Error de Carga\n                else: #Error\n                    erroresCarga.append("Formato de los datos del archivo invalido. Consulte el manual")                    # Error de Carga\n        else: #Error\n            response.flash = "El formato del archivo debe ser \\".csv\\". Consulte el manual de usuario"\n    else:\n        pass\n\n    ######################\n    # Fin Carga de Archivo\n    ######################\n\n\n\n############ FIN ADMIN ####################\n\n############ PROFESOR #######################\n@auth.requires_membership(\'Profesor\')\n@auth.requires_login()\ndef profesor():\n    return dict()\n\n@auth.requires_membership(\'Representante_liceo\')\n@auth.requires_login()\ndef coordinadorLiceo():\n\n    ##################\n    # Carga de archivo\n    ##################\n    erroresCarga = [] # Los errores en la carga van aqui\n    cargaExitosa = [] # Los usuarios agregados exitosamente van aqui\n    cohorte = db(db.cohorte.activo==True).select()[0].identificador # Cohorte Actual\n    liceo = db(db.representante_liceo.ci == auth.user.username).select()[0].nombre_liceo # Liceo al que pertenece el representante logiado\n\n    formularioArchivo = FORM(\n                            INPUT(_name=\'tituloArchivo\', _type=\'text\'),\n                            INPUT(_name=\'archivo\', _type=\'file\')\n                            )\n    if formularioArchivo.accepts(request.vars,formname=\'formularioArchivo\'): # Chequeamos si hay un archivo cargado\n        archivo =request.vars.fileToUpload.filename.split(".")  # Separamos el nombre del archivo de la extension\n        nombreArchivo, extension = archivo[0], archivo[1]\n        if extension == "csv":          # Chequeamos la extension del archivo\n            ######################\n            # Cargando Estudiantes\n            ######################\n            f = request.vars.fileToUpload.file      # Archivo cargado\n            texto = f.read().splitlines()           # Leer el archivo\n            cabecera = texto[0].split(";")          # Extraemos la cabecera\n            chequeoFormato = texto[1].split(";")    # Extraemos la segunda linea del archivo\n            texto.remove(texto[1])                  # Eliminamos la segunda linea del archivo para no iterar sobre ella\n            texto.remove(texto[0])                  # Eliminamos del texto la cabecera para no iterar sobre ella\n            if (cabecera[0]=="C.I." and cabecera[1]==\'Nombres\' and\n                cabecera[2]==\'Apellidos\' and cabecera[3]==\'Promedio (00.00)\' and\n                chequeoFormato[0]=="A continuacion coloque sus estudiantes con el formato indicado"): # Verificamos que la cabecera tenga el formato correcto\n                datos = []                          # Los usuarios a agregar van aqui\n                for i in texto:\n                    if i != ";;;;":\n                        dato = i.split(";")         # Separamos los datos del usuario\n                        datos.append(dato)          # Agregamos el usuario a la lista de usuarios por agregar\n\n                for i in datos:\n                    if (not(db(db.usuario.username == i[0]).select()) and\n                       not(db(db.estudiante.ci == i[0]).select())):         # Verificar que no existe un usuario para esa cedula\n                        if 0 <= float(i[3]) <= 20:                          # Verificamos que el indice sea correcto\n                            if db(db.liceo.nombre == liceo).select():       # Verificamos que el liceo este en la base de datos\n                                if re.match(\'^[0-9]{1,8}$\', i[0]):      # Verificamos que la cedula cumpla la expresion regular\n                                    id = db.usuario.insert(first_name = i[1],last_name = i[2], email = "", username = i[0],\n                                                  password = db.usuario.password.validate(i[0])[0], registration_key = "",\n                                                  reset_password_key = "", registration_id = "" )       # Agregar el usuario\n                                    db.auth_membership.insert(user_id = id, group_id= 1)                # Agregar permisos de estudiante (group_id=1)\n                                    db.estudiante.insert(nombre=i[1], apellido=i[2], ci=i[0], promedio=float(i[3]), direccion="", telefono_habitacion="",\n                                                    telefono_otro="", fecha_nacimiento="", sexo="", estatus="Pre-inscrito",\n                                                    cohorte=cohorte, ci_representante="", nombre_representante="",\n                                                    apellido_representante="", sexo_representante="", correo_representante="",\n                                                    direccion_representante="", nombre_liceo=liceo, telefono_representante_oficina="",\n                                                    telefono_representante_otro="", sufre_enfermedad="", enfermedad="",\n                                                    indicaciones_enfermedad="")     # Agregamos el estudiante Cohorte deberia ser una variable global\n                                    cargaExitosa.append(i)                          # Agregarlo a los estudiantes cargados exitosamente\n                                else:\n                                    erroresCarga.append([i,"Cedula incorrecta"])  # Error de Carga\n                            else:\n                                erroresCarga.append([i,"Su liceo no esta en la base de datos. Contacte al administrador"])  # Error de Carga\n                        else:\n                            erroresCarga.append([i,"El promedio debe ser un numero entre 0 y 20"])                          # Error de Carga\n                    else:\n                        erroresCarga.append([i,"Ya existe un usuario en el sistema con esta cedula"])                       # Error de Carga\n\n            else: #Error\n                erroresCarga.append("Formato de los datos del archivo invalido. Consulte el manual")                        # Error de Carga\n\n        else: #Error\n            erroresCarga.append("El formato del archivo debe ser \\".csv\\". Consulte el manual de usuario")\n    else:\n        pass\n\n    ######################\n    # Fin Carga de Archivo\n    ######################\n\n    ########################\n    ###Consula de datos\n    ########################\n    T.force(\'es\')\n    username = auth.user.username\n    representante_liceo=db(db.representante_liceo.ci==username).select().first()\n    usuario = db(db.usuario.username==username).select().first()\n    #tipo=""\n    #error = False\n\n    formDatosBasicos = SQLFORM.factory(\n        Field(\'first_name\' +  \'last_name\',\n            type=\'string\',\n            default=usuario.first_name + " " + usuario.last_name,\n            requires=db.usuario.first_name.requires and db.usuario.last_name.requires,\n            label=\'nombre\'\n            ),\n        Field(\'username\',\n            type=\'string\',\n            notnull = True,\n            default=usuario.username,\n            requires=db.usuario.username.requires,\n            label=\'ci\'\n            ),\n        Field(\'email\',\n            type=\'string\',\n            default=usuario.email,\n            requires=db.usuario.email.requires,\n            label=\'email\'),\n        readonly = True\n        )\n\n    if formDatosBasicos.process(session=None, formname=\'perfil basico del Representante liceo de sede\', keepvalues=True).accepted:\n        response.flash = \'El formulario fue aceptado exitosamente.\'\n\n    elif formDatosBasicos.errors:\n        #error = True\n        response.flash = \'Hay un error en un campo.\'\n\n    formCoordinadorLiceo = SQLFORM.factory(\n        Field(\'ci\',\n            type=\'string\',\n            notnull=True,\n            default=representante_liceo.ci,\n            requires=db.representante_liceo.ci.requires,\n            label=\'ci\'\n            ),\n        Field(\'first_name\' +  \'last_name\',\n            type=\'string\',\n            default=usuario.first_name + " " + usuario.last_name,\n            requires=db.usuario.first_name.requires and db.usuario.last_name.requires,\n            label=\'nombre\'\n            ),\n        Field(\'nombre_liceo\',\n            type=\'string\',\n            default=representante_liceo.nombre_liceo,\n            requires=db.representante_liceo.nombre_liceo.requires,\n            label=\'nombre_liceo\'\n            ),\n        Field(\'email\',\n            type=\'date\',\n            default=usuario.email,\n            requires=db.usuario.email.requires,\n            label=\'email\'),\n        readonly = True\n        )\n\n    if formCoordinadorLiceo.process(session=None, formname=\'perfil del Representante Liceo de sede\', keepvalues=True).accepted:\n        response.flash = \'El formulario fue aceptado exitosamente.\'\n\n    elif formCoordinadorLiceo.errors:\n        #error = True\n        response.flash = \'Hay un error en un campo.\'\n    ############################\n    ###fin de Consula de datos\n    ############################\n\n    return dict(formCoordinadorLiceo=formCoordinadorLiceo, formDatosBasicos=formDatosBasicos, erroresCarga=erroresCarga, cargaExitosa=cargaExitosa)\n\n@auth.requires_membership(\'Representante_sede\')\n@auth.requires_login()\ndef coordinadorPio():\n\n    ########################\n    ###Consula de datos\n    ########################\n    T.force(\'es\')\n    username = auth.user.username\n    representante_sede=db(db.representante_sede.ci==username).select().first()\n    usuario = db(db.usuario.username==username).select().first()\n    #tipo=""\n    #error = False\n\n    formDatosBasicos = SQLFORM.factory(\n        Field(\'first_name\' +  \'last_name\',\n            type=\'string\',\n            default=usuario.first_name + " " + usuario.last_name,\n            requires=db.usuario.first_name.requires and db.usuario.last_name.requires,\n            label=\'nombre\'\n            ),\n        Field(\'username\',\n            type=\'string\',\n            notnull = True,\n            default=usuario.username,\n            requires=db.usuario.username.requires,\n            label=\'ci\'\n            ),\n        Field(\'email\',\n            type=\'string\',\n            default=usuario.email,\n            requires=db.usuario.email.requires,\n            label=\'email\'),\n        readonly = True\n        )\n\n    if formDatosBasicos.process(session=None, formname=\'perfil basico del Representante PIO de sede\', keepvalues=True).accepted:\n        response.flash = \'El formulario fue aceptado exitosamente.\'\n\n    elif formDatosBasicos.errors:\n        #error = True\n        response.flash = \'Hay un error en un campo.\'\n\n    formCoordinadorPio = SQLFORM.factory(\n        Field(\'ci\',\n            type=\'string\',\n            notnull=True,\n            default=representante_sede.ci,\n            requires=db.representante_sede.ci.requires,\n            label=\'ci\'\n            ),\n        Field(\'first_name\' +  \'last_name\',\n            type=\'string\',\n            default=usuario.first_name + " " + usuario.last_name,\n            requires=db.usuario.first_name.requires and db.usuario.last_name.requires,\n            label=\'nombre\'\n            ),\n        Field(\'sede\',\n            type=\'string\',\n            default=representante_sede.sede,\n            requires=db.representante_sede.sede.requires,\n            label=\'sede\'\n            ),\n        Field(\'email\',\n            type=\'date\',\n            default=usuario.email,\n            requires=db.usuario.email.requires,\n            label=\'email\'),\n        readonly = True\n        )\n\n    if formCoordinadorPio.process(session=None, formname=\'perfil del Representante PIO de sede\', keepvalues=True).accepted:\n        response.flash = \'El formulario fue aceptado exitosamente.\'\n\n    elif formCoordinadorPio.errors:\n        #error = True\n        response.flash = \'Hay un error en un campo.\'\n    ############################\n    ###fin de Consula de datos\n    ############################\n\n    return dict(formDatosBasicos=formDatosBasicos, formCoordinadorPio=formCoordinadorPio)\n\n@auth.requires_membership(\'Estudiante\')\n@auth.requires_login()\ndef welcome():\n\n    ########################\n    ###Consula de datos\n    ########################\n    T.force(\'es\')\n    username = auth.user.username\n    estudiante=db(db.estudiante.ci==username).select().first()\n    usuario = db(db.usuario.username==username).select().first()\n    #tipo=""\n    #error = False\n\n    formDatosBasicos = SQLFORM.factory(\n        Field(\'first_name\' +  \'last_name\',\n            type=\'string\',\n            default=usuario.first_name + " " + usuario.last_name,\n            requires=db.usuario.first_name.requires and db.usuario.last_name.requires,\n            label=\'nombre\'\n            ),\n        Field(\'username\',\n            type=\'string\',\n            notnull = True,\n            default=usuario.username,\n            requires=db.usuario.username.requires,\n            label=\'ci\'\n            ),\n        Field(\'email\',\n            type=\'string\',\n            default=usuario.email,\n            requires=db.usuario.email.requires,\n            label=\'email\'),\n        readonly = True\n        )\n\n    if formDatosBasicos.process(session=None, formname=\'perfil basico del Estudiante\', keepvalues=True).accepted:\n        response.flash = \'El formulario fue aceptado exitosamente.\'\n\n    elif formDatosBasicos.errors:\n        #error = True\n        response.flash = \'Hay un error en un campo.\'\n\n    formEstudiante = SQLFORM.factory(\n        Field(\'ci\',\n            type=\'string\',\n            notnull=True,\n            default=estudiante.ci,\n            requires=db.estudiante.ci.requires,\n            label=\'ci\'\n            ),\n        Field(\'first_name\',\n            type=\'string\',\n            default=usuario.first_name,\n            requires=db.usuario.first_name.requires and db.usuario.last_name.requires,\n            label=\'nombre\'\n            ),\n        Field(\'last_name\',\n            type=\'string\',\n            default=usuario.last_name,\n            requires=db.usuario.first_name.requires and db.usuario.last_name.requires,\n            label=\'apellido\'\n            ),\n\n        Field(\'sexo\',\n            type=\'string\',\n            default=estudiante.sexo,\n            requires=db.estudiante.sexo.requires,\n            label=\'sexo\'\n            ),\n        Field(\'fecha_nacimiento\',\n            type=\'date\',\n            default=estudiante.fecha_nacimiento,\n            requires=db.estudiante.fecha_nacimiento.requires,\n            label=\'fecha_de_nacimiento\'\n            ),\n        Field(\'promedio\',\n            type=\'string\',\n            default= estudiante.promedio,\n            requires=db.estudiante.promedio.requires,\n            label=\'promedio\'\n            ),\n        Field(\'nombre_liceo\',\n            type=\'string\',\n            default="            "+estudiante.nombre_liceo,\n            requires=db.estudiante.nombre_liceo.requires,\n            label=\'nombre_liceo\'\n            ),\n        Field(\'email\',\n            type=\'string\',\n            default=usuario.email,\n            requires=db.usuario.email.requires,\n            label=\'email\',\n            ),\n        Field(\'telefono_habitacion\',\n            type=\'integer\',\n            default=estudiante.telefono_habitacion,\n            requires=db.estudiante.telefono_habitacion.requires,\n            label=\'telefono_habitacion\',\n            ),\n        Field(\'direccion\',\n            type=\'string\',\n            default= estudiante.direccion,\n            requires=db.estudiante.direccion.requires,\n            label=\'direccion\'),\n        readonly = True\n        )\n\n    if formEstudiante.process(session=None, formname=\'perfil del Estudiante\', keepvalues=True).accepted:\n        response.flash = \'El formulario fue aceptado exitosamente.\'\n\n    elif formEstudiante.errors:\n        #error = True\n        response.flash = \'Hay un error en un campo.\'\n\n    ############################\n    ###fin de Consula de datos\n    ############################\n\n    return dict(formDatosBasicos = formDatosBasicos, formEstudiante = formEstudiante)\n\nresponse._vars=response._caller(admin)\n'
p7
sS'snapshot'
p8
(dp9
S'exception'
p10
(dp11
S'__hash__'
p12
S"<method-wrapper '__hash__' of exceptions.NameError object>"
p13
sS'__setattr__'
p14
S"<method-wrapper '__setattr__' of exceptions.NameError object>"
p15
sS'__reduce_ex__'
p16
S'<built-in method __reduce_ex__ of exceptions.NameError object>'
p17
sS'__getslice__'
p18
S"<method-wrapper '__getslice__' of exceptions.NameError object>"
p19
sS'__getitem__'
p20
S"<method-wrapper '__getitem__' of exceptions.NameError object>"
p21
sS'__setstate__'
p22
S'<built-in method __setstate__ of exceptions.NameError object>'
p23
sS'__reduce__'
p24
S'<built-in method __reduce__ of exceptions.NameError object>'
p25
sS'__str__'
p26
S"<method-wrapper '__str__' of exceptions.NameError object>"
p27
sS'__format__'
p28
S'<built-in method __format__ of exceptions.NameError object>'
p29
sS'__getattribute__'
p30
S"<method-wrapper '__getattribute__' of exceptions.NameError object>"
p31
sS'__class__'
p32
S"<type 'exceptions.NameError'>"
p33
sS'__unicode__'
p34
S'<built-in method __unicode__ of exceptions.NameError object>'
p35
sS'__delattr__'
p36
S"<method-wrapper '__delattr__' of exceptions.NameError object>"
p37
sS'__subclasshook__'
p38
S'<built-in method __subclasshook__ of type object>'
p39
sS'__repr__'
p40
S"<method-wrapper '__repr__' of exceptions.NameError object>"
p41
sS'args'
p42
S'("global name \'erroresCarga\' is not defined",)'
p43
sS'__dict__'
p44
S'{}'
p45
sS'__sizeof__'
p46
S'<built-in method __sizeof__ of exceptions.NameError object>'
p47
sS'__doc__'
p48
S"'Name not found globally.'"
p49
sS'__init__'
p50
S"<method-wrapper '__init__' of exceptions.NameError object>"
p51
sS'__new__'
p52
S'<built-in method __new__ of type object>'
p53
ssS'evalue'
p54
S"global name 'erroresCarga' is not defined"
p55
sS'request'
p56
cgluon.html
XML_unpickle
p57
(S's\x91i\x00\x00<div><table><tr><td style="font-weight:bold;vertical-align:top;">ajax</td><td style="vertical-align:top;">:</td><td><div>False</div></td></tr><tr><td style="font-weight:bold;vertical-align:top;">application</td><td style="vertical-align:top;">:</td><td><div>SisPIO</div></td></tr><tr><td style="font-weight:bold;vertical-align:top;">args</td><td style="vertical-align:top;">:</td><td><div><table></table></div></td></tr><tr><td style="font-weight:bold;vertical-align:top;">cid</td><td style="vertical-align:top;">:</td><td><div>None</div></td></tr><tr><td style="font-weight:bold;vertical-align:top;">client</td><td style="vertical-align:top;">:</td><td><div>127.0.0.1</div></td></tr><tr><td style="font-weight:bold;vertical-align:top;">controller</td><td style="vertical-align:top;">:</td><td><div>default</div></td></tr><tr><td style="font-weight:bold;vertical-align:top;">cookies</td><td style="vertical-align:top;">:</td><td><div><table><tr><td style="font-weight:bold;vertical-align:top;">csrftoken</td><td style="vertical-align:top;">:</td><td><div>N4366MX2EgVTLy1IdDWZEHUiZZBpU6SkbB3ObGLTLCZMylAmmC4nqvIN1hE4c7fb<table><tr><td style="font-weight:bold;vertical-align:top;">comment</td><td style="vertical-align:top;">:</td><td><div></div></td></tr><tr><td style="font-weight:bold;vertical-align:top;">domain</td><td style="vertical-align:top;">:</td><td><div></div></td></tr><tr><td style="font-weight:bold;vertical-align:top;">expires</td><td style="vertical-align:top;">:</td><td><div></div></td></tr><tr><td style="font-weight:bold;vertical-align:top;">httponly</td><td style="vertical-align:top;">:</td><td><div></div></td></tr><tr><td style="font-weight:bold;vertical-align:top;">max-age</td><td style="vertical-align:top;">:</td><td><div></div></td></tr><tr><td style="font-weight:bold;vertical-align:top;">path</td><td style="vertical-align:top;">:</td><td><div></div></td></tr><tr><td style="font-weight:bold;vertical-align:top;">secure</td><td style="vertical-align:top;">:</td><td><div></div></td></tr><tr><td style="font-weight:bold;vertical-align:top;">version</td><td style="vertical-align:top;">:</td><td><div></div></td></tr></table></div></td></tr><tr><td style="font-weight:bold;vertical-align:top;">session_id_admin</td><td style="vertical-align:top;">:</td><td><div>127.0.0.1-b650d74c-47f6-41f9-8c5b-0da2d2d4658b<table><tr><td style="font-weight:bold;vertical-align:top;">comment</td><td style="vertical-align:top;">:</td><td><div></div></td></tr><tr><td style="font-weight:bold;vertical-align:top;">domain</td><td style="vertical-align:top;">:</td><td><div></div></td></tr><tr><td style="font-weight:bold;vertical-align:top;">expires</td><td style="vertical-align:top;">:</td><td><div></div></td></tr><tr><td style="font-weight:bold;vertical-align:top;">httponly</td><td style="vertical-align:top;">:</td><td><div></div></td></tr><tr><td style="font-weight:bold;vertical-align:top;">max-age</td><td style="vertical-align:top;">:</td><td><div></div></td></tr><tr><td style="font-weight:bold;vertical-align:top;">path</td><td style="vertical-align:top;">:</td><td><div></div></td></tr><tr><td style="font-weight:bold;vertical-align:top;">secure</td><td style="vertical-align:top;">:</td><td><div></div></td></tr><tr><td style="font-weight:bold;vertical-align:top;">version</td><td style="vertical-align:top;">:</td><td><div></div></td></tr></table></div></td></tr><tr><td style="font-weight:bold;vertical-align:top;">session_id_sispio</td><td style="vertical-align:top;">:</td><td><div>127.0.0.1-e8837627-67e4-4509-b8e8-95407f2a3ac4<table><tr><td style="font-weight:bold;vertical-align:top;">comment</td><td style="vertical-align:top;">:</td><td><div></div></td></tr><tr><td style="font-weight:bold;vertical-align:top;">domain</td><td style="vertical-align:top;">:</td><td><div></div></td></tr><tr><td style="font-weight:bold;vertical-align:top;">expires</td><td style="vertical-align:top;">:</td><td><div></div></td></tr><tr><td style="font-weight:bold;vertical-align:top;">httponly</td><td style="vertical-align:top;">:</td><td><div></div></td></tr><tr><td style="font-weight:bold;vertical-align:top;">max-age</td><td style="vertical-align:top;">:</td><td><div></div></td></tr><tr><td style="font-weight:bold;vertical-align:top;">path</td><td style="vertical-align:top;">:</td><td><div></div></td></tr><tr><td style="font-weight:bold;vertical-align:top;">secure</td><td style="vertical-align:top;">:</td><td><div></div></td></tr><tr><td style="font-weight:bold;vertical-align:top;">version</td><td style="vertical-align:top;">:</td><td><div></div></td></tr></table></div></td></tr><tr><td style="font-weight:bold;vertical-align:top;">session_id_welcome</td><td style="vertical-align:top;">:</td><td><div>127.0.0.1-139d2073-a274-40b6-a36a-edd19626a4ed<table><tr><td style="font-weight:bold;vertical-align:top;">comment</td><td style="vertical-align:top;">:</td><td><div></div></td></tr><tr><td style="font-weight:bold;vertical-align:top;">domain</td><td style="vertical-align:top;">:</td><td><div></div></td></tr><tr><td style="font-weight:bold;vertical-align:top;">expires</td><td style="vertical-align:top;">:</td><td><div></div></td></tr><tr><td style="font-weight:bold;vertical-align:top;">httponly</td><td style="vertical-align:top;">:</td><td><div></div></td></tr><tr><td style="font-weight:bold;vertical-align:top;">max-age</td><td style="vertical-align:top;">:</td><td><div></div></td></tr><tr><td style="font-weight:bold;vertical-align:top;">path</td><td style="vertical-align:top;">:</td><td><div></div></td></tr><tr><td style="font-weight:bold;vertical-align:top;">secure</td><td style="vertical-align:top;">:</td><td><div></div></td></tr><tr><td style="font-weight:bold;vertical-align:top;">version</td><td style="vertical-align:top;">:</td><td><div></div></td></tr></table></div></td></tr><tr><td style="font-weight:bold;vertical-align:top;">sessionid</td><td style="vertical-align:top;">:</td><td><div>txtvz6yyhobygw0ileton9dqzjy2t3ma<table><tr><td style="font-weight:bold;vertical-align:top;">comment</td><td style="vertical-align:top;">:</td><td><div></div></td></tr><tr><td style="font-weight:bold;vertical-align:top;">domain</td><td style="vertical-align:top;">:</td><td><div></div></td></tr><tr><td style="font-weight:bold;vertical-align:top;">expires</td><td style="vertical-align:top;">:</td><td><div></div></td></tr><tr><td style="font-weight:bold;vertical-align:top;">httponly</td><td style="vertical-align:top;">:</td><td><div></div></td></tr><tr><td style="font-weight:bold;vertical-align:top;">max-age</td><td style="vertical-align:top;">:</td><td><div></div></td></tr><tr><td style="font-weight:bold;vertical-align:top;">path</td><td style="vertical-align:top;">:</td><td><div></div></td></tr><tr><td style="font-weight:bold;vertical-align:top;">secure</td><td style="vertical-align:top;">:</td><td><div></div></td></tr><tr><td style="font-weight:bold;vertical-align:top;">version</td><td style="vertical-align:top;">:</td><td><div></div></td></tr></table></div></td></tr></table></div></td></tr><tr><td style="font-weight:bold;vertical-align:top;">env</td><td style="vertical-align:top;">:</td><td><div><table><tr><td style="font-weight:bold;vertical-align:top;">HTTP_ACCEPT</td><td style="vertical-align:top;">:</td><td><div>text/html,application/xhtml+xml,application/xml;q=0.9,*/*;q=0.8</div></td></tr><tr><td style="font-weight:bold;vertical-align:top;">HTTP_ACCEPT_ENCODING</td><td style="vertical-align:top;">:</td><td><div>gzip, deflate</div></td></tr><tr><td style="font-weight:bold;vertical-align:top;">HTTP_ACCEPT_LANGUAGE</td><td style="vertical-align:top;">:</td><td><div>en-US,en;q=0.5</div></td></tr><tr><td style="font-weight:bold;vertical-align:top;">HTTP_CACHE_CONTROL</td><td style="vertical-align:top;">:</td><td><div>max-age=0</div></td></tr><tr><td style="font-weight:bold;vertical-align:top;">HTTP_CONNECTION</td><td style="vertical-align:top;">:</td><td><div>keep-alive</div></td></tr><tr><td style="font-weight:bold;vertical-align:top;">HTTP_COOKIE</td><td style="vertical-align:top;">:</td><td><div>csrftoken=N4366MX2EgVTLy1IdDWZEHUiZZBpU6SkbB3ObGLTLCZMylAmmC4nqvIN1hE4c7fb; sessionid=txtvz6yyhobygw0ileton9dqzjy2t3ma; session_id_welcome=127.0.0.1-139d2073-a274-40b6-a36a-edd19626a4ed; session_id_admin=127.0.0.1-b650d74c-47f6-41f9-8c5b-0da2d2d4658b; session_id_sispio=127.0.0.1-e8837627-67e4-4509-b8e8-95407f2a3ac4</div></td></tr><tr><td style="font-weight:bold;vertical-align:top;">HTTP_HOST</td><td style="vertical-align:top;">:</td><td><div>127.0.0.1:8000</div></td></tr><tr><td style="font-weight:bold;vertical-align:top;">HTTP_REFERER</td><td style="vertical-align:top;">:</td><td><div>http://127.0.0.1:8000/SisPIO/default/index</div></td></tr><tr><td style="font-weight:bold;vertical-align:top;">HTTP_UPGRADE_INSECURE_REQUESTS</td><td style="vertical-align:top;">:</td><td><div>1</div></td></tr><tr><td style="font-weight:bold;vertical-align:top;">HTTP_USER_AGENT</td><td style="vertical-align:top;">:</td><td><div>Mozilla/5.0 (Windows NT 10.0; Win64; x64; rv:56.0) Gecko/20100101 Firefox/56.0</div></td></tr><tr><td style="font-weight:bold;vertical-align:top;">PATH_INFO</td><td style="vertical-align:top;">:</td><td><div>/SisPIO/default/admin</div></td></tr><tr><td style="font-weight:bold;vertical-align:top;">QUERY_STRING</td><td style="vertical-align:top;">:</td><td><div></div></td></tr><tr><td style="font-weight:bold;vertical-align:top;">REMOTE_ADDR</td><td style="vertical-align:top;">:</td><td><div>127.0.0.1</div></td></tr><tr><td style="font-weight:bold;vertical-align:top;">REMOTE_PORT</td><td style="vertical-align:top;">:</td><td><div>57992</div></td></tr><tr><td style="font-weight:bold;vertical-align:top;">REQUEST_METHOD</td><td style="vertical-align:top;">:</td><td><div>GET</div></td></tr><tr><td style="font-weight:bold;vertical-align:top;">SCRIPT_NAME</td><td style="vertical-align:top;">:</td><td><div></div></td></tr><tr><td style="font-weight:bold;vertical-align:top;">SERVER_NAME</td><td style="vertical-align:top;">:</td><td><div>DESKTOP-FLGPCSQ</div></td></tr><tr><td style="font-weight:bold;vertical-align:top;">SERVER_PORT</td><td style="vertical-align:top;">:</td><td><div>8000</div></td></tr><tr><td style="font-weight:bold;vertical-align:top;">SERVER_PROTOCOL</td><td style="vertical-align:top;">:</td><td><div>HTTP/1.1</div></td></tr><tr><td style="font-weight:bold;vertical-align:top;">SERVER_SOFTWARE</td><td style="vertical-align:top;">:</td><td><div>Rocket 1.2.6</div></td></tr><tr><td style="font-weight:bold;vertical-align:top;">app_folders</td><td style="vertical-align:top;">:</td><td><div>set([&#x27;C:\\\\Users\\\\capf9\\\\Desktop\\\\University\\\\web2py_win\\\\web2py\\\\applications\\\\welcome\\\\&#x27;, &#x27;C:\\\\Users\\\\capf9\\\\Desktop\\\\University\\\\web2py_win\\\\web2py\\\\applications\\\\admin\\\\&#x27;, &#x27;C:\\\\Users\\\\capf9\\\\Desktop\\\\University\\\\web2py_win\\\\web2py\\\\applications\\\\SisPIO\\\\&#x27;])</div></td></tr><tr><td style="font-weight:bold;vertical-align:top;">applications_parent</td><td style="vertical-align:top;">:</td><td><div>C:\\Users\\capf9\\Desktop\\University\\web2py_win\\web2py</div></td></tr><tr><td style="font-weight:bold;vertical-align:top;">cmd_args</td><td style="vertical-align:top;">:</td><td><div><table></table></div></td></tr><tr><td style="font-weight:bold;vertical-align:top;">cmd_options</td><td style="vertical-align:top;">:</td><td><div>&lt;Values at 0x229fd78: {&#x27;verbose&#x27;: False, &#x27;ip&#x27;: &#x27;127.0.0.1&#x27;, &#x27;debuglevel&#x27;: 30, &#x27;with_scheduler&#x27;: False, &#x27;shutdown_timeout&#x27;: 5, &#x27;taskbar&#x27;: False, &#x27;with_coverage&#x27;: False, &#x27;pid_filename&#x27;: &#x27;httpserver.pid&#x27;, &#x27;maxthreads&#x27;: None, &#x27;softcron&#x27;: False, &#x27;server_name&#x27;: &#x27;DESKTOP-FLGPCSQ&#x27;, &#x27;bpython&#x27;: False, &#x27;nogui&#x27;: False, &#x27;port&#x27;: 8000, &#x27;print_errors&#x27;: False, &#x27;extcron&#x27;: False, &#x27;runcron&#x27;: False, &#x27;run_system_tests&#x27;: False, &#x27;test&#x27;: None, &#x27;folder&#x27;: &#x27;C:\\\\Users\\\\capf9\\\\Desktop\\\\University\\\\web2py_win\\\\web2py&#x27;, &#x27;config&#x27;: &#x27;&#x27;, &#x27;minthreads&#x27;: None, &#x27;shell&#x27;: None, &#x27;run&#x27;: &#x27;&#x27;, &#x27;log_filename&#x27;: &#x27;httpserver.log&#x27;, &#x27;profiler_dir&#x27;: None, &#x27;args&#x27;: [&#x27;&#x27;], &#x27;socket_timeout&#x27;: 5, &#x27;ssl_ca_certificate&#x27;: None, &#x27;scheduler&#x27;: None, &#x27;interfaces&#x27;: None, &#x27;ssl_private_key&#x27;: &#x27;&#x27;, &#x27;gae&#x27;: None, &#x27;password&#x27;: &#x27;******&#x27;, &#x27;request_queue_size&#x27;: 5, &#x27;ssl_certificate&#x27;: &#x27;&#x27;, &#x27;cronjob&#x27;: False, &#x27;numthreads&#x27;: None, &#x27;quiet&#x27;: False, &#x27;import_models&#x27;: False, &#x27;timeout&#x27;: 10, &#x27;plain&#x27;: False, &#x27;nobanner&#x27;: False}&gt;</div></td></tr><tr><td style="font-weight:bold;vertical-align:top;">db_sessions</td><td style="vertical-align:top;">:</td><td><div>set([])</div></td></tr><tr><td style="font-weight:bold;vertical-align:top;">debugging</td><td style="vertical-align:top;">:</td><td><div>False</div></td></tr><tr><td style="font-weight:bold;vertical-align:top;">gluon_parent</td><td style="vertical-align:top;">:</td><td><div>C:\\Users\\capf9\\Desktop\\University\\web2py_win\\web2py</div></td></tr><tr><td style="font-weight:bold;vertical-align:top;">http_accept</td><td style="vertical-align:top;">:</td><td><div>text/html,application/xhtml+xml,application/xml;q=0.9,*/*;q=0.8</div></td></tr><tr><td style="font-weight:bold;vertical-align:top;">http_accept_encoding</td><td style="vertical-align:top;">:</td><td><div>gzip, deflate</div></td></tr><tr><td style="font-weight:bold;vertical-align:top;">http_accept_language</td><td style="vertical-align:top;">:</td><td><div>en-US,en;q=0.5</div></td></tr><tr><td style="font-weight:bold;vertical-align:top;">http_cache_control</td><td style="vertical-align:top;">:</td><td><div>max-age=0</div></td></tr><tr><td style="font-weight:bold;vertical-align:top;">http_connection</td><td style="vertical-align:top;">:</td><td><div>keep-alive</div></td></tr><tr><td style="font-weight:bold;vertical-align:top;">http_cookie</td><td style="vertical-align:top;">:</td><td><div>csrftoken=N4366MX2EgVTLy1IdDWZEHUiZZBpU6SkbB3ObGLTLCZMylAmmC4nqvIN1hE4c7fb; sessionid=txtvz6yyhobygw0ileton9dqzjy2t3ma; session_id_welcome=127.0.0.1-139d2073-a274-40b6-a36a-edd19626a4ed; session_id_admin=127.0.0.1-b650d74c-47f6-41f9-8c5b-0da2d2d4658b; session_id_sispio=127.0.0.1-e8837627-67e4-4509-b8e8-95407f2a3ac4</div></td></tr><tr><td style="font-weight:bold;vertical-align:top;">http_host</td><td style="vertical-align:top;">:</td><td><div>127.0.0.1:8000</div></td></tr><tr><td style="font-weight:bold;vertical-align:top;">http_referer</td><td style="vertical-align:top;">:</td><td><div>http://127.0.0.1:8000/SisPIO/default/index</div></td></tr><tr><td style="font-weight:bold;vertical-align:top;">http_upgrade_insecure_requests</td><td style="vertical-align:top;">:</td><td><div>1</div></td></tr><tr><td style="font-weight:bold;vertical-align:top;">http_user_agent</td><td style="vertical-align:top;">:</td><td><div>Mozilla/5.0 (Windows NT 10.0; Win64; x64; rv:56.0) Gecko/20100101 Firefox/56.0</div></td></tr><tr><td style="font-weight:bold;vertical-align:top;">is_jython</td><td style="vertical-align:top;">:</td><td><div>False</div></td></tr><tr><td style="font-weight:bold;vertical-align:top;">is_pypy</td><td style="vertical-align:top;">:</td><td><div>False</div></td></tr><tr><td style="font-weight:bold;vertical-align:top;">is_source</td><td style="vertical-align:top;">:</td><td><div>False</div></td></tr><tr><td style="font-weight:bold;vertical-align:top;">local_hosts</td><td style="vertical-align:top;">:</td><td><div><table><tr><td><div>192.168.1.10</div></td></tr><tr><td><div>::ffff:127.0.0.1</div></td></tr><tr><td><div>::1</div></td></tr><tr><td><div>fe80::48d:2811:41b0:34a4%11</div></td></tr><tr><td><div>127.0.0.1</div></td></tr><tr><td><div>2001:0:9d38:6abd:48d:2811:41b0:34a4</div></td></tr><tr><td><div>DESKTOP-FLGPCSQ</div></td></tr><tr><td><div>fe80::31f0:99b4:d6f4:33e6%9</div></td></tr></table></div></td></tr><tr><td style="font-weight:bold;vertical-align:top;">path_info</td><td style="vertical-align:top;">:</td><td><div>/SisPIO/default/admin</div></td></tr><tr><td style="font-weight:bold;vertical-align:top;">query_string</td><td style="vertical-align:top;">:</td><td><div></div></td></tr><tr><td style="font-weight:bold;vertical-align:top;">remote_addr</td><td style="vertical-align:top;">:</td><td><div>127.0.0.1</div></td></tr><tr><td style="font-weight:bold;vertical-align:top;">remote_port</td><td style="vertical-align:top;">:</td><td><div>57992</div></td></tr><tr><td style="font-weight:bold;vertical-align:top;">request_method</td><td style="vertical-align:top;">:</td><td><div>GET</div></td></tr><tr><td style="font-weight:bold;vertical-align:top;">request_uri</td><td style="vertical-align:top;">:</td><td><div>/SisPIO/default/admin</div></td></tr><tr><td style="font-weight:bold;vertical-align:top;">script_name</td><td style="vertical-align:top;">:</td><td><div></div></td></tr><tr><td style="font-weight:bold;vertical-align:top;">server_name</td><td style="vertical-align:top;">:</td><td><div>DESKTOP-FLGPCSQ</div></td></tr><tr><td style="font-weight:bold;vertical-align:top;">server_port</td><td style="vertical-align:top;">:</td><td><div>8000</div></td></tr><tr><td style="font-weight:bold;vertical-align:top;">server_protocol</td><td style="vertical-align:top;">:</td><td><div>HTTP/1.1</div></td></tr><tr><td style="font-weight:bold;vertical-align:top;">server_software</td><td style="vertical-align:top;">:</td><td><div>Rocket 1.2.6</div></td></tr><tr><td style="font-weight:bold;vertical-align:top;">web2py_path</td><td style="vertical-align:top;">:</td><td><div>C:\\Users\\capf9\\Desktop\\University\\web2py_win\\web2py</div></td></tr><tr><td style="font-weight:bold;vertical-align:top;">web2py_version</td><td style="vertical-align:top;">:</td><td><div>2.14.6-stable+timestamp.2016.05.10.00.21.47</div></td></tr><tr><td style="font-weight:bold;vertical-align:top;">wsgi.errors</td><td style="vertical-align:top;">:</td><td><div>&lt;open file &#x27;&lt;stderr&gt;&#x27;, mode &#x27;w&#x27; at 0x01E7D0D0&gt;</div></td></tr><tr><td style="font-weight:bold;vertical-align:top;">wsgi.file_wrapper</td><td style="vertical-align:top;">:</td><td><div>&lt;class wsgiref.util.FileWrapper at 0x03919110&gt;</div></td></tr><tr><td style="font-weight:bold;vertical-align:top;">wsgi.input</td><td style="vertical-align:top;">:</td><td><div>&lt;socket._fileobject object at 0x03C8B4B0&gt;</div></td></tr><tr><td style="font-weight:bold;vertical-align:top;">wsgi.multiprocess</td><td style="vertical-align:top;">:</td><td><div>False</div></td></tr><tr><td style="font-weight:bold;vertical-align:top;">wsgi.multithread</td><td style="vertical-align:top;">:</td><td><div>True</div></td></tr><tr><td style="font-weight:bold;vertical-align:top;">wsgi.run_once</td><td style="vertical-align:top;">:</td><td><div>False</div></td></tr><tr><td style="font-weight:bold;vertical-align:top;">wsgi.url_scheme</td><td style="vertical-align:top;">:</td><td><div>http</div></td></tr><tr><td style="font-weight:bold;vertical-align:top;">wsgi.version</td><td style="vertical-align:top;">:</td><td><div><table><tr><td><div>1</div></td></tr><tr><td><div>0</div></td></tr></table></div></td></tr><tr><td style="font-weight:bold;vertical-align:top;">wsgi_errors</td><td style="vertical-align:top;">:</td><td><div>&lt;open file &#x27;&lt;stderr&gt;&#x27;, mode &#x27;w&#x27; at 0x01E7D0D0&gt;</div></td></tr><tr><td style="font-weight:bold;vertical-align:top;">wsgi_file_wrapper</td><td style="vertical-align:top;">:</td><td><div>&lt;class wsgiref.util.FileWrapper at 0x03919110&gt;</div></td></tr><tr><td style="font-weight:bold;vertical-align:top;">wsgi_input</td><td style="vertical-align:top;">:</td><td><div>&lt;socket._fileobject object at 0x03C8B4B0&gt;</div></td></tr><tr><td style="font-weight:bold;vertical-align:top;">wsgi_multiprocess</td><td style="vertical-align:top;">:</td><td><div>False</div></td></tr><tr><td style="font-weight:bold;vertical-align:top;">wsgi_multithread</td><td style="vertical-align:top;">:</td><td><div>True</div></td></tr><tr><td style="font-weight:bold;vertical-align:top;">wsgi_run_once</td><td style="vertical-align:top;">:</td><td><div>False</div></td></tr><tr><td style="font-weight:bold;vertical-align:top;">wsgi_url_scheme</td><td style="vertical-align:top;">:</td><td><div>http</div></td></tr><tr><td style="font-weight:bold;vertical-align:top;">wsgi_version</td><td style="vertical-align:top;">:</td><td><div><table><tr><td><div>1</div></td></tr><tr><td><div>0</div></td></tr></table></div></td></tr></table></div></td></tr><tr><td style="font-weight:bold;vertical-align:top;">extension</td><td style="vertical-align:top;">:</td><td><div>html</div></td></tr><tr><td style="font-weight:bold;vertical-align:top;">folder</td><td style="vertical-align:top;">:</td><td><div>C:\\Users\\capf9\\Desktop\\University\\web2py_win\\web2py\\applications\\SisPIO\\</div></td></tr><tr><td style="font-weight:bold;vertical-align:top;">function</td><td style="vertical-align:top;">:</td><td><div>admin</div></td></tr><tr><td style="font-weight:bold;vertical-align:top;">global_settings</td><td style="vertical-align:top;">:</td><td><div><table><tr><td style="font-weight:bold;vertical-align:top;">app_folders</td><td style="vertical-align:top;">:</td><td><div>set([&#x27;C:\\\\Users\\\\capf9\\\\Desktop\\\\University\\\\web2py_win\\\\web2py\\\\applications\\\\welcome\\\\&#x27;, &#x27;C:\\\\Users\\\\capf9\\\\Desktop\\\\University\\\\web2py_win\\\\web2py\\\\applications\\\\admin\\\\&#x27;, &#x27;C:\\\\Users\\\\capf9\\\\Desktop\\\\University\\\\web2py_win\\\\web2py\\\\applications\\\\SisPIO\\\\&#x27;])</div></td></tr><tr><td style="font-weight:bold;vertical-align:top;">applications_parent</td><td style="vertical-align:top;">:</td><td><div>C:\\Users\\capf9\\Desktop\\University\\web2py_win\\web2py</div></td></tr><tr><td style="font-weight:bold;vertical-align:top;">cmd_args</td><td style="vertical-align:top;">:</td><td><div><table></table></div></td></tr><tr><td style="font-weight:bold;vertical-align:top;">cmd_options</td><td style="vertical-align:top;">:</td><td><div>&lt;Values at 0x229fd78: {&#x27;verbose&#x27;: False, &#x27;ip&#x27;: &#x27;127.0.0.1&#x27;, &#x27;debuglevel&#x27;: 30, &#x27;with_scheduler&#x27;: False, &#x27;shutdown_timeout&#x27;: 5, &#x27;taskbar&#x27;: False, &#x27;with_coverage&#x27;: False, &#x27;pid_filename&#x27;: &#x27;httpserver.pid&#x27;, &#x27;maxthreads&#x27;: None, &#x27;softcron&#x27;: False, &#x27;server_name&#x27;: &#x27;DESKTOP-FLGPCSQ&#x27;, &#x27;bpython&#x27;: False, &#x27;nogui&#x27;: False, &#x27;port&#x27;: 8000, &#x27;print_errors&#x27;: False, &#x27;extcron&#x27;: False, &#x27;runcron&#x27;: False, &#x27;run_system_tests&#x27;: False, &#x27;test&#x27;: None, &#x27;folder&#x27;: &#x27;C:\\\\Users\\\\capf9\\\\Desktop\\\\University\\\\web2py_win\\\\web2py&#x27;, &#x27;config&#x27;: &#x27;&#x27;, &#x27;minthreads&#x27;: None, &#x27;shell&#x27;: None, &#x27;run&#x27;: &#x27;&#x27;, &#x27;log_filename&#x27;: &#x27;httpserver.log&#x27;, &#x27;profiler_dir&#x27;: None, &#x27;args&#x27;: [&#x27;&#x27;], &#x27;socket_timeout&#x27;: 5, &#x27;ssl_ca_certificate&#x27;: None, &#x27;scheduler&#x27;: None, &#x27;interfaces&#x27;: None, &#x27;ssl_private_key&#x27;: &#x27;&#x27;, &#x27;gae&#x27;: None, &#x27;password&#x27;: &#x27;******&#x27;, &#x27;request_queue_size&#x27;: 5, &#x27;ssl_certificate&#x27;: &#x27;&#x27;, &#x27;cronjob&#x27;: False, &#x27;numthreads&#x27;: None, &#x27;quiet&#x27;: False, &#x27;import_models&#x27;: False, &#x27;timeout&#x27;: 10, &#x27;plain&#x27;: False, &#x27;nobanner&#x27;: False}&gt;</div></td></tr><tr><td style="font-weight:bold;vertical-align:top;">db_sessions</td><td style="vertical-align:top;">:</td><td><div>set([])</div></td></tr><tr><td style="font-weight:bold;vertical-align:top;">debugging</td><td style="vertical-align:top;">:</td><td><div>False</div></td></tr><tr><td style="font-weight:bold;vertical-align:top;">gluon_parent</td><td style="vertical-align:top;">:</td><td><div>C:\\Users\\capf9\\Desktop\\University\\web2py_win\\web2py</div></td></tr><tr><td style="font-weight:bold;vertical-align:top;">is_jython</td><td style="vertical-align:top;">:</td><td><div>False</div></td></tr><tr><td style="font-weight:bold;vertical-align:top;">is_pypy</td><td style="vertical-align:top;">:</td><td><div>False</div></td></tr><tr><td style="font-weight:bold;vertical-align:top;">is_source</td><td style="vertical-align:top;">:</td><td><div>False</div></td></tr><tr><td style="font-weight:bold;vertical-align:top;">local_hosts</td><td style="vertical-align:top;">:</td><td><div><table><tr><td><div>192.168.1.10</div></td></tr><tr><td><div>::ffff:127.0.0.1</div></td></tr><tr><td><div>::1</div></td></tr><tr><td><div>fe80::48d:2811:41b0:34a4%11</div></td></tr><tr><td><div>127.0.0.1</div></td></tr><tr><td><div>2001:0:9d38:6abd:48d:2811:41b0:34a4</div></td></tr><tr><td><div>DESKTOP-FLGPCSQ</div></td></tr><tr><td><div>fe80::31f0:99b4:d6f4:33e6%9</div></td></tr></table></div></td></tr><tr><td style="font-weight:bold;vertical-align:top;">web2py_version</td><td style="vertical-align:top;">:</td><td><div>2.14.6-stable+timestamp.2016.05.10.00.21.47</div></td></tr></table></div></td></tr><tr><td style="font-weight:bold;vertical-align:top;">is_https</td><td style="vertical-align:top;">:</td><td><div>False</div></td></tr><tr><td style="font-weight:bold;vertical-align:top;">is_local</td><td style="vertical-align:top;">:</td><td><div>True</div></td></tr><tr><td style="font-weight:bold;vertical-align:top;">is_restful</td><td style="vertical-align:top;">:</td><td><div>False</div></td></tr><tr><td style="font-weight:bold;vertical-align:top;">is_scheduler</td><td style="vertical-align:top;">:</td><td><div>False</div></td></tr><tr><td style="font-weight:bold;vertical-align:top;">is_shell</td><td style="vertical-align:top;">:</td><td><div>False</div></td></tr><tr><td style="font-weight:bold;vertical-align:top;">now</td><td style="vertical-align:top;">:</td><td><div>datetime.datetime(2017, 11, 4, 21, 38, 35, 267000)</div></td></tr><tr><td style="font-weight:bold;vertical-align:top;">raw_args</td><td style="vertical-align:top;">:</td><td><div></div></td></tr><tr><td style="font-weight:bold;vertical-align:top;">raw_extension</td><td style="vertical-align:top;">:</td><td><div>None</div></td></tr><tr><td style="font-weight:bold;vertical-align:top;">url</td><td style="vertical-align:top;">:</td><td><div>/SisPIO/default/admin</div></td></tr><tr><td style="font-weight:bold;vertical-align:top;">utcnow</td><td style="vertical-align:top;">:</td><td><div>datetime.datetime(2017, 11, 5, 1, 38, 35, 267000)</div></td></tr><tr><td style="font-weight:bold;vertical-align:top;">wsgi</td><td style="vertical-align:top;">:</td><td><div>&lt;gluon.main.LazyWSGI object at 0x0400FBD0&gt;</div></td></tr></table></div>'
tRp58
sS'frames'
p59
(lp60
(dp61
S'file'
p62
S'C:\\Users\\capf9\\Desktop\\University\\web2py_win\\web2py\\gluon\\restricted.py'
p63
sS'dump'
p64
(dp65
S'environment'
p66
S"{'A': <class 'gluon.html.A'>, 'ANY_OF': <class 'gluon.validators.ANY_OF'>, 'ASSIGNJS': <function ASSIGNJS>, 'AppConfig': <function AppConfig>, 'Auth': <class 'gluon.tools.Auth'>, 'B': <class 'gluon.html.B'>, 'BEAUTIFY': <class 'gluon.html.BEAUTIFY'>, 'BODY': <class 'gluon.html.BODY'>, 'BR': <class 'gluon.html.BR'>, 'BUTTON': <class 'gluon.html.BUTTON'>, ...}"
p67
sS'ccode'
p68
S'<code object <module> at 04191380, file "C:\\User...ications\\SisPIO\\controllers/default.py", line 10>'
p69
ssS'lnum'
p70
I227
sS'lines'
p71
(dp72
I224
S'            ccode = code'
p73
sI225
S'        else:'
p74
sI226
S'            ccode = compile2(code, layer)'
p75
sI227
S'        exec ccode in environment'
p76
sI228
S'    except HTTP:'
p77
sI229
S'        raise'
p78
sI230
S'    except RestrictedError:'
p79
sI231
S'        # do not encapsulate (obfuscate) the original RestrictedError'
p80
sI222
S'    try:'
p81
sI223
S'        if isinstance(code, types.CodeType):'
p82
ssS'call'
p83
S"(code='# -*- coding: utf-8 -*-\\n# this file is released ...udiante)\\n\\nresponse._vars=response._caller(admin)\\n', environment={'A': <class 'gluon.html.A'>, 'ANY_OF': <class 'gluon.validators.ANY_OF'>, 'ASSIGNJS': <function ASSIGNJS>, 'AppConfig': <function AppConfig>, 'Auth': <class 'gluon.tools.Auth'>, 'B': <class 'gluon.html.B'>, 'BEAUTIFY': <class 'gluon.html.BEAUTIFY'>, 'BODY': <class 'gluon.html.BODY'>, 'BR': <class 'gluon.html.BR'>, 'BUTTON': <class 'gluon.html.BUTTON'>, ...}, layer=r'C:\\Users\\capf9\\Desktop\\University\\web2py_win\\web2py\\applications\\SisPIO\\controllers/default.py')"
p84
sS'func'
p85
S'restricted'
p86
sa(dp87
g62
S'C:\\Users\\capf9\\Desktop\\University\\web2py_win\\web2py\\applications\\SisPIO\\controllers\\default.py'
p88
sg64
(dp89
sg70
I1035
sg71
(dp90
I1024
S''
sI1025
S'    elif formEstudiante.errors:'
p91
sI1026
S'        #error = True'
p92
sI1027
S"        response.flash = 'Hay un error en un campo.'"
p93
sI1028
S''
sI1029
S'    ############################'
p94
sI1030
S'    ###fin de Consula de datos'
p95
sI1031
S'    ############################'
p96
sI1032
S''
sI1033
S'    return dict(formDatosBasicos = formDatosBasicos, formEstudiante = formEstudiante)'
p97
ssg83
S'()'
p98
sg85
S'<module>'
p99
sa(dp100
g62
S'C:\\Users\\capf9\\Desktop\\University\\web2py_win\\web2py\\gluon\\globals.py'
p101
sg64
(dp102
S'self'
p103
S'undefined'
p104
sS'f'
S'<function admin>'
p105
ssg70
I417
sg71
(dp106
I416
S'        self._vars = None'
p107
sI417
S'        self._caller = lambda f: f()'
p108
sI418
S'        self._view_environment = None'
p109
sI419
S'        self._custom_commit = None'
p110
sI420
S'        self._custom_rollback = None'
p111
sI421
S"        self.generic_patterns = ['*']"
p112
sI412
S"        self.flash = ''            # used by the default view layout"
p113
sI413
S'        self.meta = Storage()      # used by web2py_ajax.html'
p114
sI414
S'        self.menu = []             # used by the default view layout'
p115
sI415
S'        self.files = []            # used by web2py_ajax.html'
p116
ssg83
S'(f=<function admin>)'
p117
sg85
S'<lambda>'
p118
sa(dp119
g62
S'C:\\Users\\capf9\\Desktop\\University\\web2py_win\\web2py\\gluon\\tools.py'
p120
sg64
(dp121
S'action'
p122
S'<function admin>'
p123
sS'a'
S'()'
p124
sS'b'
g45
ssg70
I4241
sg71
(dp125
I4236
S'                    flag = condition'
p126
sI4237
S'                if not flag:'
p127
sI4238
S'                    current.session.flash = self.messages.access_denied'
p128
sI4239
S'                    return call_or_redirect('
p129
sI4240
S'                        self.settings.on_failed_authorization)'
p130
sI4241
S'                return action(*a, **b)'
p131
sI4242
S'            f.__doc__ = action.__doc__'
p132
sI4243
S'            f.__name__ = action.__name__'
p133
sI4244
S'            f.__dict__.update(action.__dict__)'
p134
sI4245
S'            return f'
p135
ssg83
S'(*a=(), **b={})'
p136
sg85
S'f'
sa(dp137
g62
S'C:\\Users\\capf9\\Desktop\\University\\web2py_win\\web2py\\gluon\\tools.py'
p138
sg64
(dp139
S'action'
p140
S'<function admin>'
p141
sS'a'
S'()'
p142
sS'b'
g45
ssg70
I4241
sg71
(dp143
I4236
S'                    flag = condition'
p144
sI4237
S'                if not flag:'
p145
sI4238
S'                    current.session.flash = self.messages.access_denied'
p146
sI4239
S'                    return call_or_redirect('
p147
sI4240
S'                        self.settings.on_failed_authorization)'
p148
sI4241
S'                return action(*a, **b)'
p149
sI4242
S'            f.__doc__ = action.__doc__'
p150
sI4243
S'            f.__name__ = action.__name__'
p151
sI4244
S'            f.__dict__.update(action.__dict__)'
p152
sI4245
S'            return f'
p153
ssg83
S'(*a=(), **b={})'
p154
sg85
S'f'
sa(dp155
g62
S'C:\\Users\\capf9\\Desktop\\University\\web2py_win\\web2py\\applications\\SisPIO\\controllers\\default.py'
p156
sg64
(dp157
S'profesores'
p158
S'<Rows (0)>'
p159
sS'formularioModificar'
p160
S'None'
p161
sS'erroresCarga'
p162
g104
sS'liceos'
p163
S'<Rows (0)>'
p164
sS'cohortes'
p165
S'<Rows (1)>'
p166
sS'eliminando'
p167
g104
sS'modificando'
p168
S'None'
p169
sS'cargaExitosa'
p170
g104
sS'sedes'
p171
S'<Rows (4)>'
p172
sS'formAdministrador'
p173
S'<gluon.sqlhtml.SQLFORM object>'
p174
sS'consulta'
p175
S'None'
p176
sS'tipoUserEliminando'
p177
g104
sS'builtindict'
p178
S"<type 'dict'>"
p179
sS'formularioLiceoManual'
p180
S'<gluon.sqlhtml.SQLFORM object>'
p181
ssg70
I416
sg71
(dp182
I416
S'    return dict(formAdministrador=formAdministrador, erroresCarga=erroresCarga,'
p183
sI417
S'                cargaExitosa=cargaExitosa, eliminando=eliminando,'
p184
sI418
S'                tipoUserEliminando=tipoUserEliminando, modificando=modificando,'
p185
sI419
S'                formularioModificar = formularioModificar, liceos=liceos,'
p186
sI420
S'                sedes=sedes, profesores=profesores, cohortes=cohortes,'
p187
sI411
S''
sI412
S'    #####################'
p188
sI413
S'    # Fin eliminar liceo'
p189
sI414
S'    #####################'
p190
sI415
S''
ssg83
S'()'
p191
sg85
S'admin'
p192
sasS'pyver'
p193
S'Python 2.7.9: C:\\Users\\capf9\\Desktop\\University\\web2py_win\\web2py\\web2py.exe (prefix: )'
p194
sS'session'
p195
g57
(S'sp\t\x00\x00<div><table><tr><td style="font-weight:bold;vertical-align:top;">auth</td><td style="vertical-align:top;">:</td><td><div><table><tr><td style="font-weight:bold;vertical-align:top;">expiration</td><td style="vertical-align:top;">:</td><td><div>3600</div></td></tr><tr><td style="font-weight:bold;vertical-align:top;">hmac_key</td><td style="vertical-align:top;">:</td><td><div>363767a8-d155-4d8f-873b-2c6a4b954a6a</div></td></tr><tr><td style="font-weight:bold;vertical-align:top;">last_visit</td><td style="vertical-align:top;">:</td><td><div>datetime.datetime(2017, 11, 4, 21, 32, 42, 29000)</div></td></tr><tr><td style="font-weight:bold;vertical-align:top;">remember_me</td><td style="vertical-align:top;">:</td><td><div>False</div></td></tr><tr><td style="font-weight:bold;vertical-align:top;">user</td><td style="vertical-align:top;">:</td><td><div><table><tr><td style="font-weight:bold;vertical-align:top;">email</td><td style="vertical-align:top;">:</td><td><div>admin@usb.ve</div></td></tr><tr><td style="font-weight:bold;vertical-align:top;">first_name</td><td style="vertical-align:top;">:</td><td><div>SisPIO</div></td></tr><tr><td style="font-weight:bold;vertical-align:top;">id</td><td style="vertical-align:top;">:</td><td><div>1L</div></td></tr><tr><td style="font-weight:bold;vertical-align:top;">last_name</td><td style="vertical-align:top;">:</td><td><div>Admin</div></td></tr><tr><td style="font-weight:bold;vertical-align:top;">registration_id</td><td style="vertical-align:top;">:</td><td><div></div></td></tr><tr><td style="font-weight:bold;vertical-align:top;">registration_key</td><td style="vertical-align:top;">:</td><td><div></div></td></tr><tr><td style="font-weight:bold;vertical-align:top;">reset_password_key</td><td style="vertical-align:top;">:</td><td><div></div></td></tr><tr><td style="font-weight:bold;vertical-align:top;">username</td><td style="vertical-align:top;">:</td><td><div>admin</div></td></tr></table></div></td></tr><tr><td style="font-weight:bold;vertical-align:top;">user_groups</td><td style="vertical-align:top;">:</td><td><div><table><tr><td style="font-weight:bold;vertical-align:top;">5</td><td style="vertical-align:top;">:</td><td><div>Administrador</div></td></tr></table></div></td></tr></table></div></td></tr><tr><td style="font-weight:bold;vertical-align:top;">flash</td><td style="vertical-align:top;">:</td><td><div>None</div></td></tr></table></div>'
tRp196
sS'etype'
p197
S"<type 'exceptions.NameError'>"
p198
sS'date'
p199
S'Sat Nov 04 21:38:35 2017'
p200
sS'response'
p201
g57
(S's\xe6?\x00\x00<div><table><tr><td style="font-weight:bold;vertical-align:top;">body</td><td style="vertical-align:top;">:</td><td><div>&lt;cStringIO.StringO object at 0x03C6C800&gt;</div></td></tr><tr><td style="font-weight:bold;vertical-align:top;">cookies</td><td style="vertical-align:top;">:</td><td><div><table><tr><td style="font-weight:bold;vertical-align:top;">session_id_sispio</td><td style="vertical-align:top;">:</td><td><div>127.0.0.1-e8837627-67e4-4509-b8e8-95407f2a3ac4<table><tr><td style="font-weight:bold;vertical-align:top;">comment</td><td style="vertical-align:top;">:</td><td><div></div></td></tr><tr><td style="font-weight:bold;vertical-align:top;">domain</td><td style="vertical-align:top;">:</td><td><div></div></td></tr><tr><td style="font-weight:bold;vertical-align:top;">expires</td><td style="vertical-align:top;">:</td><td><div></div></td></tr><tr><td style="font-weight:bold;vertical-align:top;">httponly</td><td style="vertical-align:top;">:</td><td><div></div></td></tr><tr><td style="font-weight:bold;vertical-align:top;">max-age</td><td style="vertical-align:top;">:</td><td><div></div></td></tr><tr><td style="font-weight:bold;vertical-align:top;">path</td><td style="vertical-align:top;">:</td><td><div>/</div></td></tr><tr><td style="font-weight:bold;vertical-align:top;">secure</td><td style="vertical-align:top;">:</td><td><div></div></td></tr><tr><td style="font-weight:bold;vertical-align:top;">version</td><td style="vertical-align:top;">:</td><td><div></div></td></tr></table></div></td></tr></table></div></td></tr><tr><td style="font-weight:bold;vertical-align:top;">delimiters</td><td style="vertical-align:top;">:</td><td><div><table><tr><td><div>{{</div></td></tr><tr><td><div>}}</div></td></tr></table></div></td></tr><tr><td style="font-weight:bold;vertical-align:top;">files</td><td style="vertical-align:top;">:</td><td><div><table></table></div></td></tr><tr><td style="font-weight:bold;vertical-align:top;">flash</td><td style="vertical-align:top;">:</td><td><div></div></td></tr><tr><td style="font-weight:bold;vertical-align:top;">form_label_separator</td><td style="vertical-align:top;">:</td><td><div></div></td></tr><tr><td style="font-weight:bold;vertical-align:top;">formstyle</td><td style="vertical-align:top;">:</td><td><div>bootstrap3_inline</div></td></tr><tr><td style="font-weight:bold;vertical-align:top;">generic_patterns</td><td style="vertical-align:top;">:</td><td><div><table><tr><td><div>*</div></td></tr></table></div></td></tr><tr><td style="font-weight:bold;vertical-align:top;">google_analytics_id</td><td style="vertical-align:top;">:</td><td><div>None</div></td></tr><tr><td style="font-weight:bold;vertical-align:top;">headers</td><td style="vertical-align:top;">:</td><td><div><table><tr><td style="font-weight:bold;vertical-align:top;">X-Powered-By</td><td style="vertical-align:top;">:</td><td><div>web2py</div></td></tr></table></div></td></tr><tr><td style="font-weight:bold;vertical-align:top;">logo</td><td style="vertical-align:top;">:</td><td><div><a class="navbar-brand" href="http://www.web2py.com/" id="web2py-logo"><b>web<span>2</span>py</b>&trade;&nbsp;</a></div></td></tr><tr><td style="font-weight:bold;vertical-align:top;">menu</td><td style="vertical-align:top;">:</td><td><div><table><tr><td><div><table><tr><td><div>Inicio</div></td></tr><tr><td><div>False</div></td></tr><tr><td><div>/SisPIO/default/index</div></td></tr><tr><td><div><table></table></div></td></tr></table></div></td></tr><tr><td><div><table><tr><td><div>Mis Sitios</div></td></tr><tr><td><div>False</div></td></tr><tr><td><div>/admin/default/site</div></td></tr></table></div></td></tr><tr><td><div><table><tr><td><div>Esta Aplicaci\xc3\xb3n</div></td></tr><tr><td><div>False</div></td></tr><tr><td><div>#</div></td></tr><tr><td><div><table><tr><td><div><table><tr><td><div>Design</div></td></tr><tr><td><div>False</div></td></tr><tr><td><div>/admin/default/design/SisPIO</div></td></tr></table></div></td></tr><tr><td><div><li class="divider"></li></div></td></tr><tr><td><div><table><tr><td><div>Controlador</div></td></tr><tr><td><div>False</div></td></tr><tr><td><div>/admin/default/edit/SisPIO/controllers/default.py</div></td></tr></table></div></td></tr><tr><td><div><table><tr><td><div>Vista</div></td></tr><tr><td><div>False</div></td></tr><tr><td><div>/admin/default/edit/SisPIO/views/default/admin.html</div></td></tr></table></div></td></tr><tr><td><div><table><tr><td><div>Modelo BDD</div></td></tr><tr><td><div>False</div></td></tr><tr><td><div>/admin/default/edit/SisPIO/models/db.py</div></td></tr></table></div></td></tr><tr><td><div><table><tr><td><div>Modelo "menu"</div></td></tr><tr><td><div>False</div></td></tr><tr><td><div>/admin/default/edit/SisPIO/models/menu.py</div></td></tr></table></div></td></tr><tr><td><div><table><tr><td><div>Config.ini</div></td></tr><tr><td><div>False</div></td></tr><tr><td><div>/admin/default/edit/SisPIO/private/appconfig.ini</div></td></tr></table></div></td></tr><tr><td><div><table><tr><td><div>Dise\xc3\xb1o de p\xc3\xa1gina</div></td></tr><tr><td><div>False</div></td></tr><tr><td><div>/admin/default/edit/SisPIO/views/layout.html</div></td></tr></table></div></td></tr><tr><td><div><table><tr><td><div>Hoja de estilo</div></td></tr><tr><td><div>False</div></td></tr><tr><td><div>/admin/default/edit/SisPIO/static/css/web2py-bootstrap3.css</div></td></tr></table></div></td></tr><tr><td><div><table><tr><td><div>Base de datos</div></td></tr><tr><td><div>False</div></td></tr><tr><td><div>/SisPIO/appadmin/index</div></td></tr></table></div></td></tr><tr><td><div><table><tr><td><div>Errores</div></td></tr><tr><td><div>False</div></td></tr><tr><td><div>/admin/default/errors/SisPIO</div></td></tr></table></div></td></tr><tr><td><div><table><tr><td><div>Acerca de</div></td></tr><tr><td><div>False</div></td></tr><tr><td><div>/admin/default/about/SisPIO</div></td></tr></table></div></td></tr></table></div></td></tr></table></div></td></tr><tr><td><div><table><tr><td><div>web2py.com</div></td></tr><tr><td><div>False</div></td></tr><tr><td><div>#</div></td></tr><tr><td><div><table><tr><td><div><table><tr><td><div>Descargas</div></td></tr><tr><td><div>False</div></td></tr><tr><td><div>http://www.web2py.com/examples/default/download</div></td></tr></table></div></td></tr><tr><td><div><table><tr><td><div>Soporte</div></td></tr><tr><td><div>False</div></td></tr><tr><td><div>http://www.web2py.com/examples/default/support</div></td></tr></table></div></td></tr><tr><td><div><table><tr><td><div>Demostraci\xc3\xb3n</div></td></tr><tr><td><div>False</div></td></tr><tr><td><div>http://web2py.com/demo_admin</div></td></tr></table></div></td></tr><tr><td><div><table><tr><td><div>Ejemplos R\xc3\xa1pidos</div></td></tr><tr><td><div>False</div></td></tr><tr><td><div>http://web2py.com/examples/default/examples</div></td></tr></table></div></td></tr><tr><td><div><table><tr><td><div>FAQ</div></td></tr><tr><td><div>False</div></td></tr><tr><td><div>http://web2py.com/AlterEgo</div></td></tr></table></div></td></tr><tr><td><div><table><tr><td><div>V\xc3\xaddeos</div></td></tr><tr><td><div>False</div></td></tr><tr><td><div>http://www.web2py.com/examples/default/videos/</div></td></tr></table></div></td></tr><tr><td><div><table><tr><td><div>Aplicaciones Libres</div></td></tr><tr><td><div>False</div></td></tr><tr><td><div>http://web2py.com/appliances</div></td></tr></table></div></td></tr><tr><td><div><table><tr><td><div>Plugins</div></td></tr><tr><td><div>False</div></td></tr><tr><td><div>http://web2py.com/plugins</div></td></tr></table></div></td></tr><tr><td><div><table><tr><td><div>Recetas</div></td></tr><tr><td><div>False</div></td></tr><tr><td><div>http://web2pyslices.com/</div></td></tr></table></div></td></tr></table></div></td></tr></table></div></td></tr><tr><td><div><table><tr><td><div>Documentaci\xc3\xb3n</div></td></tr><tr><td><div>False</div></td></tr><tr><td><div>#</div></td></tr><tr><td><div><table><tr><td><div><table><tr><td><div>Online book</div></td></tr><tr><td><div>False</div></td></tr><tr><td><div>http://www.web2py.com/book</div></td></tr></table></div></td></tr><tr><td><div><li class="divider"></li></div></td></tr><tr><td><div><table><tr><td><div>Prefacio</div></td></tr><tr><td><div>False</div></td></tr><tr><td><div>http://www.web2py.com/book/default/chapter/00</div></td></tr></table></div></td></tr><tr><td><div><table><tr><td><div>Introducci\xc3\xb3n</div></td></tr><tr><td><div>False</div></td></tr><tr><td><div>http://www.web2py.com/book/default/chapter/01</div></td></tr></table></div></td></tr><tr><td><div><table><tr><td><div>Python</div></td></tr><tr><td><div>False</div></td></tr><tr><td><div>http://www.web2py.com/book/default/chapter/02</div></td></tr></table></div></td></tr><tr><td><div><table><tr><td><div>Resumen</div></td></tr><tr><td><div>False</div></td></tr><tr><td><div>http://www.web2py.com/book/default/chapter/03</div></td></tr></table></div></td></tr><tr><td><div><table><tr><td><div>El N\xc3\xbacleo</div></td></tr><tr><td><div>False</div></td></tr><tr><td><div>http://www.web2py.com/book/default/chapter/04</div></td></tr></table></div></td></tr><tr><td><div><table><tr><td><div>Las Vistas</div></td></tr><tr><td><div>False</div></td></tr><tr><td><div>http://www.web2py.com/book/default/chapter/05</div></td></tr></table></div></td></tr><tr><td><div><table><tr><td><div>Base de datos</div></td></tr><tr><td><div>False</div></td></tr><tr><td><div>http://www.web2py.com/book/default/chapter/06</div></td></tr></table></div></td></tr><tr><td><div><table><tr><td><div>Formularios y validadores</div></td></tr><tr><td><div>False</div></td></tr><tr><td><div>http://www.web2py.com/book/default/chapter/07</div></td></tr></table></div></td></tr><tr><td><div><table><tr><td><div>Correo electr\xc3\xb3nico y SMS</div></td></tr><tr><td><div>False</div></td></tr><tr><td><div>http://www.web2py.com/book/default/chapter/08</div></td></tr></table></div></td></tr><tr><td><div><table><tr><td><div>Control de Acceso</div></td></tr><tr><td><div>False</div></td></tr><tr><td><div>http://www.web2py.com/book/default/chapter/09</div></td></tr></table></div></td></tr><tr><td><div><table><tr><td><div>Servicios</div></td></tr><tr><td><div>False</div></td></tr><tr><td><div>http://www.web2py.com/book/default/chapter/10</div></td></tr></table></div></td></tr><tr><td><div><table><tr><td><div>Recetas AJAX</div></td></tr><tr><td><div>False</div></td></tr><tr><td><div>http://www.web2py.com/book/default/chapter/11</div></td></tr></table></div></td></tr><tr><td><div><table><tr><td><div>Componentes y Plugins</div></td></tr><tr><td><div>False</div></td></tr><tr><td><div>http://www.web2py.com/book/default/chapter/12</div></td></tr></table></div></td></tr><tr><td><div><table><tr><td><div>Recetas de despliegue</div></td></tr><tr><td><div>False</div></td></tr><tr><td><div>http://www.web2py.com/book/default/chapter/13</div></td></tr></table></div></td></tr><tr><td><div><table><tr><td><div>Otras Recetas</div></td></tr><tr><td><div>False</div></td></tr><tr><td><div>http://www.web2py.com/book/default/chapter/14</div></td></tr></table></div></td></tr><tr><td><div><table><tr><td><div>Helping web2py</div></td></tr><tr><td><div>False</div></td></tr><tr><td><div>http://www.web2py.com/book/default/chapter/15</div></td></tr></table></div></td></tr><tr><td><div><table><tr><td><div>Buy web2py\'s book</div></td></tr><tr><td><div>False</div></td></tr><tr><td><div>http://stores.lulu.com/web2py</div></td></tr></table></div></td></tr></table></div></td></tr></table></div></td></tr><tr><td><div><table><tr><td><div>Comunidad</div></td></tr><tr><td><div>False</div></td></tr><tr><td><div>None</div></td></tr><tr><td><div><table><tr><td><div><table><tr><td><div>Grupos</div></td></tr><tr><td><div>False</div></td></tr><tr><td><div>http://www.web2py.com/examples/default/usergroups</div></td></tr></table></div></td></tr><tr><td><div><table><tr><td><div>Twitter</div></td></tr><tr><td><div>False</div></td></tr><tr><td><div>http://twitter.com/web2py</div></td></tr></table></div></td></tr><tr><td><div><table><tr><td><div>Chat en vivo</div></td></tr><tr><td><div>False</div></td></tr><tr><td><div>http://webchat.freenode.net/?channels=web2py</div></td></tr></table></div></td></tr></table></div></td></tr></table></div></td></tr></table></div></td></tr><tr><td style="font-weight:bold;vertical-align:top;">meta</td><td style="vertical-align:top;">:</td><td><div><table><tr><td style="font-weight:bold;vertical-align:top;">author</td><td style="vertical-align:top;">:</td><td><div>Your Name &lt;you@example.com&gt;</div></td></tr><tr><td style="font-weight:bold;vertical-align:top;">description</td><td style="vertical-align:top;">:</td><td><div>a cool new app</div></td></tr><tr><td style="font-weight:bold;vertical-align:top;">generator</td><td style="vertical-align:top;">:</td><td><div>Web2py Web Framework</div></td></tr><tr><td style="font-weight:bold;vertical-align:top;">keywords</td><td style="vertical-align:top;">:</td><td><div><table><tr><td><div>web2py</div></td></tr><tr><td><div>python</div></td></tr><tr><td><div>framework</div></td></tr></table></div></td></tr></table></div></td></tr><tr><td style="font-weight:bold;vertical-align:top;">models_to_run</td><td style="vertical-align:top;">:</td><td><div><table><tr><td><div>^\\w+\\.py$</div></td></tr><tr><td><div>^default/\\w+\\.py$</div></td></tr><tr><td><div>^default/admin/\\w+\\.py$</div></td></tr></table></div></td></tr><tr><td style="font-weight:bold;vertical-align:top;">postprocessing</td><td style="vertical-align:top;">:</td><td><div><table></table></div></td></tr><tr><td style="font-weight:bold;vertical-align:top;">session_client</td><td style="vertical-align:top;">:</td><td><div>127.0.0.1</div></td></tr><tr><td style="font-weight:bold;vertical-align:top;">session_cookie_compression_level</td><td style="vertical-align:top;">:</td><td><div>None</div></td></tr><tr><td style="font-weight:bold;vertical-align:top;">session_cookie_expires</td><td style="vertical-align:top;">:</td><td><div>None</div></td></tr><tr><td style="font-weight:bold;vertical-align:top;">session_data_name</td><td style="vertical-align:top;">:</td><td><div>session_data_sispio</div></td></tr><tr><td style="font-weight:bold;vertical-align:top;">session_file</td><td style="vertical-align:top;">:</td><td><div>&lt;open file &#x27;C:\\\\Users\\\\capf9\\\\Desktop\\\\University\\\\web2py_win\\\\web2py\\\\applications\\\\SisPIO\\\\sessions\\\\0f3\\\\195\\\\127.0.0.1-e8837627-67e4-4509-b8e8-95407f2a3ac4&#x27;, mode &#x27;rb+&#x27; at 0x03BDF078&gt;</div></td></tr><tr><td style="font-weight:bold;vertical-align:top;">session_filename</td><td style="vertical-align:top;">:</td><td><div>C:\\Users\\capf9\\Desktop\\University\\web2py_win\\web2py\\applications\\SisPIO\\sessions\\127.0.0.1-e8837627-67e4-4509-b8e8-95407f2a3ac4</div></td></tr><tr><td style="font-weight:bold;vertical-align:top;">session_hash</td><td style="vertical-align:top;">:</td><td><div>15b142677ebfd3bae9b2781e2ad71340</div></td></tr><tr><td style="font-weight:bold;vertical-align:top;">session_id</td><td style="vertical-align:top;">:</td><td><div>127.0.0.1-e8837627-67e4-4509-b8e8-95407f2a3ac4</div></td></tr><tr><td style="font-weight:bold;vertical-align:top;">session_id_name</td><td style="vertical-align:top;">:</td><td><div>session_id_sispio</div></td></tr><tr><td style="font-weight:bold;vertical-align:top;">session_locked</td><td style="vertical-align:top;">:</td><td><div>True</div></td></tr><tr><td style="font-weight:bold;vertical-align:top;">session_masterapp</td><td style="vertical-align:top;">:</td><td><div>SisPIO</div></td></tr><tr><td style="font-weight:bold;vertical-align:top;">session_new</td><td style="vertical-align:top;">:</td><td><div>False</div></td></tr><tr><td style="font-weight:bold;vertical-align:top;">session_storage_type</td><td style="vertical-align:top;">:</td><td><div>file</div></td></tr><tr><td style="font-weight:bold;vertical-align:top;">status</td><td style="vertical-align:top;">:</td><td><div>200</div></td></tr><tr><td style="font-weight:bold;vertical-align:top;">subtitle</td><td style="vertical-align:top;">:</td><td><div></div></td></tr><tr><td style="font-weight:bold;vertical-align:top;">title</td><td style="vertical-align:top;">:</td><td><div>Sispio</div></td></tr><tr><td style="font-weight:bold;vertical-align:top;">view</td><td style="vertical-align:top;">:</td><td><div>default/admin.html</div></td></tr></table></div>'
tRp202
sS'locals'
p203
(dp204
S'profesores'
p205
S'<Rows (0)>'
p206
sS'username'
p207
S"'admin'"
p208
sS'cohortes'
p209
S'<Rows (1)>'
p210
sS'formularioModificar'
p211
S'None'
p212
sS'formularioConsulta'
p213
S'<gluon.html.FORM object>'
p214
sS'sedes'
p215
S'<Rows (4)>'
p216
sS'cedulaModificar'
p217
S'<gluon.html.FORM object>'
p218
sS'consultarTodo'
p219
S'<gluon.html.FORM object>'
p220
sS'formularioEliminarLiceo'
p221
S'<gluon.html.FORM object>'
p222
sS'formularioAgregarManual'
p223
S'<gluon.html.FORM object>'
p224
sS'modificando'
p225
S'None'
p226
sS'usuario'
p227
S"<Row {'username': 'admin', 'auth_event': <Set (a...'registration_key': '', 'email': 'admin@usb.ve'}>"
p228
sS'formAdministrador'
p229
S'<gluon.sqlhtml.SQLFORM object>'
p230
sS'consulta'
p231
S'None'
p232
sS'formularioLiceoManual'
p233
S'<gluon.sqlhtml.SQLFORM object>'
p234
sS'cohorte'
p235
S"'2017/2018'"
p236
sS'liceos'
p237
S'<Rows (0)>'
p238
sssS'traceback'
p239
S'Traceback (most recent call last):\n  File "C:\\Users\\capf9\\Desktop\\University\\web2py_win\\web2py\\gluon\\restricted.py", line 227, in restricted\n    exec ccode in environment\n  File "C:\\Users\\capf9\\Desktop\\University\\web2py_win\\web2py\\applications\\SisPIO\\controllers/default.py", line 1035, in <module>\n  File "C:\\Users\\capf9\\Desktop\\University\\web2py_win\\web2py\\gluon\\globals.py", line 417, in <lambda>\n    self._caller = lambda f: f()\n  File "C:\\Users\\capf9\\Desktop\\University\\web2py_win\\web2py\\gluon\\tools.py", line 4241, in f\n    return action(*a, **b)\n  File "C:\\Users\\capf9\\Desktop\\University\\web2py_win\\web2py\\gluon\\tools.py", line 4241, in f\n    return action(*a, **b)\n  File "C:\\Users\\capf9\\Desktop\\University\\web2py_win\\web2py\\applications\\SisPIO\\controllers/default.py", line 416, in admin\n    return dict(formAdministrador=formAdministrador, erroresCarga=erroresCarga,\nNameError: global name \'erroresCarga\' is not defined\n'
p240
s.