(dp1
S'output'
p2
S"<type 'exceptions.AttributeError'> "
p3
sS'layer'
p4
S'C:\\Users\\capf9\\Desktop\\University\\web2py_win\\web2py\\applications\\SisPIO\\views\\representanteLiceo/consultar.html'
p5
sS'code'
p6
S'response.write(\'<!DOCTYPE html>\\r\\n\\r\\n<link href="\', escape=False)\nresponse.write(URL(\'static\', \'css/representanteLiceo/consultar.css\'))\nresponse.write(\'" rel="stylesheet">\\r\\n\\r\\n \', escape=False)\nresponse.write(\'<html lang="es">\\r\\n\\r\\n<head>\\r\\n    <meta charset="utf-8">\\r\\n    <meta http-equiv="X-UA-Compatible" content="IE=edge">\\r\\n    <meta name="viewport" content="width=device-width, initial-scale=1">\\r\\n    <!-- The above 3 meta tags *must* come first in the head; any other head content must come *after* these tags. Will make it responsive-->\\r\\n    <title>Sistema PIO</title>\\r\\n    <link rel="shortcut icon" href="\', escape=False)\nresponse.write(URL(\'static\', \'images/logoUSB.png\'))\nresponse.write(\'" />\\r\\n     <!-- Bootstrap -->\\r\\n    <link href="\', escape=False)\nresponse.write(URL(\'static\', \'css/bootstrap.min.css\'))\nresponse.write(\'" rel="stylesheet">\\r\\n    <link href="\', escape=False)\nresponse.write(URL(\'static\', \'css/bootstrap-theme.min.css\'))\nresponse.write(\'" rel="stylesheet">\\r\\n    <link href="\', escape=False)\nresponse.write(URL(\'static\', \'css/index.css\'))\nresponse.write(\'" rel="stylesheet">\\r\\n\\r\\n\\r\\n    <!-- HTML5 shim and Respond.js for IE8 support of HTML5 elements and media queries -->\\r\\n    <!-- WARNING: Respond.js doesn\\\'t work if you view the page via file:// -->\\r\\n    <!--[if lt IE 9]>\\r\\n      <script src="https://oss.maxcdn.com/html5shiv/3.7.3/html5shiv.min.js"></script>\\r\\n      <script src="https://oss.maxcdn.com/respond/1.4.2/respond.min.js"></script>\\r\\n    <![endif]-->\\r\\n</head>\\r\\n<div class="container">\\r\\n        <div class="row">\\r\\n            <!--HEADER --> \\r\\n            <div class="col-sm-12">\\r\\n                <img id="Logo" class="img-responsive" src="\', escape=False)\nresponse.write(URL(\'static\', \'images/bar7.png\'))\nresponse.write(\'" >\\r\\n            </div>\\r\\n            \\r\\n             <!--Navbar -->\\r\\n            <div class=" col-sm-12">\\r\\n                \\r\\n                <nav class="navbar navbar-default inicioSesion">\\r\\n                  <div class="container-fluid">\\r\\n                    <!-- Brand and toggle get grouped for better mobile display -->\\r\\n                    <div class="navbar-header">\\r\\n                      <button type="button" class="navbar-toggle collapsed" data-toggle="collapse" data-target="#bs-example-navbar-collapse-1" aria-expanded="false">\\r\\n                        <span class="sr-only">Toggle navigation</span>\\r\\n                        <span class="icon-bar"></span>\\r\\n                        <span class="icon-bar"></span>\\r\\n                        <span class="icon-bar"></span>\\r\\n                      </button>\\r\\n                    </div>\\r\\n\\r\\n                    <!-- Collect the nav links, forms, and other content for toggling -->\\r\\n                    <div class="collapse navbar-collapse" id="bs-example-navbar-collapse-1">\\r\\n                      <ul class="nav navbar-nav navbar-right">\\r\\n                          <li class="dropdown">\\r\\n                            \', escape=False)\nif auth.is_logged_in():\n    response.write(\'\\r\\n                              <a href="#" class="dropdown-toggle" data-toggle="dropdown" role="button" aria-haspopup="true" aria-expanded="false"><strong>\', escape=False)\n    response.write(auth.user.first_name)\n    response.write(\'</strong><span class="caret"></span></a>\\r\\n                              \', escape=False)\nelse:\n    response.write(\'\\r\\n                               <a href="#" class="dropdown-toggle" data-toggle="dropdown" role="button" aria-haspopup="true" aria-expanded="false"><strong>Usuario</strong><span class="caret"></span></a>\\r\\n                               \', escape=False)\n    pass\nresponse.write(\'\\r\\n                              <ul class="dropdown-menu">\\r\\n                                    <li id="userinfo"><a href="#"><span class="glyphicon glyphicon-user "></span> <strong>Mi perfil</strong> </a></li>\\r\\n                                    <li id="enviar"><a href="#"><span class="glyphicon glyphicon-envelope"></span> <strong>Cont\\xc3\\xa1ctanos</strong></a></li>\\r\\n                                    <li role="separator" class="divider"></li>\\r\\n                                    <li><a href="\', escape=False)\nresponse.write(URL(\'default\', \'user\', args=\'logout\'))\nresponse.write(\'"><span class="glyphicon glyphicon-log-out"></span> <strong>Salir</strong> </a></li>\\r\\n                              </ul>\\r\\n                          </li>\\r\\n                        </ul>\\r\\n                    </div><!-- /.navbar-collapse -->\\r\\n                  </div><!-- /.container-fluid -->\\r\\n                </nav>\\r\\n            </div><!--col12-->\\r\\n        </div><!--row-->\\r\\n            \\r\\n    </div><!--container-->\\r\\n<div class="w2p_flash alert alert-dismissable">\', escape=False)\nresponse.write(response.flash or \'\')\nresponse.write(\'</div>\\r\\n\', escape=False)\nresponse.write(\'\\r\\n\\r\\n    <div  class="container">\\r\\n        <div id="inicio" class="row">\\r\\n            <div class="col-md-12">  \\r\\n              \', escape=False)\nresponse.write(\'<!-- Information-->\\r\\n    <div class="col-md-3">\\r\\n      <div class="row">\\r\\n            <a href="\', escape=False)\nresponse.write(URL(\'representanteLiceo\', \'index\'))\nresponse.write(\'"><button class="accordion2" id="principal"><strong>Inicio</strong></button></a>\\r\\n            <button class="accordion"><strong>Gesti\\xc3\\xb3n de estudiantes</strong><span class="caret"></span></button>\\r\\n            <div class="panel">\\r\\n            <a href="\', escape=False)\nresponse.write(URL(\'representanteLiceo\', \'agregarManual\'))\nresponse.write(\'"><button class="accordion2" id="add"><span class="glyphicon glyphicon-pencil"></span>  <strong>Agregar estudiante</strong></span></button></a>\\r\\n            <a href="\', escape=False)\nresponse.write(URL(\'representanteLiceo\', \'modificarUsuario\'))\nresponse.write(\'"><button class="accordion2" id="edit"><span class="glyphicon glyphicon-pencil"></span>  <strong>Modificar estudiante</strong></span></button></a>\\r\\n            <a href="\', escape=False)\nresponse.write(URL(\'representanteLiceo\', \'consultar\'))\nresponse.write(\'"><button class="accordion2" id="lookfor"><span class="glyphicon glyphicon-pencil"></span>  <strong>Consultar estudiante</strong></span></button></a>\\r\\n            </div>\\r\\n            <a href="\', escape=False)\nresponse.write(URL(\'representanteLiceo\', \'cargaArchivo\'))\nresponse.write(\'"><button class="accordion2" id="comp"><span class="accordion2"></span>  <strong>Cargar por archivo</strong></span></button></a>\\r\\n            <button class="accordion"><strong>Otros</strong><span class="caret"></span></button>\\r\\n            <div class="panel">\\r\\n            <a href="\', escape=False)\nresponse.write(URL(\'representanteLiceo\', \'perfil\'))\nresponse.write(\'"><button class="accordion2" id="perfil"><span class="glyphicon glyphicon-pencil"></span>  <strong>Perfil</strong></button></a>\\r\\n            <a href="\', escape=False)\nresponse.write(URL(\'representanteLiceo\', \'noticias\'))\nresponse.write(\'" id="adminNoticias"><button class="accordion2" id="news"><span class="glyphicon glyphicon-pencil"></span>  <strong>Noticias</strong></button></a>\\r\\n            <a href="\', escape=False)\nresponse.write(URL(\'representanteLiceo\', \'cambioContrasena\'))\nresponse.write(\'"><button class="accordion2" id="pass"><span class="glyphicon glyphicon-pencil"></span>  <strong>Cambiar contrase\\xc3\\xb1a</strong></button></a>\\r\\n            </div>\\r\\n            <a href="\', escape=False)\nresponse.write(URL(\'default\', \'user\', args=\'logout\'))\nresponse.write(\'" id="logOut"> <button class="accordion2"><strong>Salir</strong></button></a>\\r\\n       </div>\\r\\n      \\r\\n        \\r\\n    </div>\\r\\n\', escape=False)\nresponse.write(\'\\r\\n                <div class="col-md-9">\\r\\n                  \\r\\n                    <div>\\r\\n                      <form method="get" >\\r\\n                      <input name="_formname" type="hidden" value="consultarTodo">\\r\\n                        <h1>Consultas </h1><br>\\r\\n                        <legend>Busqueda de todos sus alumnos</legend>\\r\\n                           <div class="buscar"><button type="submit" class="btn btn-primary save"  value="Buscar todos" data-toggle="modal" data-target="#ConsultarModal">\\r\\n                              Consultar todos.\\r\\n                            </button>\\r\\n                            </div>\\r\\n                        <legend>Busqueda personalizada</legend>\\r\\n                        </form>\\r\\n                        <form method="get">\\r\\n                        <input name="_formname" type="hidden" value="formularioConsulta">\\r\\n                             <div class="row">\\r\\n                                   \\r\\n                                    <div class="form-group">\\r\\n                                    <label for="Cohorte"  class="col-sm-2 control-label lineCentral">Cohorte: </label>\\r\\n                                        <select class="selectStyle" name="Cohorte" >\\r\\n                                            <option value="" disabled selected>Seleccione una cohorte </option>\\r\\n                                            \', escape=False)\nfor i in cohortes:\n    response.write(\'\\r\\n                                                <option value="\', escape=False)\n    response.write(i.nombre)\n    response.write(\'" >\', escape=False)\n    response.write(i.nombre)\n    response.write(\'</option>\\r\\n                                            \', escape=False)\n    pass\nresponse.write(\'\\r\\n                                        </select>\\r\\n                                    </div>\\r\\n                                    <br>\\r\\n                                    <div class="form-group">\\r\\n                                    <label for="Sexo"  class="col-sm-2 control-label lineCentral">Sexo: </label>\\r\\n                                        <select class="selectStyle" name="Sexo" >\\r\\n                                            <option value="" disabled selected>Seleccione sexo </option>\\r\\n                                            <option value="">Femenino</option>\\r\\n                                            <option value="">Masculino</option>\\r\\n                                        </select>\\r\\n                                    </div>\\r\\n                                    <br>\\r\\n                                    <div class="form-group">\\r\\n                                    <label for="Estado"  class="col-sm-2 control-label lineCentral">Estado: </label>\\r\\n                                        <select class="selectStyle" name="Estado" >\\r\\n                                            <option value="" disabled selected>Seleccione estado </option>\\r\\n                                            <option value="">Pre-Inscrito</option>\\r\\n                                            <option value="">Seleccionado</option>\\r\\n                                            <option value="">Activo</option>\\r\\n                                            <option value="">Inactivo</option>\\r\\n                                            <option value="">Finalizado</option>\\r\\n                                        </select>\\r\\n                                    </div>\\r\\n                                     <br>\\r\\n                                    <div class="form-group">\\r\\n                                    <div class="row">\\r\\n                                        <label for="promedioEntero" class="col-sm-2 control-label lineCentral">Promedio:</label><br>\\r\\n                                    </div>\\r\\n                                    <div class="row">\\r\\n                                        <div class="col-md-12 col-md-offset-3">\\r\\n                                            <strong class="edad">Nota menor que:</strong>\\r\\n                                            <input type="number" min="0" max="20" step="1" value="0" id="promedioEntero" class="text-right form-control" name="PromedioEntero">\\r\\n                                            <strong> .</strong>\\r\\n                                            <input type="number" min="0" max="99" step="1" value="0" id="promedioDecimal" class="text-right form-control" name="PromedioDecimal">\\r\\n                                        </div>\\r\\n                                        <div class="col-md-6 col-md-offset-3">\\r\\n                                            <br><strong class="edad">  Nota mayor que: </strong>\\r\\n                                            <input type="number" min="0" max="20" step="1" value="0" id="promedioEntero" class="text-right form-control" name="PromedioEntero" >\\r\\n                                            <strong> .</strong>\\r\\n                                            <input type="number" min="0" max="99" step="1" value="0" id="promedioDecimal" class="text-right form-control" name="PromedioDecimal">\\r\\n                                        </div>\\r\\n                                    </div>\\r\\n                                </div>\\r\\n                            </div>\\r\\n                            <br>\\r\\n                           <!-- Button trigger modal -->\\r\\n                            <div class="save text-center"><button type="submit" class="btn btn-primary save"  value="Consultar">Consultar </button>\\r\\n                            </div>\\r\\n                        </form>\\r\\n                    </div>\\r\\n\\r\\n                </div>\\r\\n            </div>\\r\\n        </div>         \\r\\n    </div><!-- container-->\', escape=False)\nresponse.write(\'\\r\\n <footer class="container-fluid footer">\\r\\n        <div class="row">\\r\\n            <p class="text-center minText">Universidad Sim\\xc3\\xb3n Bolivar<br>Sartenejas, Baruta, Edo. Miranda - Apartado 89000 - Cable Unibolivar - Caracas Venezuela. Tel\\xc3\\xa9fono +58 0212-9063907.<br>\\r\\nDise\\xc3\\xb1ada y desarrollada por Software for the World</p>\\r\\n        </div>\\r\\n    </footer>\\r\\n</body>\\r\\n    <!-- jQuery (necessary for Bootstrap\\\'s JavaScript plugins) -->\\r\\n    <script src="https://ajax.googleapis.com/ajax/libs/jquery/1.12.4/jquery.min.js"></script>\\r\\n    <!-- Include all compiled plugins (below), or include individual files as needed -->\\r\\n    <script src="\', escape=False)\nresponse.write(URL(\'static\', \'js/bootstrap.min.js\'))\nresponse.write(\'"></script>\\r\\n    <script src="\', escape=False)\nresponse.write(URL(\'static\', \'js/Admin.js\'))\nresponse.write(\'"></script>\\r\\n    <script src="\', escape=False)\nresponse.write(URL(\'static\', \'js/web2py.js\'))\nresponse.write(\'"></script> \\r\\n    <!-- JQUERY-->\\r\\n\\r\\n</html>\\r\\n\', escape=False)'
p7
sS'snapshot'
p8
(dp9
S'exception'
p10
(dp11
S'__hash__'
p12
S"<method-wrapper '__hash__' of exceptions.AttributeError object>"
p13
sS'__setattr__'
p14
S"<method-wrapper '__setattr__' of exceptions.AttributeError object>"
p15
sS'__reduce_ex__'
p16
S'<built-in method __reduce_ex__ of exceptions.AttributeError object>'
p17
sS'__getslice__'
p18
S"<method-wrapper '__getslice__' of exceptions.AttributeError object>"
p19
sS'__getitem__'
p20
S"<method-wrapper '__getitem__' of exceptions.AttributeError object>"
p21
sS'__setstate__'
p22
S'<built-in method __setstate__ of exceptions.AttributeError object>'
p23
sS'__reduce__'
p24
S'<built-in method __reduce__ of exceptions.AttributeError object>'
p25
sS'__str__'
p26
S"<method-wrapper '__str__' of exceptions.AttributeError object>"
p27
sS'__format__'
p28
S'<built-in method __format__ of exceptions.AttributeError object>'
p29
sS'__getattribute__'
p30
S"<method-wrapper '__getattribute__' of exceptions.AttributeError object>"
p31
sS'__class__'
p32
S"<type 'exceptions.AttributeError'>"
p33
sS'__unicode__'
p34
S'<built-in method __unicode__ of exceptions.AttributeError object>'
p35
sS'__delattr__'
p36
S"<method-wrapper '__delattr__' of exceptions.AttributeError object>"
p37
sS'__subclasshook__'
p38
S'<built-in method __subclasshook__ of type object>'
p39
sS'__repr__'
p40
S"<method-wrapper '__repr__' of exceptions.AttributeError object>"
p41
sS'args'
p42
S'()'
p43
sS'__dict__'
p44
S'{}'
p45
sS'__sizeof__'
p46
S'<built-in method __sizeof__ of exceptions.AttributeError object>'
p47
sS'__doc__'
p48
S"'Attribute not found.'"
p49
sS'__init__'
p50
S"<method-wrapper '__init__' of exceptions.AttributeError object>"
p51
sS'__new__'
p52
S'<built-in method __new__ of type object>'
p53
ssS'evalue'
p54
S''
sS'request'
p55
cgluon.html
XML_unpickle
p56
(S's\x80e\x00\x00<div><table><tr><td style="font-weight:bold;vertical-align:top;">ajax</td><td style="vertical-align:top;">:</td><td><div>False</div></td></tr><tr><td style="font-weight:bold;vertical-align:top;">application</td><td style="vertical-align:top;">:</td><td><div>SisPIO</div></td></tr><tr><td style="font-weight:bold;vertical-align:top;">args</td><td style="vertical-align:top;">:</td><td><div><table></table></div></td></tr><tr><td style="font-weight:bold;vertical-align:top;">cid</td><td style="vertical-align:top;">:</td><td><div>None</div></td></tr><tr><td style="font-weight:bold;vertical-align:top;">client</td><td style="vertical-align:top;">:</td><td><div>127.0.0.1</div></td></tr><tr><td style="font-weight:bold;vertical-align:top;">controller</td><td style="vertical-align:top;">:</td><td><div>representanteLiceo</div></td></tr><tr><td style="font-weight:bold;vertical-align:top;">cookies</td><td style="vertical-align:top;">:</td><td><div><table><tr><td style="font-weight:bold;vertical-align:top;">csrftoken</td><td style="vertical-align:top;">:</td><td><div>bAvrbJoJOHwdYd0Nhgcf7V7XLRCS3LThhnaIkAjMzM90R1ZK6PwGseUwcePnaB0I<table><tr><td style="font-weight:bold;vertical-align:top;">comment</td><td style="vertical-align:top;">:</td><td><div></div></td></tr><tr><td style="font-weight:bold;vertical-align:top;">domain</td><td style="vertical-align:top;">:</td><td><div></div></td></tr><tr><td style="font-weight:bold;vertical-align:top;">expires</td><td style="vertical-align:top;">:</td><td><div></div></td></tr><tr><td style="font-weight:bold;vertical-align:top;">httponly</td><td style="vertical-align:top;">:</td><td><div></div></td></tr><tr><td style="font-weight:bold;vertical-align:top;">max-age</td><td style="vertical-align:top;">:</td><td><div></div></td></tr><tr><td style="font-weight:bold;vertical-align:top;">path</td><td style="vertical-align:top;">:</td><td><div></div></td></tr><tr><td style="font-weight:bold;vertical-align:top;">secure</td><td style="vertical-align:top;">:</td><td><div></div></td></tr><tr><td style="font-weight:bold;vertical-align:top;">version</td><td style="vertical-align:top;">:</td><td><div></div></td></tr></table></div></td></tr><tr><td style="font-weight:bold;vertical-align:top;">session_id_admin</td><td style="vertical-align:top;">:</td><td><div>127.0.0.1-8b1bf828-ffdc-4ee2-9ed9-c38e0c235fdd<table><tr><td style="font-weight:bold;vertical-align:top;">comment</td><td style="vertical-align:top;">:</td><td><div></div></td></tr><tr><td style="font-weight:bold;vertical-align:top;">domain</td><td style="vertical-align:top;">:</td><td><div></div></td></tr><tr><td style="font-weight:bold;vertical-align:top;">expires</td><td style="vertical-align:top;">:</td><td><div></div></td></tr><tr><td style="font-weight:bold;vertical-align:top;">httponly</td><td style="vertical-align:top;">:</td><td><div></div></td></tr><tr><td style="font-weight:bold;vertical-align:top;">max-age</td><td style="vertical-align:top;">:</td><td><div></div></td></tr><tr><td style="font-weight:bold;vertical-align:top;">path</td><td style="vertical-align:top;">:</td><td><div></div></td></tr><tr><td style="font-weight:bold;vertical-align:top;">secure</td><td style="vertical-align:top;">:</td><td><div></div></td></tr><tr><td style="font-weight:bold;vertical-align:top;">version</td><td style="vertical-align:top;">:</td><td><div></div></td></tr></table></div></td></tr><tr><td style="font-weight:bold;vertical-align:top;">session_id_sispio</td><td style="vertical-align:top;">:</td><td><div>127.0.0.1-f8321c0d-397c-4545-be11-27afda2b1421<table><tr><td style="font-weight:bold;vertical-align:top;">comment</td><td style="vertical-align:top;">:</td><td><div></div></td></tr><tr><td style="font-weight:bold;vertical-align:top;">domain</td><td style="vertical-align:top;">:</td><td><div></div></td></tr><tr><td style="font-weight:bold;vertical-align:top;">expires</td><td style="vertical-align:top;">:</td><td><div></div></td></tr><tr><td style="font-weight:bold;vertical-align:top;">httponly</td><td style="vertical-align:top;">:</td><td><div></div></td></tr><tr><td style="font-weight:bold;vertical-align:top;">max-age</td><td style="vertical-align:top;">:</td><td><div></div></td></tr><tr><td style="font-weight:bold;vertical-align:top;">path</td><td style="vertical-align:top;">:</td><td><div></div></td></tr><tr><td style="font-weight:bold;vertical-align:top;">secure</td><td style="vertical-align:top;">:</td><td><div></div></td></tr><tr><td style="font-weight:bold;vertical-align:top;">version</td><td style="vertical-align:top;">:</td><td><div></div></td></tr></table></div></td></tr><tr><td style="font-weight:bold;vertical-align:top;">session_id_welcome</td><td style="vertical-align:top;">:</td><td><div>127.0.0.1-928716c0-8a66-4aca-a180-e223e98c3433<table><tr><td style="font-weight:bold;vertical-align:top;">comment</td><td style="vertical-align:top;">:</td><td><div></div></td></tr><tr><td style="font-weight:bold;vertical-align:top;">domain</td><td style="vertical-align:top;">:</td><td><div></div></td></tr><tr><td style="font-weight:bold;vertical-align:top;">expires</td><td style="vertical-align:top;">:</td><td><div></div></td></tr><tr><td style="font-weight:bold;vertical-align:top;">httponly</td><td style="vertical-align:top;">:</td><td><div></div></td></tr><tr><td style="font-weight:bold;vertical-align:top;">max-age</td><td style="vertical-align:top;">:</td><td><div></div></td></tr><tr><td style="font-weight:bold;vertical-align:top;">path</td><td style="vertical-align:top;">:</td><td><div></div></td></tr><tr><td style="font-weight:bold;vertical-align:top;">secure</td><td style="vertical-align:top;">:</td><td><div></div></td></tr><tr><td style="font-weight:bold;vertical-align:top;">version</td><td style="vertical-align:top;">:</td><td><div></div></td></tr></table></div></td></tr></table></div></td></tr><tr><td style="font-weight:bold;vertical-align:top;">env</td><td style="vertical-align:top;">:</td><td><div><table><tr><td style="font-weight:bold;vertical-align:top;">HTTP_ACCEPT</td><td style="vertical-align:top;">:</td><td><div>text/html,application/xhtml+xml,application/xml;q=0.9,image/webp,image/apng,*/*;q=0.8</div></td></tr><tr><td style="font-weight:bold;vertical-align:top;">HTTP_ACCEPT_ENCODING</td><td style="vertical-align:top;">:</td><td><div>gzip, deflate, br</div></td></tr><tr><td style="font-weight:bold;vertical-align:top;">HTTP_ACCEPT_LANGUAGE</td><td style="vertical-align:top;">:</td><td><div>en-US,en;q=0.9,es;q=0.8</div></td></tr><tr><td style="font-weight:bold;vertical-align:top;">HTTP_CACHE_CONTROL</td><td style="vertical-align:top;">:</td><td><div>max-age=0</div></td></tr><tr><td style="font-weight:bold;vertical-align:top;">HTTP_CONNECTION</td><td style="vertical-align:top;">:</td><td><div>keep-alive</div></td></tr><tr><td style="font-weight:bold;vertical-align:top;">HTTP_COOKIE</td><td style="vertical-align:top;">:</td><td><div>csrftoken=bAvrbJoJOHwdYd0Nhgcf7V7XLRCS3LThhnaIkAjMzM90R1ZK6PwGseUwcePnaB0I; session_id_welcome=127.0.0.1-928716c0-8a66-4aca-a180-e223e98c3433; session_id_sispio=127.0.0.1-f8321c0d-397c-4545-be11-27afda2b1421; session_id_admin=127.0.0.1-8b1bf828-ffdc-4ee2-9ed9-c38e0c235fdd</div></td></tr><tr><td style="font-weight:bold;vertical-align:top;">HTTP_HOST</td><td style="vertical-align:top;">:</td><td><div>127.0.0.1:8000</div></td></tr><tr><td style="font-weight:bold;vertical-align:top;">HTTP_REFERER</td><td style="vertical-align:top;">:</td><td><div>http://127.0.0.1:8000/SisPIO/representanteLiceo/index</div></td></tr><tr><td style="font-weight:bold;vertical-align:top;">HTTP_UPGRADE_INSECURE_REQUESTS</td><td style="vertical-align:top;">:</td><td><div>1</div></td></tr><tr><td style="font-weight:bold;vertical-align:top;">HTTP_USER_AGENT</td><td style="vertical-align:top;">:</td><td><div>Mozilla/5.0 (Windows NT 10.0; Win64; x64) AppleWebKit/537.36 (KHTML, like Gecko) Chrome/62.0.3202.94 Safari/537.36</div></td></tr><tr><td style="font-weight:bold;vertical-align:top;">PATH_INFO</td><td style="vertical-align:top;">:</td><td><div>/SisPIO/representanteLiceo/consultar</div></td></tr><tr><td style="font-weight:bold;vertical-align:top;">QUERY_STRING</td><td style="vertical-align:top;">:</td><td><div></div></td></tr><tr><td style="font-weight:bold;vertical-align:top;">REMOTE_ADDR</td><td style="vertical-align:top;">:</td><td><div>127.0.0.1</div></td></tr><tr><td style="font-weight:bold;vertical-align:top;">REMOTE_PORT</td><td style="vertical-align:top;">:</td><td><div>53917</div></td></tr><tr><td style="font-weight:bold;vertical-align:top;">REQUEST_METHOD</td><td style="vertical-align:top;">:</td><td><div>GET</div></td></tr><tr><td style="font-weight:bold;vertical-align:top;">SCRIPT_NAME</td><td style="vertical-align:top;">:</td><td><div></div></td></tr><tr><td style="font-weight:bold;vertical-align:top;">SERVER_NAME</td><td style="vertical-align:top;">:</td><td><div>DESKTOP-FLGPCSQ</div></td></tr><tr><td style="font-weight:bold;vertical-align:top;">SERVER_PORT</td><td style="vertical-align:top;">:</td><td><div>8000</div></td></tr><tr><td style="font-weight:bold;vertical-align:top;">SERVER_PROTOCOL</td><td style="vertical-align:top;">:</td><td><div>HTTP/1.1</div></td></tr><tr><td style="font-weight:bold;vertical-align:top;">SERVER_SOFTWARE</td><td style="vertical-align:top;">:</td><td><div>Rocket 1.2.6</div></td></tr><tr><td style="font-weight:bold;vertical-align:top;">app_folders</td><td style="vertical-align:top;">:</td><td><div>set([&#x27;C:\\\\Users\\\\capf9\\\\Desktop\\\\University\\\\web2py_win\\\\web2py\\\\applications\\\\welcome\\\\&#x27;, &#x27;C:\\\\Users\\\\capf9\\\\Desktop\\\\University\\\\web2py_win\\\\web2py\\\\applications\\\\admin\\\\&#x27;, &#x27;C:\\\\Users\\\\capf9\\\\Desktop\\\\University\\\\web2py_win\\\\web2py\\\\applications\\\\SisPIO\\\\&#x27;])</div></td></tr><tr><td style="font-weight:bold;vertical-align:top;">applications_parent</td><td style="vertical-align:top;">:</td><td><div>C:\\Users\\capf9\\Desktop\\University\\web2py_win\\web2py</div></td></tr><tr><td style="font-weight:bold;vertical-align:top;">cmd_args</td><td style="vertical-align:top;">:</td><td><div><table></table></div></td></tr><tr><td style="font-weight:bold;vertical-align:top;">cmd_options</td><td style="vertical-align:top;">:</td><td><div>&lt;Values at 0x23a3d78: {&#x27;verbose&#x27;: False, &#x27;ip&#x27;: &#x27;127.0.0.1&#x27;, &#x27;debuglevel&#x27;: 30, &#x27;with_scheduler&#x27;: False, &#x27;shutdown_timeout&#x27;: 5, &#x27;taskbar&#x27;: False, &#x27;with_coverage&#x27;: False, &#x27;pid_filename&#x27;: &#x27;httpserver.pid&#x27;, &#x27;maxthreads&#x27;: None, &#x27;softcron&#x27;: False, &#x27;server_name&#x27;: &#x27;DESKTOP-FLGPCSQ&#x27;, &#x27;bpython&#x27;: False, &#x27;nogui&#x27;: False, &#x27;port&#x27;: 8000, &#x27;print_errors&#x27;: False, &#x27;extcron&#x27;: False, &#x27;runcron&#x27;: False, &#x27;run_system_tests&#x27;: False, &#x27;test&#x27;: None, &#x27;folder&#x27;: &#x27;C:\\\\Users\\\\capf9\\\\Desktop\\\\University\\\\web2py_win\\\\web2py&#x27;, &#x27;config&#x27;: &#x27;&#x27;, &#x27;minthreads&#x27;: None, &#x27;shell&#x27;: None, &#x27;run&#x27;: &#x27;&#x27;, &#x27;log_filename&#x27;: &#x27;httpserver.log&#x27;, &#x27;profiler_dir&#x27;: None, &#x27;args&#x27;: [&#x27;&#x27;], &#x27;socket_timeout&#x27;: 5, &#x27;ssl_ca_certificate&#x27;: None, &#x27;scheduler&#x27;: None, &#x27;interfaces&#x27;: None, &#x27;ssl_private_key&#x27;: &#x27;&#x27;, &#x27;gae&#x27;: None, &#x27;password&#x27;: &#x27;******&#x27;, &#x27;request_queue_size&#x27;: 5, &#x27;ssl_certificate&#x27;: &#x27;&#x27;, &#x27;cronjob&#x27;: False, &#x27;numthreads&#x27;: None, &#x27;quiet&#x27;: False, &#x27;import_models&#x27;: False, &#x27;timeout&#x27;: 10, &#x27;plain&#x27;: False, &#x27;nobanner&#x27;: False}&gt;</div></td></tr><tr><td style="font-weight:bold;vertical-align:top;">db_sessions</td><td style="vertical-align:top;">:</td><td><div>set([])</div></td></tr><tr><td style="font-weight:bold;vertical-align:top;">debugging</td><td style="vertical-align:top;">:</td><td><div>False</div></td></tr><tr><td style="font-weight:bold;vertical-align:top;">gluon_parent</td><td style="vertical-align:top;">:</td><td><div>C:\\Users\\capf9\\Desktop\\University\\web2py_win\\web2py</div></td></tr><tr><td style="font-weight:bold;vertical-align:top;">http_accept</td><td style="vertical-align:top;">:</td><td><div>text/html,application/xhtml+xml,application/xml;q=0.9,image/webp,image/apng,*/*;q=0.8</div></td></tr><tr><td style="font-weight:bold;vertical-align:top;">http_accept_encoding</td><td style="vertical-align:top;">:</td><td><div>gzip, deflate, br</div></td></tr><tr><td style="font-weight:bold;vertical-align:top;">http_accept_language</td><td style="vertical-align:top;">:</td><td><div>en-US,en;q=0.9,es;q=0.8</div></td></tr><tr><td style="font-weight:bold;vertical-align:top;">http_cache_control</td><td style="vertical-align:top;">:</td><td><div>max-age=0</div></td></tr><tr><td style="font-weight:bold;vertical-align:top;">http_connection</td><td style="vertical-align:top;">:</td><td><div>keep-alive</div></td></tr><tr><td style="font-weight:bold;vertical-align:top;">http_cookie</td><td style="vertical-align:top;">:</td><td><div>csrftoken=bAvrbJoJOHwdYd0Nhgcf7V7XLRCS3LThhnaIkAjMzM90R1ZK6PwGseUwcePnaB0I; session_id_welcome=127.0.0.1-928716c0-8a66-4aca-a180-e223e98c3433; session_id_sispio=127.0.0.1-f8321c0d-397c-4545-be11-27afda2b1421; session_id_admin=127.0.0.1-8b1bf828-ffdc-4ee2-9ed9-c38e0c235fdd</div></td></tr><tr><td style="font-weight:bold;vertical-align:top;">http_host</td><td style="vertical-align:top;">:</td><td><div>127.0.0.1:8000</div></td></tr><tr><td style="font-weight:bold;vertical-align:top;">http_referer</td><td style="vertical-align:top;">:</td><td><div>http://127.0.0.1:8000/SisPIO/representanteLiceo/index</div></td></tr><tr><td style="font-weight:bold;vertical-align:top;">http_upgrade_insecure_requests</td><td style="vertical-align:top;">:</td><td><div>1</div></td></tr><tr><td style="font-weight:bold;vertical-align:top;">http_user_agent</td><td style="vertical-align:top;">:</td><td><div>Mozilla/5.0 (Windows NT 10.0; Win64; x64) AppleWebKit/537.36 (KHTML, like Gecko) Chrome/62.0.3202.94 Safari/537.36</div></td></tr><tr><td style="font-weight:bold;vertical-align:top;">is_jython</td><td style="vertical-align:top;">:</td><td><div>False</div></td></tr><tr><td style="font-weight:bold;vertical-align:top;">is_pypy</td><td style="vertical-align:top;">:</td><td><div>False</div></td></tr><tr><td style="font-weight:bold;vertical-align:top;">is_source</td><td style="vertical-align:top;">:</td><td><div>False</div></td></tr><tr><td style="font-weight:bold;vertical-align:top;">local_hosts</td><td style="vertical-align:top;">:</td><td><div><table><tr><td><div>2001:0:9d38:6abd:107a:1879:41db:1a82</div></td></tr><tr><td><div>fe80::107a:1879:41db:1a82%11</div></td></tr><tr><td><div>::ffff:127.0.0.1</div></td></tr><tr><td><div>::1</div></td></tr><tr><td><div>192.168.1.3</div></td></tr><tr><td><div>127.0.0.1</div></td></tr><tr><td><div>DESKTOP-FLGPCSQ</div></td></tr><tr><td><div>fe80::31f0:99b4:d6f4:33e6%9</div></td></tr></table></div></td></tr><tr><td style="font-weight:bold;vertical-align:top;">path_info</td><td style="vertical-align:top;">:</td><td><div>/SisPIO/representanteLiceo/consultar</div></td></tr><tr><td style="font-weight:bold;vertical-align:top;">query_string</td><td style="vertical-align:top;">:</td><td><div></div></td></tr><tr><td style="font-weight:bold;vertical-align:top;">remote_addr</td><td style="vertical-align:top;">:</td><td><div>127.0.0.1</div></td></tr><tr><td style="font-weight:bold;vertical-align:top;">remote_port</td><td style="vertical-align:top;">:</td><td><div>53917</div></td></tr><tr><td style="font-weight:bold;vertical-align:top;">request_method</td><td style="vertical-align:top;">:</td><td><div>GET</div></td></tr><tr><td style="font-weight:bold;vertical-align:top;">request_uri</td><td style="vertical-align:top;">:</td><td><div>/SisPIO/representanteLiceo/consultar</div></td></tr><tr><td style="font-weight:bold;vertical-align:top;">script_name</td><td style="vertical-align:top;">:</td><td><div></div></td></tr><tr><td style="font-weight:bold;vertical-align:top;">server_name</td><td style="vertical-align:top;">:</td><td><div>DESKTOP-FLGPCSQ</div></td></tr><tr><td style="font-weight:bold;vertical-align:top;">server_port</td><td style="vertical-align:top;">:</td><td><div>8000</div></td></tr><tr><td style="font-weight:bold;vertical-align:top;">server_protocol</td><td style="vertical-align:top;">:</td><td><div>HTTP/1.1</div></td></tr><tr><td style="font-weight:bold;vertical-align:top;">server_software</td><td style="vertical-align:top;">:</td><td><div>Rocket 1.2.6</div></td></tr><tr><td style="font-weight:bold;vertical-align:top;">web2py_path</td><td style="vertical-align:top;">:</td><td><div>C:\\Users\\capf9\\Desktop\\University\\web2py_win\\web2py</div></td></tr><tr><td style="font-weight:bold;vertical-align:top;">web2py_version</td><td style="vertical-align:top;">:</td><td><div>2.14.6-stable+timestamp.2016.05.10.00.21.47</div></td></tr><tr><td style="font-weight:bold;vertical-align:top;">wsgi.errors</td><td style="vertical-align:top;">:</td><td><div>&lt;open file &#x27;&lt;stderr&gt;&#x27;, mode &#x27;w&#x27; at 0x01FCD0D0&gt;</div></td></tr><tr><td style="font-weight:bold;vertical-align:top;">wsgi.file_wrapper</td><td style="vertical-align:top;">:</td><td><div>&lt;class wsgiref.util.FileWrapper at 0x038E9110&gt;</div></td></tr><tr><td style="font-weight:bold;vertical-align:top;">wsgi.input</td><td style="vertical-align:top;">:</td><td><div>&lt;socket._fileobject object at 0x043056B0&gt;</div></td></tr><tr><td style="font-weight:bold;vertical-align:top;">wsgi.multiprocess</td><td style="vertical-align:top;">:</td><td><div>False</div></td></tr><tr><td style="font-weight:bold;vertical-align:top;">wsgi.multithread</td><td style="vertical-align:top;">:</td><td><div>True</div></td></tr><tr><td style="font-weight:bold;vertical-align:top;">wsgi.run_once</td><td style="vertical-align:top;">:</td><td><div>False</div></td></tr><tr><td style="font-weight:bold;vertical-align:top;">wsgi.url_scheme</td><td style="vertical-align:top;">:</td><td><div>http</div></td></tr><tr><td style="font-weight:bold;vertical-align:top;">wsgi.version</td><td style="vertical-align:top;">:</td><td><div><table><tr><td><div>1</div></td></tr><tr><td><div>0</div></td></tr></table></div></td></tr><tr><td style="font-weight:bold;vertical-align:top;">wsgi_errors</td><td style="vertical-align:top;">:</td><td><div>&lt;open file &#x27;&lt;stderr&gt;&#x27;, mode &#x27;w&#x27; at 0x01FCD0D0&gt;</div></td></tr><tr><td style="font-weight:bold;vertical-align:top;">wsgi_file_wrapper</td><td style="vertical-align:top;">:</td><td><div>&lt;class wsgiref.util.FileWrapper at 0x038E9110&gt;</div></td></tr><tr><td style="font-weight:bold;vertical-align:top;">wsgi_input</td><td style="vertical-align:top;">:</td><td><div>&lt;socket._fileobject object at 0x043056B0&gt;</div></td></tr><tr><td style="font-weight:bold;vertical-align:top;">wsgi_multiprocess</td><td style="vertical-align:top;">:</td><td><div>False</div></td></tr><tr><td style="font-weight:bold;vertical-align:top;">wsgi_multithread</td><td style="vertical-align:top;">:</td><td><div>True</div></td></tr><tr><td style="font-weight:bold;vertical-align:top;">wsgi_run_once</td><td style="vertical-align:top;">:</td><td><div>False</div></td></tr><tr><td style="font-weight:bold;vertical-align:top;">wsgi_url_scheme</td><td style="vertical-align:top;">:</td><td><div>http</div></td></tr><tr><td style="font-weight:bold;vertical-align:top;">wsgi_version</td><td style="vertical-align:top;">:</td><td><div><table><tr><td><div>1</div></td></tr><tr><td><div>0</div></td></tr></table></div></td></tr></table></div></td></tr><tr><td style="font-weight:bold;vertical-align:top;">extension</td><td style="vertical-align:top;">:</td><td><div>html</div></td></tr><tr><td style="font-weight:bold;vertical-align:top;">folder</td><td style="vertical-align:top;">:</td><td><div>C:\\Users\\capf9\\Desktop\\University\\web2py_win\\web2py\\applications\\SisPIO\\</div></td></tr><tr><td style="font-weight:bold;vertical-align:top;">function</td><td style="vertical-align:top;">:</td><td><div>consultar</div></td></tr><tr><td style="font-weight:bold;vertical-align:top;">global_settings</td><td style="vertical-align:top;">:</td><td><div><table><tr><td style="font-weight:bold;vertical-align:top;">app_folders</td><td style="vertical-align:top;">:</td><td><div>set([&#x27;C:\\\\Users\\\\capf9\\\\Desktop\\\\University\\\\web2py_win\\\\web2py\\\\applications\\\\welcome\\\\&#x27;, &#x27;C:\\\\Users\\\\capf9\\\\Desktop\\\\University\\\\web2py_win\\\\web2py\\\\applications\\\\admin\\\\&#x27;, &#x27;C:\\\\Users\\\\capf9\\\\Desktop\\\\University\\\\web2py_win\\\\web2py\\\\applications\\\\SisPIO\\\\&#x27;])</div></td></tr><tr><td style="font-weight:bold;vertical-align:top;">applications_parent</td><td style="vertical-align:top;">:</td><td><div>C:\\Users\\capf9\\Desktop\\University\\web2py_win\\web2py</div></td></tr><tr><td style="font-weight:bold;vertical-align:top;">cmd_args</td><td style="vertical-align:top;">:</td><td><div><table></table></div></td></tr><tr><td style="font-weight:bold;vertical-align:top;">cmd_options</td><td style="vertical-align:top;">:</td><td><div>&lt;Values at 0x23a3d78: {&#x27;verbose&#x27;: False, &#x27;ip&#x27;: &#x27;127.0.0.1&#x27;, &#x27;debuglevel&#x27;: 30, &#x27;with_scheduler&#x27;: False, &#x27;shutdown_timeout&#x27;: 5, &#x27;taskbar&#x27;: False, &#x27;with_coverage&#x27;: False, &#x27;pid_filename&#x27;: &#x27;httpserver.pid&#x27;, &#x27;maxthreads&#x27;: None, &#x27;softcron&#x27;: False, &#x27;server_name&#x27;: &#x27;DESKTOP-FLGPCSQ&#x27;, &#x27;bpython&#x27;: False, &#x27;nogui&#x27;: False, &#x27;port&#x27;: 8000, &#x27;print_errors&#x27;: False, &#x27;extcron&#x27;: False, &#x27;runcron&#x27;: False, &#x27;run_system_tests&#x27;: False, &#x27;test&#x27;: None, &#x27;folder&#x27;: &#x27;C:\\\\Users\\\\capf9\\\\Desktop\\\\University\\\\web2py_win\\\\web2py&#x27;, &#x27;config&#x27;: &#x27;&#x27;, &#x27;minthreads&#x27;: None, &#x27;shell&#x27;: None, &#x27;run&#x27;: &#x27;&#x27;, &#x27;log_filename&#x27;: &#x27;httpserver.log&#x27;, &#x27;profiler_dir&#x27;: None, &#x27;args&#x27;: [&#x27;&#x27;], &#x27;socket_timeout&#x27;: 5, &#x27;ssl_ca_certificate&#x27;: None, &#x27;scheduler&#x27;: None, &#x27;interfaces&#x27;: None, &#x27;ssl_private_key&#x27;: &#x27;&#x27;, &#x27;gae&#x27;: None, &#x27;password&#x27;: &#x27;******&#x27;, &#x27;request_queue_size&#x27;: 5, &#x27;ssl_certificate&#x27;: &#x27;&#x27;, &#x27;cronjob&#x27;: False, &#x27;numthreads&#x27;: None, &#x27;quiet&#x27;: False, &#x27;import_models&#x27;: False, &#x27;timeout&#x27;: 10, &#x27;plain&#x27;: False, &#x27;nobanner&#x27;: False}&gt;</div></td></tr><tr><td style="font-weight:bold;vertical-align:top;">db_sessions</td><td style="vertical-align:top;">:</td><td><div>set([])</div></td></tr><tr><td style="font-weight:bold;vertical-align:top;">debugging</td><td style="vertical-align:top;">:</td><td><div>False</div></td></tr><tr><td style="font-weight:bold;vertical-align:top;">gluon_parent</td><td style="vertical-align:top;">:</td><td><div>C:\\Users\\capf9\\Desktop\\University\\web2py_win\\web2py</div></td></tr><tr><td style="font-weight:bold;vertical-align:top;">is_jython</td><td style="vertical-align:top;">:</td><td><div>False</div></td></tr><tr><td style="font-weight:bold;vertical-align:top;">is_pypy</td><td style="vertical-align:top;">:</td><td><div>False</div></td></tr><tr><td style="font-weight:bold;vertical-align:top;">is_source</td><td style="vertical-align:top;">:</td><td><div>False</div></td></tr><tr><td style="font-weight:bold;vertical-align:top;">local_hosts</td><td style="vertical-align:top;">:</td><td><div><table><tr><td><div>2001:0:9d38:6abd:107a:1879:41db:1a82</div></td></tr><tr><td><div>fe80::107a:1879:41db:1a82%11</div></td></tr><tr><td><div>::ffff:127.0.0.1</div></td></tr><tr><td><div>::1</div></td></tr><tr><td><div>192.168.1.3</div></td></tr><tr><td><div>127.0.0.1</div></td></tr><tr><td><div>DESKTOP-FLGPCSQ</div></td></tr><tr><td><div>fe80::31f0:99b4:d6f4:33e6%9</div></td></tr></table></div></td></tr><tr><td style="font-weight:bold;vertical-align:top;">web2py_version</td><td style="vertical-align:top;">:</td><td><div>2.14.6-stable+timestamp.2016.05.10.00.21.47</div></td></tr></table></div></td></tr><tr><td style="font-weight:bold;vertical-align:top;">is_https</td><td style="vertical-align:top;">:</td><td><div>False</div></td></tr><tr><td style="font-weight:bold;vertical-align:top;">is_local</td><td style="vertical-align:top;">:</td><td><div>True</div></td></tr><tr><td style="font-weight:bold;vertical-align:top;">is_restful</td><td style="vertical-align:top;">:</td><td><div>False</div></td></tr><tr><td style="font-weight:bold;vertical-align:top;">is_scheduler</td><td style="vertical-align:top;">:</td><td><div>False</div></td></tr><tr><td style="font-weight:bold;vertical-align:top;">is_shell</td><td style="vertical-align:top;">:</td><td><div>False</div></td></tr><tr><td style="font-weight:bold;vertical-align:top;">now</td><td style="vertical-align:top;">:</td><td><div>datetime.datetime(2017, 11, 25, 15, 15, 48, 999000)</div></td></tr><tr><td style="font-weight:bold;vertical-align:top;">raw_args</td><td style="vertical-align:top;">:</td><td><div></div></td></tr><tr><td style="font-weight:bold;vertical-align:top;">raw_extension</td><td style="vertical-align:top;">:</td><td><div>None</div></td></tr><tr><td style="font-weight:bold;vertical-align:top;">url</td><td style="vertical-align:top;">:</td><td><div>/SisPIO/representanteLiceo/consultar</div></td></tr><tr><td style="font-weight:bold;vertical-align:top;">utcnow</td><td style="vertical-align:top;">:</td><td><div>datetime.datetime(2017, 11, 25, 19, 15, 48, 999000)</div></td></tr><tr><td style="font-weight:bold;vertical-align:top;">wsgi</td><td style="vertical-align:top;">:</td><td><div>&lt;gluon.main.LazyWSGI object at 0x096B1B30&gt;</div></td></tr></table></div>'
tRp57
sS'frames'
p58
(lp59
(dp60
S'file'
p61
S'C:\\Users\\capf9\\Desktop\\University\\web2py_win\\web2py\\gluon\\restricted.py'
p62
sS'dump'
p63
(dp64
S'environment'
p65
S"{'A': <class 'gluon.html.A'>, 'ANY_OF': <class 'gluon.validators.ANY_OF'>, 'ASSIGNJS': <function ASSIGNJS>, 'AppConfig': <function AppConfig>, 'Auth': <class 'gluon.tools.Auth'>, 'B': <class 'gluon.html.B'>, 'BEAUTIFY': <class 'gluon.html.BEAUTIFY'>, 'BODY': <class 'gluon.html.BODY'>, 'BR': <class 'gluon.html.BR'>, 'BUTTON': <class 'gluon.html.BUTTON'>, ...}"
p66
sS'ccode'
p67
S'<code object <module> at 09777B60, file "C:\\User...views\\representanteLiceo/consultar.html", line 1>'
p68
ssS'lnum'
p69
I227
sS'lines'
p70
(dp71
I224
S'            ccode = code'
p72
sI225
S'        else:'
p73
sI226
S'            ccode = compile2(code, layer)'
p74
sI227
S'        exec ccode in environment'
p75
sI228
S'    except HTTP:'
p76
sI229
S'        raise'
p77
sI230
S'    except RestrictedError:'
p78
sI231
S'        # do not encapsulate (obfuscate) the original RestrictedError'
p79
sI222
S'    try:'
p80
sI223
S'        if isinstance(code, types.CodeType):'
p81
ssS'call'
p82
S'(code=r"response.write(\'<!DOCTYPE html>\\r\\n\\r\\n<link hre...<!-- JQUERY-->\\r\\n\\r\\n</html>\\r\\n\', escape=False)", environment={\'A\': <class \'gluon.html.A\'>, \'ANY_OF\': <class \'gluon.validators.ANY_OF\'>, \'ASSIGNJS\': <function ASSIGNJS>, \'AppConfig\': <function AppConfig>, \'Auth\': <class \'gluon.tools.Auth\'>, \'B\': <class \'gluon.html.B\'>, \'BEAUTIFY\': <class \'gluon.html.BEAUTIFY\'>, \'BODY\': <class \'gluon.html.BODY\'>, \'BR\': <class \'gluon.html.BR\'>, \'BUTTON\': <class \'gluon.html.BUTTON\'>, ...}, layer=r\'C:\\Users\\capf9\\Desktop\\University\\web2py_win\\web...ns\\SisPIO\\views\\representanteLiceo/consultar.html\')'
p83
sS'func'
p84
S'restricted'
p85
sa(dp86
g61
S'C:\\Users\\capf9\\Desktop\\University\\web2py_win\\web2py\\applications\\SisPIO\\views\\representanteLiceo\\consultar.html'
p87
sg63
(dp88
S'option'
p89
S'undefined'
p90
sS'selected'
p91
g90
sS'value'
p92
g90
sS'disabled'
p93
g90
sS'Seleccione'
p94
g90
sS'estado'
p95
g90
ssg69
I50
sg70
(dp96
I41
S"response.write(URL('representanteLiceo', 'noticias'))"
p97
sI42
S'response.write(\'" id="adminNoticias"><button class="accordion2" id="news"><span class="glyphicon glyphicon-pencil"></span>  <strong>Noticias</strong></button></a>\\r\\n            <a href="\', escape=False)'
p98
sI43
S"response.write(URL('representanteLiceo', 'cambioContrasena'))"
p99
sI44
S'response.write(\'"><button class="accordion2" id="pass"><span class="glyphicon glyphicon-pencil"></span>  <strong>Cambiar contrase\\xc3\\xb1a</strong></button></a>\\r\\n            </div>\\r\\n            <a href="\', escape=False)'
p100
sI45
S"response.write(URL('default', 'user', args='logout'))"
p101
sI46
S'response.write(\'" id="logOut"> <button class="accordion2"><strong>Salir</strong></button></a>\\r\\n       </div>\\r\\n      \\r\\n        \\r\\n    </div>\\r\\n\', escape=False)'
p102
sI47
S'response.write(\'\\r\\n                <div class="col-md-9">\\r\\n                  \\r\\n                    <div>\\r\\n                      <form method="get" >\\r\\n                      <input name="_formname" type="hidden" value="consultarTodo">\\r\\n                        <h1>Consultas </h1><br>\\r\\n                        <legend>Busqueda de todos sus alumnos</legend>\\r\\n                           <div class="buscar"><button type="submit" class="btn btn-primary save"  value="Buscar todos" data-toggle="modal" data-target="#ConsultarModal">\\r\\n                              Consultar todos.\\r\\n                            </button>\\r\\n                            </div>\\r\\n                        <legend>Busqueda personalizada</legend>\\r\\n                        </form>\\r\\n                        <form method="get">\\r\\n                        <input name="_formname" type="hidden" value="formularioConsulta">\\r\\n                             <div class="row">\\r\\n                                   \\r\\n                                    <div class="form-group">\\r\\n                                    <label for="Cohorte"  class="col-sm-2 control-label lineCentral">Cohorte: </label>\\r\\n                                        <select class="selectStyle" name="Cohorte" >\\r\\n                                            <option value="" disabled selected>Seleccione una cohorte </option>\\r\\n                                            \', escape=False)'
p103
sI48
S'for i in cohortes:'
p104
sI49
S'    response.write(\'\\r\\n                                                <option value="\', escape=False)'
p105
sI50
S'    response.write(i.nombre)'
p106
sI51
S'    response.write(\'" >\', escape=False)'
p107
sI52
S'    response.write(i.nombre)'
p108
sI53
S"    response.write('</option>\\r\\n                                            ', escape=False)"
p109
sI54
S'    pass'
p110
sI55
S'response.write(\'\\r\\n                                        </select>\\r\\n                                    </div>\\r\\n                                    <br>\\r\\n                                    <div class="form-group">\\r\\n                                    <label for="Sexo"  class="col-sm-2 control-label lineCentral">Sexo: </label>\\r\\n                                        <select class="selectStyle" name="Sexo" >\\r\\n                                            <option value="" disabled selected>Seleccione sexo </option>\\r\\n                                            <option value="">Femenino</option>\\r\\n                                            <option value="">Masculino</option>\\r\\n                                        </select>\\r\\n                                    </div>\\r\\n                                    <br>\\r\\n                                    <div class="form-group">\\r\\n                                    <label for="Estado"  class="col-sm-2 control-label lineCentral">Estado: </label>\\r\\n                                        <select class="selectStyle" name="Estado" >\\r\\n                                            <option value="" disabled selected>Seleccione estado </option>\\r\\n                                            <option value="">Pre-Inscrito</option>\\r\\n                                            <option value="">Seleccionado</option>\\r\\n                                            <option value="">Activo</option>\\r\\n                                            <option value="">Inactivo</option>\\r\\n                                            <option value="">Finalizado</option>\\r\\n                                        </select>\\r\\n                                    </div>\\r\\n                                     <br>\\r\\n                                    <div class="form-group">\\r\\n                                    <div class="row">\\r\\n                                        <label for="promedioEntero" class="col-sm-2 control-label lineCentral">Promedio:</label><br>\\r\\n                                    </div>\\r\\n                                    <div class="row">\\r\\n                                        <div class="col-md-12 col-md-offset-3">\\r\\n                                            <strong class="edad">Nota menor que:</strong>\\r\\n                                            <input type="number" min="0" max="20" step="1" value="0" id="promedioEntero" class="text-right form-control" name="PromedioEntero">\\r\\n                                            <strong> .</strong>\\r\\n                                            <input type="number" min="0" max="99" step="1" value="0" id="promedioDecimal" class="text-right form-control" name="PromedioDecimal">\\r\\n                                        </div>\\r\\n                                        <div class="col-md-6 col-md-offset-3">\\r\\n                                            <br><strong class="edad">  Nota mayor que: </strong>\\r\\n                                            <input type="number" min="0" max="20" step="1" value="0" id="promedioEntero" class="text-right form-control" name="PromedioEntero" >\\r\\n                                            <strong> .</strong>\\r\\n                                            <input type="number" min="0" max="99" step="1" value="0" id="promedioDecimal" class="text-right form-control" name="PromedioDecimal">\\r\\n                                        </div>\\r\\n                                    </div>\\r\\n                                </div>\\r\\n                            </div>\\r\\n                            <br>\\r\\n                           <!-- Button trigger modal -->\\r\\n                            <div class="save text-center"><button type="submit" class="btn btn-primary save"  value="Consultar">Consultar </button>\\r\\n                            </div>\\r\\n                        </form>\\r\\n                    </div>\\r\\n\\r\\n                </div>\\r\\n            </div>\\r\\n        </div>         \\r\\n    </div><!-- container-->\', escape=False)'
p111
sI56
S'response.write(\'\\r\\n <footer class="container-fluid footer">\\r\\n        <div class="row">\\r\\n            <p class="text-center minText">Universidad Sim\\xc3\\xb3n Bolivar<br>Sartenejas, Baruta, Edo. Miranda - Apartado 89000 - Cable Unibolivar - Caracas Venezuela. Tel\\xc3\\xa9fono +58 0212-9063907.<br>\\r\\nDise\\xc3\\xb1ada y desarrollada por Software for the World</p>\\r\\n        </div>\\r\\n    </footer>\\r\\n</body>\\r\\n    <!-- jQuery (necessary for Bootstrap\\\'s JavaScript plugins) -->\\r\\n    <script src="https://ajax.googleapis.com/ajax/libs/jquery/1.12.4/jquery.min.js"></script>\\r\\n    <!-- Include all compiled plugins (below), or include individual files as needed -->\\r\\n    <script src="\', escape=False)'
p112
sI57
S"response.write(URL('static', 'js/bootstrap.min.js'))"
p113
sI58
S'response.write(\'"></script>\\r\\n    <script src="\', escape=False)'
p114
sI59
S"response.write(URL('static', 'js/Admin.js'))"
p115
sI60
S'response.write(\'"></script>\\r\\n    <script src="\', escape=False)'
p116
ssg82
S'()'
p117
sg84
S'<module>'
p118
sa(dp119
g61
S'C:\\Users\\capf9\\Desktop\\University\\web2py_win\\web2py\\gluon\\packages\\dal\\pydal\\objects.py'
p120
sg63
(dp121
S'builtinAttributeError'
p122
S"<type 'exceptions.AttributeError'>"
p123
ssg69
I90
sg70
(dp124
I85
S''
sI86
S'    def __getattr__(self, k):'
p125
sI87
S'        try:'
p126
sI88
S'            return self.__getitem__(k)'
p127
sI89
S'        except KeyError:'
p128
sI90
S'            raise AttributeError'
p129
sI91
S''
sI92
S'    def __copy__(self):'
p130
sI93
S'        return Row(self)'
p131
sI94
S''
ssg82
S"(self=<Row {'status': 'Activa', 'identificador': '2017/2018', 'id': 1L}>, k='nombre')"
p132
sg84
S'__getattr__'
p133
sasS'pyver'
p134
S'Python 2.7.9: C:\\Users\\capf9\\Desktop\\University\\web2py_win\\web2py\\web2py.exe (prefix: )'
p135
sS'session'
p136
g56
(S'sm\t\x00\x00<div><table><tr><td style="font-weight:bold;vertical-align:top;">auth</td><td style="vertical-align:top;">:</td><td><div><table><tr><td style="font-weight:bold;vertical-align:top;">expiration</td><td style="vertical-align:top;">:</td><td><div>3600</div></td></tr><tr><td style="font-weight:bold;vertical-align:top;">hmac_key</td><td style="vertical-align:top;">:</td><td><div>73ee6a78-2940-49b9-8abd-8279f7664082</div></td></tr><tr><td style="font-weight:bold;vertical-align:top;">last_visit</td><td style="vertical-align:top;">:</td><td><div>datetime.datetime(2017, 11, 25, 15, 14, 0, 33000)</div></td></tr><tr><td style="font-weight:bold;vertical-align:top;">remember_me</td><td style="vertical-align:top;">:</td><td><div>False</div></td></tr><tr><td style="font-weight:bold;vertical-align:top;">user</td><td style="vertical-align:top;">:</td><td><div><table><tr><td style="font-weight:bold;vertical-align:top;">email</td><td style="vertical-align:top;">:</td><td><div></div></td></tr><tr><td style="font-weight:bold;vertical-align:top;">first_name</td><td style="vertical-align:top;">:</td><td><div>Carlos</div></td></tr><tr><td style="font-weight:bold;vertical-align:top;">id</td><td style="vertical-align:top;">:</td><td><div>2L</div></td></tr><tr><td style="font-weight:bold;vertical-align:top;">last_name</td><td style="vertical-align:top;">:</td><td><div>Perez</div></td></tr><tr><td style="font-weight:bold;vertical-align:top;">registration_id</td><td style="vertical-align:top;">:</td><td><div></div></td></tr><tr><td style="font-weight:bold;vertical-align:top;">registration_key</td><td style="vertical-align:top;">:</td><td><div></div></td></tr><tr><td style="font-weight:bold;vertical-align:top;">reset_password_key</td><td style="vertical-align:top;">:</td><td><div></div></td></tr><tr><td style="font-weight:bold;vertical-align:top;">username</td><td style="vertical-align:top;">:</td><td><div>25562023</div></td></tr></table></div></td></tr><tr><td style="font-weight:bold;vertical-align:top;">user_groups</td><td style="vertical-align:top;">:</td><td><div><table><tr><td style="font-weight:bold;vertical-align:top;">3</td><td style="vertical-align:top;">:</td><td><div>Representante_liceo</div></td></tr></table></div></td></tr></table></div></td></tr><tr><td style="font-weight:bold;vertical-align:top;">flash</td><td style="vertical-align:top;">:</td><td><div>None</div></td></tr></table></div>'
tRp137
sS'etype'
p138
S"<type 'exceptions.AttributeError'>"
p139
sS'date'
p140
S'Sat Nov 25 15:15:49 2017'
p141
sS'response'
p142
g56
(S's\xc8?\x00\x00<div><table><tr><td style="font-weight:bold;vertical-align:top;">body</td><td style="vertical-align:top;">:</td><td><div>&lt;cStringIO.StringO object at 0x03FDB520&gt;</div></td></tr><tr><td style="font-weight:bold;vertical-align:top;">cookies</td><td style="vertical-align:top;">:</td><td><div><table><tr><td style="font-weight:bold;vertical-align:top;">session_id_sispio</td><td style="vertical-align:top;">:</td><td><div>127.0.0.1-f8321c0d-397c-4545-be11-27afda2b1421<table><tr><td style="font-weight:bold;vertical-align:top;">comment</td><td style="vertical-align:top;">:</td><td><div></div></td></tr><tr><td style="font-weight:bold;vertical-align:top;">domain</td><td style="vertical-align:top;">:</td><td><div></div></td></tr><tr><td style="font-weight:bold;vertical-align:top;">expires</td><td style="vertical-align:top;">:</td><td><div></div></td></tr><tr><td style="font-weight:bold;vertical-align:top;">httponly</td><td style="vertical-align:top;">:</td><td><div></div></td></tr><tr><td style="font-weight:bold;vertical-align:top;">max-age</td><td style="vertical-align:top;">:</td><td><div></div></td></tr><tr><td style="font-weight:bold;vertical-align:top;">path</td><td style="vertical-align:top;">:</td><td><div>/</div></td></tr><tr><td style="font-weight:bold;vertical-align:top;">secure</td><td style="vertical-align:top;">:</td><td><div></div></td></tr><tr><td style="font-weight:bold;vertical-align:top;">version</td><td style="vertical-align:top;">:</td><td><div></div></td></tr></table></div></td></tr></table></div></td></tr><tr><td style="font-weight:bold;vertical-align:top;">delimiters</td><td style="vertical-align:top;">:</td><td><div><table><tr><td><div>{{</div></td></tr><tr><td><div>}}</div></td></tr></table></div></td></tr><tr><td style="font-weight:bold;vertical-align:top;">files</td><td style="vertical-align:top;">:</td><td><div><table></table></div></td></tr><tr><td style="font-weight:bold;vertical-align:top;">flash</td><td style="vertical-align:top;">:</td><td><div></div></td></tr><tr><td style="font-weight:bold;vertical-align:top;">form_label_separator</td><td style="vertical-align:top;">:</td><td><div></div></td></tr><tr><td style="font-weight:bold;vertical-align:top;">formstyle</td><td style="vertical-align:top;">:</td><td><div>bootstrap3_inline</div></td></tr><tr><td style="font-weight:bold;vertical-align:top;">generic_patterns</td><td style="vertical-align:top;">:</td><td><div><table><tr><td><div>*</div></td></tr></table></div></td></tr><tr><td style="font-weight:bold;vertical-align:top;">google_analytics_id</td><td style="vertical-align:top;">:</td><td><div>None</div></td></tr><tr><td style="font-weight:bold;vertical-align:top;">headers</td><td style="vertical-align:top;">:</td><td><div><table><tr><td style="font-weight:bold;vertical-align:top;">X-Powered-By</td><td style="vertical-align:top;">:</td><td><div>web2py</div></td></tr></table></div></td></tr><tr><td style="font-weight:bold;vertical-align:top;">logo</td><td style="vertical-align:top;">:</td><td><div><a class="navbar-brand" href="http://www.web2py.com/" id="web2py-logo"><b>web<span>2</span>py</b>&trade;&nbsp;</a></div></td></tr><tr><td style="font-weight:bold;vertical-align:top;">menu</td><td style="vertical-align:top;">:</td><td><div><table><tr><td><div><table><tr><td><div>Home</div></td></tr><tr><td><div>False</div></td></tr><tr><td><div>/SisPIO/default/index</div></td></tr><tr><td><div><table></table></div></td></tr></table></div></td></tr><tr><td><div><table><tr><td><div>My Sites</div></td></tr><tr><td><div>False</div></td></tr><tr><td><div>/admin/default/site</div></td></tr></table></div></td></tr><tr><td><div><table><tr><td><div>This App</div></td></tr><tr><td><div>False</div></td></tr><tr><td><div>#</div></td></tr><tr><td><div><table><tr><td><div><table><tr><td><div>Design</div></td></tr><tr><td><div>False</div></td></tr><tr><td><div>/admin/default/design/SisPIO</div></td></tr></table></div></td></tr><tr><td><div><li class="divider"></li></div></td></tr><tr><td><div><table><tr><td><div>Controller</div></td></tr><tr><td><div>False</div></td></tr><tr><td><div>/admin/default/edit/SisPIO/controllers/representanteLiceo.py</div></td></tr></table></div></td></tr><tr><td><div><table><tr><td><div>View</div></td></tr><tr><td><div>False</div></td></tr><tr><td><div>/admin/default/edit/SisPIO/views/representanteLiceo/consultar.html</div></td></tr></table></div></td></tr><tr><td><div><table><tr><td><div>DB Model</div></td></tr><tr><td><div>False</div></td></tr><tr><td><div>/admin/default/edit/SisPIO/models/db.py</div></td></tr></table></div></td></tr><tr><td><div><table><tr><td><div>Menu Model</div></td></tr><tr><td><div>False</div></td></tr><tr><td><div>/admin/default/edit/SisPIO/models/menu.py</div></td></tr></table></div></td></tr><tr><td><div><table><tr><td><div>Config.ini</div></td></tr><tr><td><div>False</div></td></tr><tr><td><div>/admin/default/edit/SisPIO/private/appconfig.ini</div></td></tr></table></div></td></tr><tr><td><div><table><tr><td><div>Layout</div></td></tr><tr><td><div>False</div></td></tr><tr><td><div>/admin/default/edit/SisPIO/views/layout.html</div></td></tr></table></div></td></tr><tr><td><div><table><tr><td><div>Stylesheet</div></td></tr><tr><td><div>False</div></td></tr><tr><td><div>/admin/default/edit/SisPIO/static/css/web2py-bootstrap3.css</div></td></tr></table></div></td></tr><tr><td><div><table><tr><td><div>Database</div></td></tr><tr><td><div>False</div></td></tr><tr><td><div>/SisPIO/appadmin/index</div></td></tr></table></div></td></tr><tr><td><div><table><tr><td><div>Errors</div></td></tr><tr><td><div>False</div></td></tr><tr><td><div>/admin/default/errors/SisPIO</div></td></tr></table></div></td></tr><tr><td><div><table><tr><td><div>About</div></td></tr><tr><td><div>False</div></td></tr><tr><td><div>/admin/default/about/SisPIO</div></td></tr></table></div></td></tr></table></div></td></tr></table></div></td></tr><tr><td><div><table><tr><td><div>web2py.com</div></td></tr><tr><td><div>False</div></td></tr><tr><td><div>#</div></td></tr><tr><td><div><table><tr><td><div><table><tr><td><div>Download</div></td></tr><tr><td><div>False</div></td></tr><tr><td><div>http://www.web2py.com/examples/default/download</div></td></tr></table></div></td></tr><tr><td><div><table><tr><td><div>Support</div></td></tr><tr><td><div>False</div></td></tr><tr><td><div>http://www.web2py.com/examples/default/support</div></td></tr></table></div></td></tr><tr><td><div><table><tr><td><div>Demo</div></td></tr><tr><td><div>False</div></td></tr><tr><td><div>http://web2py.com/demo_admin</div></td></tr></table></div></td></tr><tr><td><div><table><tr><td><div>Quick Examples</div></td></tr><tr><td><div>False</div></td></tr><tr><td><div>http://web2py.com/examples/default/examples</div></td></tr></table></div></td></tr><tr><td><div><table><tr><td><div>FAQ</div></td></tr><tr><td><div>False</div></td></tr><tr><td><div>http://web2py.com/AlterEgo</div></td></tr></table></div></td></tr><tr><td><div><table><tr><td><div>Videos</div></td></tr><tr><td><div>False</div></td></tr><tr><td><div>http://www.web2py.com/examples/default/videos/</div></td></tr></table></div></td></tr><tr><td><div><table><tr><td><div>Free Applications</div></td></tr><tr><td><div>False</div></td></tr><tr><td><div>http://web2py.com/appliances</div></td></tr></table></div></td></tr><tr><td><div><table><tr><td><div>Plugins</div></td></tr><tr><td><div>False</div></td></tr><tr><td><div>http://web2py.com/plugins</div></td></tr></table></div></td></tr><tr><td><div><table><tr><td><div>Recipes</div></td></tr><tr><td><div>False</div></td></tr><tr><td><div>http://web2pyslices.com/</div></td></tr></table></div></td></tr></table></div></td></tr></table></div></td></tr><tr><td><div><table><tr><td><div>Documentation</div></td></tr><tr><td><div>False</div></td></tr><tr><td><div>#</div></td></tr><tr><td><div><table><tr><td><div><table><tr><td><div>Online book</div></td></tr><tr><td><div>False</div></td></tr><tr><td><div>http://www.web2py.com/book</div></td></tr></table></div></td></tr><tr><td><div><li class="divider"></li></div></td></tr><tr><td><div><table><tr><td><div>Preface</div></td></tr><tr><td><div>False</div></td></tr><tr><td><div>http://www.web2py.com/book/default/chapter/00</div></td></tr></table></div></td></tr><tr><td><div><table><tr><td><div>Introduction</div></td></tr><tr><td><div>False</div></td></tr><tr><td><div>http://www.web2py.com/book/default/chapter/01</div></td></tr></table></div></td></tr><tr><td><div><table><tr><td><div>Python</div></td></tr><tr><td><div>False</div></td></tr><tr><td><div>http://www.web2py.com/book/default/chapter/02</div></td></tr></table></div></td></tr><tr><td><div><table><tr><td><div>Overview</div></td></tr><tr><td><div>False</div></td></tr><tr><td><div>http://www.web2py.com/book/default/chapter/03</div></td></tr></table></div></td></tr><tr><td><div><table><tr><td><div>The Core</div></td></tr><tr><td><div>False</div></td></tr><tr><td><div>http://www.web2py.com/book/default/chapter/04</div></td></tr></table></div></td></tr><tr><td><div><table><tr><td><div>The Views</div></td></tr><tr><td><div>False</div></td></tr><tr><td><div>http://www.web2py.com/book/default/chapter/05</div></td></tr></table></div></td></tr><tr><td><div><table><tr><td><div>Database</div></td></tr><tr><td><div>False</div></td></tr><tr><td><div>http://www.web2py.com/book/default/chapter/06</div></td></tr></table></div></td></tr><tr><td><div><table><tr><td><div>Forms and Validators</div></td></tr><tr><td><div>False</div></td></tr><tr><td><div>http://www.web2py.com/book/default/chapter/07</div></td></tr></table></div></td></tr><tr><td><div><table><tr><td><div>Email and SMS</div></td></tr><tr><td><div>False</div></td></tr><tr><td><div>http://www.web2py.com/book/default/chapter/08</div></td></tr></table></div></td></tr><tr><td><div><table><tr><td><div>Access Control</div></td></tr><tr><td><div>False</div></td></tr><tr><td><div>http://www.web2py.com/book/default/chapter/09</div></td></tr></table></div></td></tr><tr><td><div><table><tr><td><div>Services</div></td></tr><tr><td><div>False</div></td></tr><tr><td><div>http://www.web2py.com/book/default/chapter/10</div></td></tr></table></div></td></tr><tr><td><div><table><tr><td><div>Ajax Recipes</div></td></tr><tr><td><div>False</div></td></tr><tr><td><div>http://www.web2py.com/book/default/chapter/11</div></td></tr></table></div></td></tr><tr><td><div><table><tr><td><div>Components and Plugins</div></td></tr><tr><td><div>False</div></td></tr><tr><td><div>http://www.web2py.com/book/default/chapter/12</div></td></tr></table></div></td></tr><tr><td><div><table><tr><td><div>Deployment Recipes</div></td></tr><tr><td><div>False</div></td></tr><tr><td><div>http://www.web2py.com/book/default/chapter/13</div></td></tr></table></div></td></tr><tr><td><div><table><tr><td><div>Other Recipes</div></td></tr><tr><td><div>False</div></td></tr><tr><td><div>http://www.web2py.com/book/default/chapter/14</div></td></tr></table></div></td></tr><tr><td><div><table><tr><td><div>Helping web2py</div></td></tr><tr><td><div>False</div></td></tr><tr><td><div>http://www.web2py.com/book/default/chapter/15</div></td></tr></table></div></td></tr><tr><td><div><table><tr><td><div>Buy web2py\'s book</div></td></tr><tr><td><div>False</div></td></tr><tr><td><div>http://stores.lulu.com/web2py</div></td></tr></table></div></td></tr></table></div></td></tr></table></div></td></tr><tr><td><div><table><tr><td><div>Community</div></td></tr><tr><td><div>False</div></td></tr><tr><td><div>None</div></td></tr><tr><td><div><table><tr><td><div><table><tr><td><div>Groups</div></td></tr><tr><td><div>False</div></td></tr><tr><td><div>http://www.web2py.com/examples/default/usergroups</div></td></tr></table></div></td></tr><tr><td><div><table><tr><td><div>Twitter</div></td></tr><tr><td><div>False</div></td></tr><tr><td><div>http://twitter.com/web2py</div></td></tr></table></div></td></tr><tr><td><div><table><tr><td><div>Live Chat</div></td></tr><tr><td><div>False</div></td></tr><tr><td><div>http://webchat.freenode.net/?channels=web2py</div></td></tr></table></div></td></tr></table></div></td></tr></table></div></td></tr></table></div></td></tr><tr><td style="font-weight:bold;vertical-align:top;">meta</td><td style="vertical-align:top;">:</td><td><div><table><tr><td style="font-weight:bold;vertical-align:top;">author</td><td style="vertical-align:top;">:</td><td><div>Your Name &lt;you@example.com&gt;</div></td></tr><tr><td style="font-weight:bold;vertical-align:top;">description</td><td style="vertical-align:top;">:</td><td><div>a cool new app</div></td></tr><tr><td style="font-weight:bold;vertical-align:top;">generator</td><td style="vertical-align:top;">:</td><td><div>Web2py Web Framework</div></td></tr><tr><td style="font-weight:bold;vertical-align:top;">keywords</td><td style="vertical-align:top;">:</td><td><div><table><tr><td><div>web2py</div></td></tr><tr><td><div>python</div></td></tr><tr><td><div>framework</div></td></tr></table></div></td></tr></table></div></td></tr><tr><td style="font-weight:bold;vertical-align:top;">models_to_run</td><td style="vertical-align:top;">:</td><td><div><table><tr><td><div>^\\w+\\.py$</div></td></tr><tr><td><div>^representanteLiceo/\\w+\\.py$</div></td></tr><tr><td><div>^representanteLiceo/consultar/\\w+\\.py$</div></td></tr></table></div></td></tr><tr><td style="font-weight:bold;vertical-align:top;">postprocessing</td><td style="vertical-align:top;">:</td><td><div><table></table></div></td></tr><tr><td style="font-weight:bold;vertical-align:top;">session_client</td><td style="vertical-align:top;">:</td><td><div>127.0.0.1</div></td></tr><tr><td style="font-weight:bold;vertical-align:top;">session_cookie_compression_level</td><td style="vertical-align:top;">:</td><td><div>None</div></td></tr><tr><td style="font-weight:bold;vertical-align:top;">session_cookie_expires</td><td style="vertical-align:top;">:</td><td><div>None</div></td></tr><tr><td style="font-weight:bold;vertical-align:top;">session_data_name</td><td style="vertical-align:top;">:</td><td><div>session_data_sispio</div></td></tr><tr><td style="font-weight:bold;vertical-align:top;">session_file</td><td style="vertical-align:top;">:</td><td><div>&lt;open file &#x27;C:\\\\Users\\\\capf9\\\\Desktop\\\\University\\\\web2py_win\\\\web2py\\\\applications\\\\SisPIO\\\\sessions\\\\08c\\\\185\\\\127.0.0.1-f8321c0d-397c-4545-be11-27afda2b1421&#x27;, mode &#x27;rb+&#x27; at 0x043DD860&gt;</div></td></tr><tr><td style="font-weight:bold;vertical-align:top;">session_filename</td><td style="vertical-align:top;">:</td><td><div>C:\\Users\\capf9\\Desktop\\University\\web2py_win\\web2py\\applications\\SisPIO\\sessions\\127.0.0.1-f8321c0d-397c-4545-be11-27afda2b1421</div></td></tr><tr><td style="font-weight:bold;vertical-align:top;">session_hash</td><td style="vertical-align:top;">:</td><td><div>0be99a2874811689c12fedeb174e9dfc</div></td></tr><tr><td style="font-weight:bold;vertical-align:top;">session_id</td><td style="vertical-align:top;">:</td><td><div>127.0.0.1-f8321c0d-397c-4545-be11-27afda2b1421</div></td></tr><tr><td style="font-weight:bold;vertical-align:top;">session_id_name</td><td style="vertical-align:top;">:</td><td><div>session_id_sispio</div></td></tr><tr><td style="font-weight:bold;vertical-align:top;">session_locked</td><td style="vertical-align:top;">:</td><td><div>True</div></td></tr><tr><td style="font-weight:bold;vertical-align:top;">session_masterapp</td><td style="vertical-align:top;">:</td><td><div>SisPIO</div></td></tr><tr><td style="font-weight:bold;vertical-align:top;">session_new</td><td style="vertical-align:top;">:</td><td><div>False</div></td></tr><tr><td style="font-weight:bold;vertical-align:top;">session_storage_type</td><td style="vertical-align:top;">:</td><td><div>file</div></td></tr><tr><td style="font-weight:bold;vertical-align:top;">status</td><td style="vertical-align:top;">:</td><td><div>200</div></td></tr><tr><td style="font-weight:bold;vertical-align:top;">subtitle</td><td style="vertical-align:top;">:</td><td><div></div></td></tr><tr><td style="font-weight:bold;vertical-align:top;">title</td><td style="vertical-align:top;">:</td><td><div>Sispio</div></td></tr><tr><td style="font-weight:bold;vertical-align:top;">view</td><td style="vertical-align:top;">:</td><td><div>representanteLiceo/consultar.html</div></td></tr></table></div>'
tRp143
sS'locals'
p144
(dp145
S'k'
S"'nombre'"
p146
sS'self'
p147
S"<Row {'status': 'Activa', 'identificador': '2017/2018', 'id': 1L}>"
p148
sssS'traceback'
p149
S'Traceback (most recent call last):\n  File "C:\\Users\\capf9\\Desktop\\University\\web2py_win\\web2py\\gluon\\restricted.py", line 227, in restricted\n    exec ccode in environment\n  File "C:\\Users\\capf9\\Desktop\\University\\web2py_win\\web2py\\applications\\SisPIO\\views\\representanteLiceo/consultar.html", line 50, in <module>\n    <option value="" disabled selected>Seleccione estado </option>\n  File "C:\\Users\\capf9\\Desktop\\University\\web2py_win\\web2py\\gluon\\packages\\dal\\pydal\\objects.py", line 90, in __getattr__\n    raise AttributeError\nAttributeError\n'
p150
s.