(dp1
S'output'
p2
S"<type 'exceptions.NameError'> name 'usuario' is not defined"
p3
sS'layer'
p4
S'/home/aabv/Documentos/Web2py/web2py/applications/SisPIOSinConsultaV2/views/default/welcome.html'
p5
sS'code'
p6
S'response.write(\'<!DOCTYPE html>\\n<html lang="es">\\n\\n<head>\\n    <meta charset="utf-8">\\n    <meta http-equiv="X-UA-Compatible" content="IE=edge">\\n    <meta name="viewport" content="width=device-width, initial-scale=1">\\n    <!-- The above 3 meta tags *must* come first in the head; any other head content must come *after* these tags. Will make it responsive-->\\n    <title>Sistema PIO</title>\\n    <link rel="shortcut icon" href="\', escape=False)\nresponse.write(URL(\'static\', \'images/logoUSB.png\'))\nresponse.write(\'" />\\n     <!-- Bootstrap -->\\n    <link href="\', escape=False)\nresponse.write(URL(\'static\', \'css/bootstrap.min.css\'))\nresponse.write(\'" rel="stylesheet">\\n    <link href="\', escape=False)\nresponse.write(URL(\'static\', \'css/bootstrap-theme.min.css\'))\nresponse.write(\'" rel="stylesheet">\\n    <link href="\', escape=False)\nresponse.write(URL(\'static\', \'css/index.css\'))\nresponse.write(\'" rel="stylesheet">\\n\\n    <!-- HTML5 shim and Respond.js for IE8 support of HTML5 elements and media queries -->\\n    <!-- WARNING: Respond.js doesn\\\'t work if you view the page via file:// -->\\n    <!--[if lt IE 9]>\\n      <script src="https://oss.maxcdn.com/html5shiv/3.7.3/html5shiv.min.js"></script>\\n      <script src="https://oss.maxcdn.com/respond/1.4.2/respond.min.js"></script>\\n    <![endif]-->\\n</head>\\n<div class="container">\\n        <div class="row">\\n            <!--HEADER --> \\n            <div class="col-sm-12">\\n                <img id="Logo" class="img-responsive" src="\', escape=False)\nresponse.write(URL(\'static\', \'images/bar7.png\'))\nresponse.write(\'" >\\n            </div>\\n            \\n             <!--Navbar -->\\n            <div class=" col-sm-12">\\n                \\n                <nav class="navbar navbar-default inicioSesion">\\n                  <div class="container-fluid">\\n                    <!-- Brand and toggle get grouped for better mobile display -->\\n                    <div class="navbar-header">\\n                      <button type="button" class="navbar-toggle collapsed" data-toggle="collapse" data-target="#bs-example-navbar-collapse-1" aria-expanded="false">\\n                        <span class="sr-only">Toggle navigation</span>\\n                        <span class="icon-bar"></span>\\n                        <span class="icon-bar"></span>\\n                        <span class="icon-bar"></span>\\n                      </button>\\n                    </div>\\n\\n                    <!-- Collect the nav links, forms, and other content for toggling -->\\n                    <div class="collapse navbar-collapse" id="bs-example-navbar-collapse-1">\\n                      <ul class="nav navbar-nav navbar-right">\\n                          <li class="dropdown">\\n                              <a href="#" class="dropdown-toggle" data-toggle="dropdown" role="button" aria-haspopup="true" aria-expanded="false">Nombre de usuario <span class="caret"></span></a>\\n                              <ul class="dropdown-menu">\\n                                    <li id="userinfo"><a href="#"><span class="glyphicon glyphicon-user "></span> Mi perfil </a></li>\\n                                    <li id="enviar"><a href="#"><span class="glyphicon glyphicon-envelope"></span> Contactanos</a></li>\\n                                    <li role="separator" class="divider"></li>\\n                                    <li><a href="\', escape=False)\nresponse.write(URL(\'default\', \'user\', args=\'logout\'))\nresponse.write(\'"><span class="glyphicon glyphicon-log-out"></span> Salir </a></li>\\n                              </ul>\\n                          </li>\\n                        </ul>\\n                    </div><!-- /.navbar-collapse -->\\n                  </div><!-- /.container-fluid -->\\n                </nav>\\n            </div><!--col12-->\\n        </div><!--row-->\\n            \\n    </div><!--container-->\\n<body>\\n    <div  class="container">\\n            <!-- Information-->\\n            <div id="inicio" class="row" >\\n              <div class="col-md-12">\\n               \\n                    <h3> Menu </h3>\\n                    <ul id="navbar" class="nav nav-pills nav-stacked col-md-3">\\n                      <li role="presentation" class="active">\\n                            <a  id="principal" href="#informacion" aria-controls="informacion" data-toggle="tab">Inicio</a></li>\\n                      <li role="presentation">\\n                            <a id="perfil" href="#miPerfil" role="tab" aria-controls="miPerfil" data-toggle="tab">Mi Perfil</a></li>\\n                      <li role="presentation" >\\n                            <a id="test" href="#testVocacional" role="tab" aria-controls="testVocacional" data-toggle="tab">Test vocacional</a></li>\\n                      <li role="presentation" >\\n                            <a id="contacto"  href="#enviarEmail" role="tab" aria-controls="enviarEmail" data-toggle="tab">Contactanos</a></li>\\n                      <li role="presentation" >\\n                            <a id="pass" href="#cambioContra" role="tab" aria-controls="cambioContra" data-toggle="tab">Cambiar contrase\\xc3\\xb1a</a></li>\\n                     <li role="presentation"><a id="logOut" href="\', escape=False)\nresponse.write(URL(\'default\', \'user\', args=\'logout\'))\nresponse.write(\'">Salir</a></li>\\n                    </ul>\\n                \\n                <div class="tab-content col-md-9">\\n                    <!-- INICIO -->\\n                    <div class="tab-pane active" id="information">\\n                         <h1> Bienvenido al PIO </h1>\\n                        <br><br><br>\\n                        <div>\\n                            <h1 class="datos1">Nombre de usuario  </h1>\\n                            <h1 class="datos1"><a id="Editar" href="#"><span class="glyphicon glyphicon-edit green-icn"></span></a></h1>\\n                            <p class="datos">\\n                                <b>Nombre completo: </b> \', escape=False)\nresponse.write(usuario)\nresponse.write(\'\\n                                <br>\\n                                <b>Cedula de identidad: </b> 1234567<br>\\n                                <b>Correo electronico: </b> fulanito@uncorreo.com <br>\\n                                <b>Telefono:</b>  (0123) 25689632\\n                                <br>\\n                            </p>\\n                        </div>\\n                    </div>\\n                    <!-- MI PERFIL -->\\n                    <div class="tab-pane " id="miPerfil">\\n                     <form method="get" >\\n                        <fieldset>\\n                            <legend>Datos personales</legend>\\n                        <!-- Person ID -->\\n                            <label for="cedula">Cedula de identidad: </label>\\n                            <input type="text" id="cedula" name="ID" placeholder="Cedula de identidad" readonly="readonly"> <br>\\n                        <!-- Person name -->\\n                            <label for="name">Nombres: </label>\\n                            <input type="text" id="nombre" name="Nombre" placeholder="Primer y segundo nombre" required readonly="readonly"> <br>\\n                        <!-- Person last name -->\\n                            <label for="apellido">Apellidos: </label>\\n                            <input type="text" id="apellido" name="Apellido" placeholder="Primer y segundo apellido" readonly="readonly"> <br>\\n                        \\n                        <!-- Person gender -->\\n                            <label for="gender">Genero: </label>\\n                            <input type="radio" class="gender" name="gender" value="female">Femenino \\n                            <input type="radio" class="gender" name="gender" value="male" checked>Masculino <br>\\n                        <!-- Person age-->\\n                            <label for="age">Edad:</label>\\n                            <input type="number" min="0" max="150" step="1" value="18" id="age" name="age" required><br>\\n                        <!-- Person Birth-->\\n                            <label for="birthday">Fecha de nacimiento:</label>\\n                            <input type="date" id="birthday" name="birthday" required><br>\\n                        <!-- Person average-->\\n                            <label for="promedioEntero">Promedio:</label>\\n                            <input type="number" min="0" max="2" step="1" value="0" id="promedioEntero" class="text-right" name="PromedioEntero" readonly="readonly">\\n                            <strong> .</strong>\\n                            <input type="number" min="0" max="2" step="1" value="0" id="promedioDecimal" class="text-right" name="PromedioDecimal" readonly="readonly">\\n                            \\n                            <br>\\n                        <!-- Person country -->\\n                            <label for="country" >Liceo de procedencia: </label>\\n                            <select class="select-style" name="cities" >\\n                                <option value="ccs" disable >Seleccione uno</option>\\n                                <option value="ccs">Programa de Cadena 2017</option>\\n                            </select>\\n                        </fieldset> <br>\\n                        <fieldset>\\n                            <legend>Informacion de contacto</legend>\\n                        <!--Person email -->\\n                            <label for="email">Email: </label>\\n                            <input type="email" id="email" name="Email" placeholder="Correo electronico" required><br>\\n                        <!-- Person mobile -->\\n                            <label for="mobile">Telefono principal: </label>\\n                            <input type="tel" id="mobile" name="Mobile" placeholder="Telefono principal" require max="11">\\n                            <br>\\n                        <!-- Person mobile -->\\n                            <label for="secundario">Telefono secundario: </label>\\n                            <input type="tel" id="secundario" name="Mobile2" placeholder="Telefono secundario" require max="11">\\n                            <br>\\n                        <!-- Person address-->\\n                            <label class="dir" for="direccion">Direccion:</label>\\n                            <div class="textarea1"><textarea id="direccion" > </textarea> </div>\\n                            <br>\\n                        </fieldset> <br>\\n                        \\n                        <div class="save text-center"><input type="submit" class="btn btn-primary save" value="Guardar"></div>\\n                      </form>\\n                     </div><!--miperfil tab-->\\n                    \\n\\n                    <!-- TEST vocacional -->\\n                    <div id="testVocacional" class="tab-pane ">\\n                        <h1>Test vocacional</h1><br><br>\\n                        <p>Por favor elija tres carreras de su preferencia</p>\\n                    <form method="get">\\n                        <!-- Primera opcion -->\\n                        <label for="carrera" >Primera opcion </label>\\n                            <select class="select-style" name="carrera" required>\\n                                <option value="" inactive >Seleccione uno</option>\\n                                <option value="">Ingenieria</option>\\n                            </select>\\n                        <br><br>\\n                        <!-- Segunda opcion -->\\n                        <label for="carrera" >Segunda opcion </label>\\n                            <select class="select-style" name="carrera" required >\\n                                <option value="" inactive >Seleccione uno</option>\\n                                <option value="">Ingenieria</option>\\n                            </select>\\n                        <br><br>\\n                        <!-- Tercera opcion -->\\n                        <label for="carrera" >Tercera opcion </label>\\n                            <select class="select-style" name="carrera" required >\\n                                <option value="" inactive >Seleccione uno</option>\\n                                <option value="">Ingenieria</option>\\n                            </select>\\n                        <br><br>\\n                        <div class="save text-center"><input type="submit" class="btn btn-primary save" value="Enviar"></div>\\n                        </form>\\n                    </div>\\n                    <!-- Contactanos -->\\n                    <div id="enviarEmail" class="tab-pane ">\\n                        <h1>Contactanos </h1>\\n                        <form role="form" method="post" >\\n                            <div class="form-group">\\n                                <br><br>\\n                                <label for="name" class="col-sm-2 control-label">Asunto</label>\\n                                <br><br>\\n                                <div class="col-sm-10">\\n                                    <input type="text" class="form-control" id="asunto" name="asunto" placeholder="Asunto" value="" required>\\n                                </div>\\n                            </div>\\n                            <div class="form-group">\\n                                <br><br>\\n                                <label for="name" class="col-sm-2 control-label">Correo</label>\\n                                <br><br>\\n                                <div class="col-sm-10">\\n                                    <input type="email" class="form-control" id="correo" name="correo" placeholder="Correo" value="" required>\\n                                </div>\\n                            </div>\\n                            <div class="form-group">\\n                                <br><br>\\n                                <label for="message" class="col-sm-2 control-label">Mensaje</label><br><br>\\n                                <div class="col-sm-10">\\n                                    <textarea class="form-control" rows="4" name="message" required></textarea>\\n                                </div>\\n                            </div>\\n                            \\n                            <div class="form-group">\\n                                <div class="col-sm-10 col-sm-offset-2">\\n                                    <br><br><div class="send">\\n                                    <input id="submit" name="submit" type="submit" value="Enviar" class="btn btn-primary"></div>\\n                                    <br><br>\\n                                    <br>\\n                                </div>\\n                            </div>\\n                        </form>\\n                    </div>\\n                    <!-- Contrase\\xc3\\xb1a -->\\n                    <div id="cambioContra" class="tab-pane">\\n                        <h1>Cambiar contrase\\xc3\\xb1a</h1><br><br>\\n                    <form method="get">\\n                       <!-- Contrase;a actual -->\\n                            <label for="contrase\\xc3\\xb1a">Contrase\\xc3\\xb1a actual: </label>\\n                            <input type="password" id="contrasena" name="contrase\\xc3\\xb1a" placeholder="Contrase\\xc3\\xb1a actual" required> <br>\\n                        <!-- Contrase;a nueva -->\\n                            <label for="contrase\\xc3\\xb1a">Contrase\\xc3\\xb1a nueva: </label>\\n                            <input type="password" id="password" name="contrase\\xc3\\xb1a" placeholder="Contrase\\xc3\\xb1a nueva" required> <br>\\n                        <!-- Contrase;a nueva -->\\n                            <label for="contrase\\xc3\\xb1a">Confirmar contrase\\xc3\\xb1a: </label>\\n                            <input type="password" id="confirm_password" name="contrase\\xc3\\xb1a" placeholder="Contrase\\xc3\\xb1a nueva" required> <br><br>\\n                        <div class="save text-center"><input type="submit" class="btn btn-primary save" value="Guardar"></div>\\n                        </form>\\n                    </div>\\n                    \\n                </div><!--tab -->\\n              </div>\\n                \\n            </div><!-- row -->\\n            \\n            \\n        </div><!-- col md 10-->\\n    </div><!-- container-->\\n   \\n\\n    <footer class="container-fluid footer">\\n        <div class="row">\\n            <p class="text-center minText">Universidad Simon Bolivar<br>Sartenejas, Baruta, Edo. Miranda - Apartado 89000 - Cable Unibolivar - Caracas Venezuela. Tel\\xc3\\xa9fono +58 0212-9063111.<br>\\nDise\\xc3\\xb1ada y desarrollada por Software for the World</p>\\n        </div>\\n    </footer>\\n    \\n    <!-- jQuery (necessary for Bootstrap\\\'s JavaScript plugins) -->\\n    <script src="https://ajax.googleapis.com/ajax/libs/jquery/1.12.4/jquery.min.js"></script>    <!-- Include all compiled plugins (below), or include individual files as needed -->\\n\\n    <script src="\', escape=False)\nresponse.write(URL(\'static\', \'js/bootstrap.min.js\'))\nresponse.write(\'"></script>\\n    <script src="\', escape=False)\nresponse.write(URL(\'static\', \'js/pioLink.js\'))\nresponse.write(\'"></script>\\n    <script >\\n    \\t/**** WELCOME ESTUDIANTE ******/\\n\\n    $(".glyphicon, #userinfo" ).click(function(){\\n        $("#information").hide();\\n        $("#enviarEmail").hide();\\n        $("#testVocacional").hide();\\n        $("#cambioContra").hide();\\n        $("#miPerfil").show();\\n        $(".nav").find(".active").removeClass("active");\\n        $("#perfil").parent().addClass("active");\\n    });\\n   /*Para el welcome.html estudiante*/\\n    $("#principal").click(function(){\\n        $("#information").show();\\n        $("#enviarEmail").hide();\\n        $("#cambioContra").hide();\\n        $("#testVocacional").hide();\\n        $("#miPerfil").hide();\\n    });\\n    /*Registro datos estudiantes*/\\n    $("#perfil").click(function(){\\n        $("#information").hide();\\n        $("#enviarEmail").hide();\\n        $("#cambioContra").hide();\\n        $("#testVocacional").hide();\\n        $("#miPerfil").show();\\n    });\\n    /*Prueba vocacional*/\\n    $("#test").click(function(){\\n        $("#information").hide();\\n        $("#enviarEmail").hide();\\n        $("#cambioContra").hide();\\n        $("#testVocacional").show();\\n        $("#miPerfil").hide();\\n    });\\n    /*Cambio de contrase;a*/\\n     $("#pass").click(function(){\\n        $("#information").hide();\\n        $("#enviarEmail").hide();\\n        $("#cambioContra").show();\\n        $("#testVocacional").hide();\\n        $("#miPerfil").hide();\\n    });\\n     /*enviar email*/\\n    $("#contacto, #enviar").click(function(){\\n        $("#information").hide();\\n        $("#enviarEmail").show();\\n        $("#testVocacional").hide();\\n        $("#cambioContra").hide();\\n        $("#miPerfil").hide();\\n        $(".nav").find(".active").removeClass("active");\\n        $("#contacto").parent().addClass("active");\\n    });\\n    \\t\\n    </script>\\n   \\n</body>\\n</html>\\n\', escape=False)'
p7
sS'snapshot'
p8
(dp9
S'exception'
p10
(dp11
S'__hash__'
p12
S"<method-wrapper '__hash__' of exceptions.NameError object>"
p13
sS'__setattr__'
p14
S"<method-wrapper '__setattr__' of exceptions.NameError object>"
p15
sS'__reduce_ex__'
p16
S'<built-in method __reduce_ex__ of exceptions.NameError object>'
p17
sS'__getslice__'
p18
S"<method-wrapper '__getslice__' of exceptions.NameError object>"
p19
sS'__getitem__'
p20
S"<method-wrapper '__getitem__' of exceptions.NameError object>"
p21
sS'__setstate__'
p22
S'<built-in method __setstate__ of exceptions.NameError object>'
p23
sS'args'
p24
S'("name \'usuario\' is not defined",)'
p25
sS'__reduce__'
p26
S'<built-in method __reduce__ of exceptions.NameError object>'
p27
sS'__str__'
p28
S"<method-wrapper '__str__' of exceptions.NameError object>"
p29
sS'__format__'
p30
S'<built-in method __format__ of exceptions.NameError object>'
p31
sS'__getattribute__'
p32
S"<method-wrapper '__getattribute__' of exceptions.NameError object>"
p33
sS'__class__'
p34
S"<type 'exceptions.NameError'>"
p35
sS'__unicode__'
p36
S'<built-in method __unicode__ of exceptions.NameError object>'
p37
sS'__delattr__'
p38
S"<method-wrapper '__delattr__' of exceptions.NameError object>"
p39
sS'__subclasshook__'
p40
S'<built-in method __subclasshook__ of type object>'
p41
sS'__repr__'
p42
S"<method-wrapper '__repr__' of exceptions.NameError object>"
p43
sS'__dict__'
p44
S'{}'
p45
sS'__sizeof__'
p46
S'<built-in method __sizeof__ of exceptions.NameError object>'
p47
sS'__doc__'
p48
S"'Name not found globally.'"
p49
sS'__init__'
p50
S"<method-wrapper '__init__' of exceptions.NameError object>"
p51
sS'__new__'
p52
S'<built-in method __new__ of type object>'
p53
ssS'evalue'
p54
S"name 'usuario' is not defined"
p55
sS'request'
p56
cgluon.html
XML_unpickle
p57
(S's\x97\\\x00\x00<div><table><tr><td style="font-weight:bold;vertical-align:top;">ajax</td><td style="vertical-align:top;">:</td><td><div>False</div></td></tr><tr><td style="font-weight:bold;vertical-align:top;">application</td><td style="vertical-align:top;">:</td><td><div>SisPIOSinConsultaV2</div></td></tr><tr><td style="font-weight:bold;vertical-align:top;">args</td><td style="vertical-align:top;">:</td><td><div><table></table></div></td></tr><tr><td style="font-weight:bold;vertical-align:top;">cid</td><td style="vertical-align:top;">:</td><td><div>None</div></td></tr><tr><td style="font-weight:bold;vertical-align:top;">client</td><td style="vertical-align:top;">:</td><td><div>127.0.0.1</div></td></tr><tr><td style="font-weight:bold;vertical-align:top;">controller</td><td style="vertical-align:top;">:</td><td><div>default</div></td></tr><tr><td style="font-weight:bold;vertical-align:top;">cookies</td><td style="vertical-align:top;">:</td><td><div><table><tr><td style="font-weight:bold;vertical-align:top;">session_id_admin</td><td style="vertical-align:top;">:</td><td><div>127.0.0.1-b3e89a94-2be6-40d5-9afe-a850eb4aecd1<table><tr><td style="font-weight:bold;vertical-align:top;">comment</td><td style="vertical-align:top;">:</td><td><div></div></td></tr><tr><td style="font-weight:bold;vertical-align:top;">domain</td><td style="vertical-align:top;">:</td><td><div></div></td></tr><tr><td style="font-weight:bold;vertical-align:top;">expires</td><td style="vertical-align:top;">:</td><td><div></div></td></tr><tr><td style="font-weight:bold;vertical-align:top;">httponly</td><td style="vertical-align:top;">:</td><td><div></div></td></tr><tr><td style="font-weight:bold;vertical-align:top;">max-age</td><td style="vertical-align:top;">:</td><td><div></div></td></tr><tr><td style="font-weight:bold;vertical-align:top;">path</td><td style="vertical-align:top;">:</td><td><div></div></td></tr><tr><td style="font-weight:bold;vertical-align:top;">secure</td><td style="vertical-align:top;">:</td><td><div></div></td></tr><tr><td style="font-weight:bold;vertical-align:top;">version</td><td style="vertical-align:top;">:</td><td><div></div></td></tr></table></div></td></tr><tr><td style="font-weight:bold;vertical-align:top;">session_id_sispiosinconsultav2</td><td style="vertical-align:top;">:</td><td><div>127.0.0.1-4ba9e9a8-dcc3-446d-a49e-3a97541a998b<table><tr><td style="font-weight:bold;vertical-align:top;">comment</td><td style="vertical-align:top;">:</td><td><div></div></td></tr><tr><td style="font-weight:bold;vertical-align:top;">domain</td><td style="vertical-align:top;">:</td><td><div></div></td></tr><tr><td style="font-weight:bold;vertical-align:top;">expires</td><td style="vertical-align:top;">:</td><td><div></div></td></tr><tr><td style="font-weight:bold;vertical-align:top;">httponly</td><td style="vertical-align:top;">:</td><td><div></div></td></tr><tr><td style="font-weight:bold;vertical-align:top;">max-age</td><td style="vertical-align:top;">:</td><td><div></div></td></tr><tr><td style="font-weight:bold;vertical-align:top;">path</td><td style="vertical-align:top;">:</td><td><div></div></td></tr><tr><td style="font-weight:bold;vertical-align:top;">secure</td><td style="vertical-align:top;">:</td><td><div></div></td></tr><tr><td style="font-weight:bold;vertical-align:top;">version</td><td style="vertical-align:top;">:</td><td><div></div></td></tr></table></div></td></tr><tr><td style="font-weight:bold;vertical-align:top;">session_id_welcome</td><td style="vertical-align:top;">:</td><td><div>127.0.0.1-88d67060-1a64-4653-9f01-96edaa4e02a7<table><tr><td style="font-weight:bold;vertical-align:top;">comment</td><td style="vertical-align:top;">:</td><td><div></div></td></tr><tr><td style="font-weight:bold;vertical-align:top;">domain</td><td style="vertical-align:top;">:</td><td><div></div></td></tr><tr><td style="font-weight:bold;vertical-align:top;">expires</td><td style="vertical-align:top;">:</td><td><div></div></td></tr><tr><td style="font-weight:bold;vertical-align:top;">httponly</td><td style="vertical-align:top;">:</td><td><div></div></td></tr><tr><td style="font-weight:bold;vertical-align:top;">max-age</td><td style="vertical-align:top;">:</td><td><div></div></td></tr><tr><td style="font-weight:bold;vertical-align:top;">path</td><td style="vertical-align:top;">:</td><td><div></div></td></tr><tr><td style="font-weight:bold;vertical-align:top;">secure</td><td style="vertical-align:top;">:</td><td><div></div></td></tr><tr><td style="font-weight:bold;vertical-align:top;">version</td><td style="vertical-align:top;">:</td><td><div></div></td></tr></table></div></td></tr></table></div></td></tr><tr><td style="font-weight:bold;vertical-align:top;">env</td><td style="vertical-align:top;">:</td><td><div><table><tr><td style="font-weight:bold;vertical-align:top;">HTTP_ACCEPT</td><td style="vertical-align:top;">:</td><td><div>text/html,application/xhtml+xml,application/xml;q=0.9,*/*;q=0.8</div></td></tr><tr><td style="font-weight:bold;vertical-align:top;">HTTP_ACCEPT_ENCODING</td><td style="vertical-align:top;">:</td><td><div>gzip, deflate</div></td></tr><tr><td style="font-weight:bold;vertical-align:top;">HTTP_ACCEPT_LANGUAGE</td><td style="vertical-align:top;">:</td><td><div>es-ES,es;q=0.8,en-US;q=0.5,en;q=0.3</div></td></tr><tr><td style="font-weight:bold;vertical-align:top;">HTTP_CONNECTION</td><td style="vertical-align:top;">:</td><td><div>keep-alive</div></td></tr><tr><td style="font-weight:bold;vertical-align:top;">HTTP_COOKIE</td><td style="vertical-align:top;">:</td><td><div>session_id_welcome=127.0.0.1-88d67060-1a64-4653-9f01-96edaa4e02a7; session_id_admin=127.0.0.1-b3e89a94-2be6-40d5-9afe-a850eb4aecd1; session_id_sispiosinconsultav2=127.0.0.1-4ba9e9a8-dcc3-446d-a49e-3a97541a998b</div></td></tr><tr><td style="font-weight:bold;vertical-align:top;">HTTP_HOST</td><td style="vertical-align:top;">:</td><td><div>127.0.0.1:8000</div></td></tr><tr><td style="font-weight:bold;vertical-align:top;">HTTP_REFERER</td><td style="vertical-align:top;">:</td><td><div>http://127.0.0.1:8000/SisPIOSinConsultaV2/default/index</div></td></tr><tr><td style="font-weight:bold;vertical-align:top;">HTTP_UPGRADE_INSECURE_REQUESTS</td><td style="vertical-align:top;">:</td><td><div>1</div></td></tr><tr><td style="font-weight:bold;vertical-align:top;">HTTP_USER_AGENT</td><td style="vertical-align:top;">:</td><td><div>Mozilla/5.0 (X11; Ubuntu; Linux x86_64; rv:56.0) Gecko/20100101 Firefox/56.0</div></td></tr><tr><td style="font-weight:bold;vertical-align:top;">PATH_INFO</td><td style="vertical-align:top;">:</td><td><div>/SisPIOSinConsultaV2/default/welcome</div></td></tr><tr><td style="font-weight:bold;vertical-align:top;">QUERY_STRING</td><td style="vertical-align:top;">:</td><td><div></div></td></tr><tr><td style="font-weight:bold;vertical-align:top;">REMOTE_ADDR</td><td style="vertical-align:top;">:</td><td><div>127.0.0.1</div></td></tr><tr><td style="font-weight:bold;vertical-align:top;">REMOTE_PORT</td><td style="vertical-align:top;">:</td><td><div>34920</div></td></tr><tr><td style="font-weight:bold;vertical-align:top;">REQUEST_METHOD</td><td style="vertical-align:top;">:</td><td><div>GET</div></td></tr><tr><td style="font-weight:bold;vertical-align:top;">SCRIPT_NAME</td><td style="vertical-align:top;">:</td><td><div></div></td></tr><tr><td style="font-weight:bold;vertical-align:top;">SERVER_NAME</td><td style="vertical-align:top;">:</td><td><div>aabv-Lenovo-Yoga-2-11</div></td></tr><tr><td style="font-weight:bold;vertical-align:top;">SERVER_PORT</td><td style="vertical-align:top;">:</td><td><div>8000</div></td></tr><tr><td style="font-weight:bold;vertical-align:top;">SERVER_PROTOCOL</td><td style="vertical-align:top;">:</td><td><div>HTTP/1.1</div></td></tr><tr><td style="font-weight:bold;vertical-align:top;">SERVER_SOFTWARE</td><td style="vertical-align:top;">:</td><td><div>Rocket 1.2.6</div></td></tr><tr><td style="font-weight:bold;vertical-align:top;">app_folders</td><td style="vertical-align:top;">:</td><td><div>set([&#x27;/home/aabv/Documentos/Web2py/web2py/applications/welcome/&#x27;, &#x27;/home/aabv/Documentos/Web2py/web2py/applications/admin/&#x27;, &#x27;/home/aabv/Documentos/Web2py/web2py/applications/SisPIOSinConsultaV2/&#x27;])</div></td></tr><tr><td style="font-weight:bold;vertical-align:top;">applications_parent</td><td style="vertical-align:top;">:</td><td><div>/home/aabv/Documentos/Web2py/web2py</div></td></tr><tr><td style="font-weight:bold;vertical-align:top;">cmd_args</td><td style="vertical-align:top;">:</td><td><div><table></table></div></td></tr><tr><td style="font-weight:bold;vertical-align:top;">cmd_options</td><td style="vertical-align:top;">:</td><td><div>&lt;Values at 0x7f285c70b518: {&#x27;verbose&#x27;: False, &#x27;ip&#x27;: &#x27;127.0.0.1&#x27;, &#x27;debuglevel&#x27;: 30, &#x27;with_scheduler&#x27;: False, &#x27;shutdown_timeout&#x27;: 5, &#x27;taskbar&#x27;: False, &#x27;with_coverage&#x27;: False, &#x27;pid_filename&#x27;: &#x27;httpserver.pid&#x27;, &#x27;maxthreads&#x27;: None, &#x27;softcron&#x27;: False, &#x27;server_name&#x27;: &#x27;aabv-Lenovo-Yoga-2-11&#x27;, &#x27;bpython&#x27;: False, &#x27;nogui&#x27;: False, &#x27;port&#x27;: 8000, &#x27;print_errors&#x27;: False, &#x27;extcron&#x27;: False, &#x27;runcron&#x27;: False, &#x27;run_system_tests&#x27;: False, &#x27;test&#x27;: None, &#x27;folder&#x27;: &#x27;/home/aabv/Documentos/Web2py/web2py&#x27;, &#x27;config&#x27;: &#x27;&#x27;, &#x27;minthreads&#x27;: None, &#x27;shell&#x27;: None, &#x27;run&#x27;: &#x27;&#x27;, &#x27;log_filename&#x27;: &#x27;httpserver.log&#x27;, &#x27;profiler_dir&#x27;: None, &#x27;args&#x27;: [&#x27;&#x27;], &#x27;socket_timeout&#x27;: 5, &#x27;ssl_ca_certificate&#x27;: None, &#x27;scheduler&#x27;: None, &#x27;interfaces&#x27;: None, &#x27;ssl_private_key&#x27;: &#x27;&#x27;, &#x27;gae&#x27;: None, &#x27;password&#x27;: &#x27;******&#x27;, &#x27;request_queue_size&#x27;: 5, &#x27;ssl_certificate&#x27;: &#x27;&#x27;, &#x27;cronjob&#x27;: False, &#x27;numthreads&#x27;: None, &#x27;quiet&#x27;: False, &#x27;import_models&#x27;: False, &#x27;timeout&#x27;: 10, &#x27;plain&#x27;: False, &#x27;nobanner&#x27;: False}&gt;</div></td></tr><tr><td style="font-weight:bold;vertical-align:top;">db_sessions</td><td style="vertical-align:top;">:</td><td><div>set([])</div></td></tr><tr><td style="font-weight:bold;vertical-align:top;">debugging</td><td style="vertical-align:top;">:</td><td><div>True</div></td></tr><tr><td style="font-weight:bold;vertical-align:top;">gluon_parent</td><td style="vertical-align:top;">:</td><td><div>/home/aabv/Documentos/Web2py/web2py</div></td></tr><tr><td style="font-weight:bold;vertical-align:top;">http_accept</td><td style="vertical-align:top;">:</td><td><div>text/html,application/xhtml+xml,application/xml;q=0.9,*/*;q=0.8</div></td></tr><tr><td style="font-weight:bold;vertical-align:top;">http_accept_encoding</td><td style="vertical-align:top;">:</td><td><div>gzip, deflate</div></td></tr><tr><td style="font-weight:bold;vertical-align:top;">http_accept_language</td><td style="vertical-align:top;">:</td><td><div>es-ES,es;q=0.8,en-US;q=0.5,en;q=0.3</div></td></tr><tr><td style="font-weight:bold;vertical-align:top;">http_connection</td><td style="vertical-align:top;">:</td><td><div>keep-alive</div></td></tr><tr><td style="font-weight:bold;vertical-align:top;">http_cookie</td><td style="vertical-align:top;">:</td><td><div>session_id_welcome=127.0.0.1-88d67060-1a64-4653-9f01-96edaa4e02a7; session_id_admin=127.0.0.1-b3e89a94-2be6-40d5-9afe-a850eb4aecd1; session_id_sispiosinconsultav2=127.0.0.1-4ba9e9a8-dcc3-446d-a49e-3a97541a998b</div></td></tr><tr><td style="font-weight:bold;vertical-align:top;">http_host</td><td style="vertical-align:top;">:</td><td><div>127.0.0.1:8000</div></td></tr><tr><td style="font-weight:bold;vertical-align:top;">http_referer</td><td style="vertical-align:top;">:</td><td><div>http://127.0.0.1:8000/SisPIOSinConsultaV2/default/index</div></td></tr><tr><td style="font-weight:bold;vertical-align:top;">http_upgrade_insecure_requests</td><td style="vertical-align:top;">:</td><td><div>1</div></td></tr><tr><td style="font-weight:bold;vertical-align:top;">http_user_agent</td><td style="vertical-align:top;">:</td><td><div>Mozilla/5.0 (X11; Ubuntu; Linux x86_64; rv:56.0) Gecko/20100101 Firefox/56.0</div></td></tr><tr><td style="font-weight:bold;vertical-align:top;">is_jython</td><td style="vertical-align:top;">:</td><td><div>False</div></td></tr><tr><td style="font-weight:bold;vertical-align:top;">is_pypy</td><td style="vertical-align:top;">:</td><td><div>False</div></td></tr><tr><td style="font-weight:bold;vertical-align:top;">is_source</td><td style="vertical-align:top;">:</td><td><div>True</div></td></tr><tr><td style="font-weight:bold;vertical-align:top;">local_hosts</td><td style="vertical-align:top;">:</td><td><div><table><tr><td><div>aabv-Lenovo-Yoga-2-11</div></td></tr><tr><td><div>::1</div></td></tr><tr><td><div>127.0.1.1</div></td></tr><tr><td><div>::ffff:127.0.0.1</div></td></tr><tr><td><div>127.0.0.1</div></td></tr></table></div></td></tr><tr><td style="font-weight:bold;vertical-align:top;">path_info</td><td style="vertical-align:top;">:</td><td><div>/SisPIOSinConsultaV2/default/welcome</div></td></tr><tr><td style="font-weight:bold;vertical-align:top;">query_string</td><td style="vertical-align:top;">:</td><td><div></div></td></tr><tr><td style="font-weight:bold;vertical-align:top;">remote_addr</td><td style="vertical-align:top;">:</td><td><div>127.0.0.1</div></td></tr><tr><td style="font-weight:bold;vertical-align:top;">remote_port</td><td style="vertical-align:top;">:</td><td><div>34920</div></td></tr><tr><td style="font-weight:bold;vertical-align:top;">request_method</td><td style="vertical-align:top;">:</td><td><div>GET</div></td></tr><tr><td style="font-weight:bold;vertical-align:top;">request_uri</td><td style="vertical-align:top;">:</td><td><div>/SisPIOSinConsultaV2/default/welcome</div></td></tr><tr><td style="font-weight:bold;vertical-align:top;">script_name</td><td style="vertical-align:top;">:</td><td><div></div></td></tr><tr><td style="font-weight:bold;vertical-align:top;">server_name</td><td style="vertical-align:top;">:</td><td><div>aabv-Lenovo-Yoga-2-11</div></td></tr><tr><td style="font-weight:bold;vertical-align:top;">server_port</td><td style="vertical-align:top;">:</td><td><div>8000</div></td></tr><tr><td style="font-weight:bold;vertical-align:top;">server_protocol</td><td style="vertical-align:top;">:</td><td><div>HTTP/1.1</div></td></tr><tr><td style="font-weight:bold;vertical-align:top;">server_software</td><td style="vertical-align:top;">:</td><td><div>Rocket 1.2.6</div></td></tr><tr><td style="font-weight:bold;vertical-align:top;">web2py_path</td><td style="vertical-align:top;">:</td><td><div>/home/aabv/Documentos/Web2py/web2py</div></td></tr><tr><td style="font-weight:bold;vertical-align:top;">web2py_version</td><td style="vertical-align:top;">:</td><td><div>2.14.6-stable+timestamp.2016.05.10.00.21.47</div></td></tr><tr><td style="font-weight:bold;vertical-align:top;">wsgi.errors</td><td style="vertical-align:top;">:</td><td><div>&lt;open file &#x27;&lt;stderr&gt;&#x27;, mode &#x27;w&#x27; at 0x7f2862faf1e0&gt;</div></td></tr><tr><td style="font-weight:bold;vertical-align:top;">wsgi.file_wrapper</td><td style="vertical-align:top;">:</td><td><div>&lt;class wsgiref.util.FileWrapper at 0x7f285c79ff58&gt;</div></td></tr><tr><td style="font-weight:bold;vertical-align:top;">wsgi.input</td><td style="vertical-align:top;">:</td><td><div>&lt;socket._fileobject object at 0x7f281dbfba50&gt;</div></td></tr><tr><td style="font-weight:bold;vertical-align:top;">wsgi.multiprocess</td><td style="vertical-align:top;">:</td><td><div>False</div></td></tr><tr><td style="font-weight:bold;vertical-align:top;">wsgi.multithread</td><td style="vertical-align:top;">:</td><td><div>True</div></td></tr><tr><td style="font-weight:bold;vertical-align:top;">wsgi.run_once</td><td style="vertical-align:top;">:</td><td><div>False</div></td></tr><tr><td style="font-weight:bold;vertical-align:top;">wsgi.url_scheme</td><td style="vertical-align:top;">:</td><td><div>http</div></td></tr><tr><td style="font-weight:bold;vertical-align:top;">wsgi.version</td><td style="vertical-align:top;">:</td><td><div><table><tr><td><div>1</div></td></tr><tr><td><div>0</div></td></tr></table></div></td></tr><tr><td style="font-weight:bold;vertical-align:top;">wsgi_errors</td><td style="vertical-align:top;">:</td><td><div>&lt;open file &#x27;&lt;stderr&gt;&#x27;, mode &#x27;w&#x27; at 0x7f2862faf1e0&gt;</div></td></tr><tr><td style="font-weight:bold;vertical-align:top;">wsgi_file_wrapper</td><td style="vertical-align:top;">:</td><td><div>&lt;class wsgiref.util.FileWrapper at 0x7f285c79ff58&gt;</div></td></tr><tr><td style="font-weight:bold;vertical-align:top;">wsgi_input</td><td style="vertical-align:top;">:</td><td><div>&lt;socket._fileobject object at 0x7f281dbfba50&gt;</div></td></tr><tr><td style="font-weight:bold;vertical-align:top;">wsgi_multiprocess</td><td style="vertical-align:top;">:</td><td><div>False</div></td></tr><tr><td style="font-weight:bold;vertical-align:top;">wsgi_multithread</td><td style="vertical-align:top;">:</td><td><div>True</div></td></tr><tr><td style="font-weight:bold;vertical-align:top;">wsgi_run_once</td><td style="vertical-align:top;">:</td><td><div>False</div></td></tr><tr><td style="font-weight:bold;vertical-align:top;">wsgi_url_scheme</td><td style="vertical-align:top;">:</td><td><div>http</div></td></tr><tr><td style="font-weight:bold;vertical-align:top;">wsgi_version</td><td style="vertical-align:top;">:</td><td><div><table><tr><td><div>1</div></td></tr><tr><td><div>0</div></td></tr></table></div></td></tr></table></div></td></tr><tr><td style="font-weight:bold;vertical-align:top;">extension</td><td style="vertical-align:top;">:</td><td><div>html</div></td></tr><tr><td style="font-weight:bold;vertical-align:top;">folder</td><td style="vertical-align:top;">:</td><td><div>/home/aabv/Documentos/Web2py/web2py/applications/SisPIOSinConsultaV2/</div></td></tr><tr><td style="font-weight:bold;vertical-align:top;">function</td><td style="vertical-align:top;">:</td><td><div>welcome</div></td></tr><tr><td style="font-weight:bold;vertical-align:top;">global_settings</td><td style="vertical-align:top;">:</td><td><div><table><tr><td style="font-weight:bold;vertical-align:top;">app_folders</td><td style="vertical-align:top;">:</td><td><div>set([&#x27;/home/aabv/Documentos/Web2py/web2py/applications/welcome/&#x27;, &#x27;/home/aabv/Documentos/Web2py/web2py/applications/admin/&#x27;, &#x27;/home/aabv/Documentos/Web2py/web2py/applications/SisPIOSinConsultaV2/&#x27;])</div></td></tr><tr><td style="font-weight:bold;vertical-align:top;">applications_parent</td><td style="vertical-align:top;">:</td><td><div>/home/aabv/Documentos/Web2py/web2py</div></td></tr><tr><td style="font-weight:bold;vertical-align:top;">cmd_args</td><td style="vertical-align:top;">:</td><td><div><table></table></div></td></tr><tr><td style="font-weight:bold;vertical-align:top;">cmd_options</td><td style="vertical-align:top;">:</td><td><div>&lt;Values at 0x7f285c70b518: {&#x27;verbose&#x27;: False, &#x27;ip&#x27;: &#x27;127.0.0.1&#x27;, &#x27;debuglevel&#x27;: 30, &#x27;with_scheduler&#x27;: False, &#x27;shutdown_timeout&#x27;: 5, &#x27;taskbar&#x27;: False, &#x27;with_coverage&#x27;: False, &#x27;pid_filename&#x27;: &#x27;httpserver.pid&#x27;, &#x27;maxthreads&#x27;: None, &#x27;softcron&#x27;: False, &#x27;server_name&#x27;: &#x27;aabv-Lenovo-Yoga-2-11&#x27;, &#x27;bpython&#x27;: False, &#x27;nogui&#x27;: False, &#x27;port&#x27;: 8000, &#x27;print_errors&#x27;: False, &#x27;extcron&#x27;: False, &#x27;runcron&#x27;: False, &#x27;run_system_tests&#x27;: False, &#x27;test&#x27;: None, &#x27;folder&#x27;: &#x27;/home/aabv/Documentos/Web2py/web2py&#x27;, &#x27;config&#x27;: &#x27;&#x27;, &#x27;minthreads&#x27;: None, &#x27;shell&#x27;: None, &#x27;run&#x27;: &#x27;&#x27;, &#x27;log_filename&#x27;: &#x27;httpserver.log&#x27;, &#x27;profiler_dir&#x27;: None, &#x27;args&#x27;: [&#x27;&#x27;], &#x27;socket_timeout&#x27;: 5, &#x27;ssl_ca_certificate&#x27;: None, &#x27;scheduler&#x27;: None, &#x27;interfaces&#x27;: None, &#x27;ssl_private_key&#x27;: &#x27;&#x27;, &#x27;gae&#x27;: None, &#x27;password&#x27;: &#x27;******&#x27;, &#x27;request_queue_size&#x27;: 5, &#x27;ssl_certificate&#x27;: &#x27;&#x27;, &#x27;cronjob&#x27;: False, &#x27;numthreads&#x27;: None, &#x27;quiet&#x27;: False, &#x27;import_models&#x27;: False, &#x27;timeout&#x27;: 10, &#x27;plain&#x27;: False, &#x27;nobanner&#x27;: False}&gt;</div></td></tr><tr><td style="font-weight:bold;vertical-align:top;">db_sessions</td><td style="vertical-align:top;">:</td><td><div>set([])</div></td></tr><tr><td style="font-weight:bold;vertical-align:top;">debugging</td><td style="vertical-align:top;">:</td><td><div>True</div></td></tr><tr><td style="font-weight:bold;vertical-align:top;">gluon_parent</td><td style="vertical-align:top;">:</td><td><div>/home/aabv/Documentos/Web2py/web2py</div></td></tr><tr><td style="font-weight:bold;vertical-align:top;">is_jython</td><td style="vertical-align:top;">:</td><td><div>False</div></td></tr><tr><td style="font-weight:bold;vertical-align:top;">is_pypy</td><td style="vertical-align:top;">:</td><td><div>False</div></td></tr><tr><td style="font-weight:bold;vertical-align:top;">is_source</td><td style="vertical-align:top;">:</td><td><div>True</div></td></tr><tr><td style="font-weight:bold;vertical-align:top;">local_hosts</td><td style="vertical-align:top;">:</td><td><div><table><tr><td><div>aabv-Lenovo-Yoga-2-11</div></td></tr><tr><td><div>::1</div></td></tr><tr><td><div>127.0.1.1</div></td></tr><tr><td><div>::ffff:127.0.0.1</div></td></tr><tr><td><div>127.0.0.1</div></td></tr></table></div></td></tr><tr><td style="font-weight:bold;vertical-align:top;">web2py_version</td><td style="vertical-align:top;">:</td><td><div>2.14.6-stable+timestamp.2016.05.10.00.21.47</div></td></tr></table></div></td></tr><tr><td style="font-weight:bold;vertical-align:top;">is_https</td><td style="vertical-align:top;">:</td><td><div>False</div></td></tr><tr><td style="font-weight:bold;vertical-align:top;">is_local</td><td style="vertical-align:top;">:</td><td><div>True</div></td></tr><tr><td style="font-weight:bold;vertical-align:top;">is_restful</td><td style="vertical-align:top;">:</td><td><div>False</div></td></tr><tr><td style="font-weight:bold;vertical-align:top;">is_scheduler</td><td style="vertical-align:top;">:</td><td><div>False</div></td></tr><tr><td style="font-weight:bold;vertical-align:top;">is_shell</td><td style="vertical-align:top;">:</td><td><div>False</div></td></tr><tr><td style="font-weight:bold;vertical-align:top;">now</td><td style="vertical-align:top;">:</td><td><div>datetime.datetime(2017, 10, 13, 12, 42, 10, 92151)</div></td></tr><tr><td style="font-weight:bold;vertical-align:top;">raw_args</td><td style="vertical-align:top;">:</td><td><div></div></td></tr><tr><td style="font-weight:bold;vertical-align:top;">raw_extension</td><td style="vertical-align:top;">:</td><td><div>None</div></td></tr><tr><td style="font-weight:bold;vertical-align:top;">url</td><td style="vertical-align:top;">:</td><td><div>/SisPIOSinConsultaV2/default/welcome</div></td></tr><tr><td style="font-weight:bold;vertical-align:top;">utcnow</td><td style="vertical-align:top;">:</td><td><div>datetime.datetime(2017, 10, 13, 16, 42, 10, 92200)</div></td></tr><tr><td style="font-weight:bold;vertical-align:top;">wsgi</td><td style="vertical-align:top;">:</td><td><div>&lt;gluon.main.LazyWSGI object at 0x7f2840675910&gt;</div></td></tr></table></div>'
tRp58
sS'frames'
p59
(lp60
(dp61
S'file'
p62
S'/home/aabv/Documentos/Web2py/web2py/gluon/restricted.py'
p63
sS'dump'
p64
(dp65
S'environment'
p66
S"{'A': <class 'gluon.html.A'>, 'ANY_OF': <class 'gluon.validators.ANY_OF'>, 'ASSIGNJS': <function ASSIGNJS>, 'AppConfig': <function AppConfig>, 'Auth': <class 'gluon.tools.Auth'>, 'B': <class 'gluon.html.B'>, 'BEAUTIFY': <class 'gluon.html.BEAUTIFY'>, 'BODY': <class 'gluon.html.BODY'>, 'BR': <class 'gluon.html.BR'>, 'BUTTON': <class 'gluon.html.BUTTON'>, ...}"
p67
sS'ccode'
p68
S'<code object <module> at 0x7f281db7c930, file "/...inConsultaV2/views/default/welcome.html", line 1>'
p69
ssS'lnum'
p70
I227
sS'lines'
p71
(dp72
I224
S'            ccode = code'
p73
sI225
S'        else:'
p74
sI226
S'            ccode = compile2(code, layer)'
p75
sI227
S'        exec ccode in environment'
p76
sI228
S'    except HTTP:'
p77
sI229
S'        raise'
p78
sI230
S'    except RestrictedError:'
p79
sI231
S'        # do not encapsulate (obfuscate) the original RestrictedError'
p80
sI222
S'    try:'
p81
sI223
S'        if isinstance(code, types.CodeType):'
p82
ssS'call'
p83
S'(code=\'response.write(\\\'<!DOCTYPE html>\\\\n<html lang="es".../script>\\\\n   \\\\n</body>\\\\n</html>\\\\n\\\', escape=False)\', environment={\'A\': <class \'gluon.html.A\'>, \'ANY_OF\': <class \'gluon.validators.ANY_OF\'>, \'ASSIGNJS\': <function ASSIGNJS>, \'AppConfig\': <function AppConfig>, \'Auth\': <class \'gluon.tools.Auth\'>, \'B\': <class \'gluon.html.B\'>, \'BEAUTIFY\': <class \'gluon.html.BEAUTIFY\'>, \'BODY\': <class \'gluon.html.BODY\'>, \'BR\': <class \'gluon.html.BR\'>, \'BUTTON\': <class \'gluon.html.BUTTON\'>, ...}, layer=\'/home/aabv/Documentos/Web2py/web2py/applications/SisPIOSinConsultaV2/views/default/welcome.html\')'
p84
sS'func'
p85
S'restricted'
p86
sa(dp87
g62
S'/home/aabv/Documentos/Web2py/web2py/applications/SisPIOSinConsultaV2/views/default/welcome.html'
p88
sg64
(dp89
S'Respond'
p90
S'undefined'
p91
sS'IE8'
p92
g91
sS'elements'
p93
g91
sS'shim'
p94
g91
sS'of'
p95
g91
sS'support'
p96
g91
sS'queries'
p97
g91
sS'HTML5'
p98
g91
sS'media'
p99
g91
ssg70
I16
sg71
(dp100
I7
S'response.write(\'" rel="stylesheet">\\n    <link href="\', escape=False)'
p101
sI8
S"response.write(URL('static', 'css/index.css'))"
p102
sI9
S'response.write(\'" rel="stylesheet">\\n\\n    <!-- HTML5 shim and Respond.js for IE8 support of HTML5 elements and media queries -->\\n    <!-- WARNING: Respond.js doesn\\\'t work if you view the page via file:// -->\\n    <!--[if lt IE 9]>\\n      <script src="https://oss.maxcdn.com/html5shiv/3.7.3/html5shiv.min.js"></script>\\n      <script src="https://oss.maxcdn.com/respond/1.4.2/respond.min.js"></script>\\n    <![endif]-->\\n</head>\\n<div class="container">\\n        <div class="row">\\n            <!--HEADER --> \\n            <div class="col-sm-12">\\n                <img id="Logo" class="img-responsive" src="\', escape=False)'
p103
sI10
S"response.write(URL('static', 'images/bar7.png'))"
p104
sI11
S'response.write(\'" >\\n            </div>\\n            \\n             <!--Navbar -->\\n            <div class=" col-sm-12">\\n                \\n                <nav class="navbar navbar-default inicioSesion">\\n                  <div class="container-fluid">\\n                    <!-- Brand and toggle get grouped for better mobile display -->\\n                    <div class="navbar-header">\\n                      <button type="button" class="navbar-toggle collapsed" data-toggle="collapse" data-target="#bs-example-navbar-collapse-1" aria-expanded="false">\\n                        <span class="sr-only">Toggle navigation</span>\\n                        <span class="icon-bar"></span>\\n                        <span class="icon-bar"></span>\\n                        <span class="icon-bar"></span>\\n                      </button>\\n                    </div>\\n\\n                    <!-- Collect the nav links, forms, and other content for toggling -->\\n                    <div class="collapse navbar-collapse" id="bs-example-navbar-collapse-1">\\n                      <ul class="nav navbar-nav navbar-right">\\n                          <li class="dropdown">\\n                              <a href="#" class="dropdown-toggle" data-toggle="dropdown" role="button" aria-haspopup="true" aria-expanded="false">Nombre de usuario <span class="caret"></span></a>\\n                              <ul class="dropdown-menu">\\n                                    <li id="userinfo"><a href="#"><span class="glyphicon glyphicon-user "></span> Mi perfil </a></li>\\n                                    <li id="enviar"><a href="#"><span class="glyphicon glyphicon-envelope"></span> Contactanos</a></li>\\n                                    <li role="separator" class="divider"></li>\\n                                    <li><a href="\', escape=False)'
p105
sI12
S"response.write(URL('default', 'user', args='logout'))"
p106
sI13
S'response.write(\'"><span class="glyphicon glyphicon-log-out"></span> Salir </a></li>\\n                              </ul>\\n                          </li>\\n                        </ul>\\n                    </div><!-- /.navbar-collapse -->\\n                  </div><!-- /.container-fluid -->\\n                </nav>\\n            </div><!--col12-->\\n        </div><!--row-->\\n            \\n    </div><!--container-->\\n<body>\\n    <div  class="container">\\n            <!-- Information-->\\n            <div id="inicio" class="row" >\\n              <div class="col-md-12">\\n               \\n                    <h3> Menu </h3>\\n                    <ul id="navbar" class="nav nav-pills nav-stacked col-md-3">\\n                      <li role="presentation" class="active">\\n                            <a  id="principal" href="#informacion" aria-controls="informacion" data-toggle="tab">Inicio</a></li>\\n                      <li role="presentation">\\n                            <a id="perfil" href="#miPerfil" role="tab" aria-controls="miPerfil" data-toggle="tab">Mi Perfil</a></li>\\n                      <li role="presentation" >\\n                            <a id="test" href="#testVocacional" role="tab" aria-controls="testVocacional" data-toggle="tab">Test vocacional</a></li>\\n                      <li role="presentation" >\\n                            <a id="contacto"  href="#enviarEmail" role="tab" aria-controls="enviarEmail" data-toggle="tab">Contactanos</a></li>\\n                      <li role="presentation" >\\n                            <a id="pass" href="#cambioContra" role="tab" aria-controls="cambioContra" data-toggle="tab">Cambiar contrase\\xc3\\xb1a</a></li>\\n                     <li role="presentation"><a id="logOut" href="\', escape=False)'
p107
sI14
S"response.write(URL('default', 'user', args='logout'))"
p108
sI15
S'response.write(\'">Salir</a></li>\\n                    </ul>\\n                \\n                <div class="tab-content col-md-9">\\n                    <!-- INICIO -->\\n                    <div class="tab-pane active" id="information">\\n                         <h1> Bienvenido al PIO </h1>\\n                        <br><br><br>\\n                        <div>\\n                            <h1 class="datos1">Nombre de usuario  </h1>\\n                            <h1 class="datos1"><a id="Editar" href="#"><span class="glyphicon glyphicon-edit green-icn"></span></a></h1>\\n                            <p class="datos">\\n                                <b>Nombre completo: </b> \', escape=False)'
p109
sI16
S'response.write(usuario)'
p110
sI17
S'response.write(\'\\n                                <br>\\n                                <b>Cedula de identidad: </b> 1234567<br>\\n                                <b>Correo electronico: </b> fulanito@uncorreo.com <br>\\n                                <b>Telefono:</b>  (0123) 25689632\\n                                <br>\\n                            </p>\\n                        </div>\\n                    </div>\\n                    <!-- MI PERFIL -->\\n                    <div class="tab-pane " id="miPerfil">\\n                     <form method="get" >\\n                        <fieldset>\\n                            <legend>Datos personales</legend>\\n                        <!-- Person ID -->\\n                            <label for="cedula">Cedula de identidad: </label>\\n                            <input type="text" id="cedula" name="ID" placeholder="Cedula de identidad" readonly="readonly"> <br>\\n                        <!-- Person name -->\\n                            <label for="name">Nombres: </label>\\n                            <input type="text" id="nombre" name="Nombre" placeholder="Primer y segundo nombre" required readonly="readonly"> <br>\\n                        <!-- Person last name -->\\n                            <label for="apellido">Apellidos: </label>\\n                            <input type="text" id="apellido" name="Apellido" placeholder="Primer y segundo apellido" readonly="readonly"> <br>\\n                        \\n                        <!-- Person gender -->\\n                            <label for="gender">Genero: </label>\\n                            <input type="radio" class="gender" name="gender" value="female">Femenino \\n                            <input type="radio" class="gender" name="gender" value="male" checked>Masculino <br>\\n                        <!-- Person age-->\\n                            <label for="age">Edad:</label>\\n                            <input type="number" min="0" max="150" step="1" value="18" id="age" name="age" required><br>\\n                        <!-- Person Birth-->\\n                            <label for="birthday">Fecha de nacimiento:</label>\\n                            <input type="date" id="birthday" name="birthday" required><br>\\n                        <!-- Person average-->\\n                            <label for="promedioEntero">Promedio:</label>\\n                            <input type="number" min="0" max="2" step="1" value="0" id="promedioEntero" class="text-right" name="PromedioEntero" readonly="readonly">\\n                            <strong> .</strong>\\n                            <input type="number" min="0" max="2" step="1" value="0" id="promedioDecimal" class="text-right" name="PromedioDecimal" readonly="readonly">\\n                            \\n                            <br>\\n                        <!-- Person country -->\\n                            <label for="country" >Liceo de procedencia: </label>\\n                            <select class="select-style" name="cities" >\\n                                <option value="ccs" disable >Seleccione uno</option>\\n                                <option value="ccs">Programa de Cadena 2017</option>\\n                            </select>\\n                        </fieldset> <br>\\n                        <fieldset>\\n                            <legend>Informacion de contacto</legend>\\n                        <!--Person email -->\\n                            <label for="email">Email: </label>\\n                            <input type="email" id="email" name="Email" placeholder="Correo electronico" required><br>\\n                        <!-- Person mobile -->\\n                            <label for="mobile">Telefono principal: </label>\\n                            <input type="tel" id="mobile" name="Mobile" placeholder="Telefono principal" require max="11">\\n                            <br>\\n                        <!-- Person mobile -->\\n                            <label for="secundario">Telefono secundario: </label>\\n                            <input type="tel" id="secundario" name="Mobile2" placeholder="Telefono secundario" require max="11">\\n                            <br>\\n                        <!-- Person address-->\\n                            <label class="dir" for="direccion">Direccion:</label>\\n                            <div class="textarea1"><textarea id="direccion" > </textarea> </div>\\n                            <br>\\n                        </fieldset> <br>\\n                        \\n                        <div class="save text-center"><input type="submit" class="btn btn-primary save" value="Guardar"></div>\\n                      </form>\\n                     </div><!--miperfil tab-->\\n                    \\n\\n                    <!-- TEST vocacional -->\\n                    <div id="testVocacional" class="tab-pane ">\\n                        <h1>Test vocacional</h1><br><br>\\n                        <p>Por favor elija tres carreras de su preferencia</p>\\n                    <form method="get">\\n                        <!-- Primera opcion -->\\n                        <label for="carrera" >Primera opcion </label>\\n                            <select class="select-style" name="carrera" required>\\n                                <option value="" inactive >Seleccione uno</option>\\n                                <option value="">Ingenieria</option>\\n                            </select>\\n                        <br><br>\\n                        <!-- Segunda opcion -->\\n                        <label for="carrera" >Segunda opcion </label>\\n                            <select class="select-style" name="carrera" required >\\n                                <option value="" inactive >Seleccione uno</option>\\n                                <option value="">Ingenieria</option>\\n                            </select>\\n                        <br><br>\\n                        <!-- Tercera opcion -->\\n                        <label for="carrera" >Tercera opcion </label>\\n                            <select class="select-style" name="carrera" required >\\n                                <option value="" inactive >Seleccione uno</option>\\n                                <option value="">Ingenieria</option>\\n                            </select>\\n                        <br><br>\\n                        <div class="save text-center"><input type="submit" class="btn btn-primary save" value="Enviar"></div>\\n                        </form>\\n                    </div>\\n                    <!-- Contactanos -->\\n                    <div id="enviarEmail" class="tab-pane ">\\n                        <h1>Contactanos </h1>\\n                        <form role="form" method="post" >\\n                            <div class="form-group">\\n                                <br><br>\\n                                <label for="name" class="col-sm-2 control-label">Asunto</label>\\n                                <br><br>\\n                                <div class="col-sm-10">\\n                                    <input type="text" class="form-control" id="asunto" name="asunto" placeholder="Asunto" value="" required>\\n                                </div>\\n                            </div>\\n                            <div class="form-group">\\n                                <br><br>\\n                                <label for="name" class="col-sm-2 control-label">Correo</label>\\n                                <br><br>\\n                                <div class="col-sm-10">\\n                                    <input type="email" class="form-control" id="correo" name="correo" placeholder="Correo" value="" required>\\n                                </div>\\n                            </div>\\n                            <div class="form-group">\\n                                <br><br>\\n                                <label for="message" class="col-sm-2 control-label">Mensaje</label><br><br>\\n                                <div class="col-sm-10">\\n                                    <textarea class="form-control" rows="4" name="message" required></textarea>\\n                                </div>\\n                            </div>\\n                            \\n                            <div class="form-group">\\n                                <div class="col-sm-10 col-sm-offset-2">\\n                                    <br><br><div class="send">\\n                                    <input id="submit" name="submit" type="submit" value="Enviar" class="btn btn-primary"></div>\\n                                    <br><br>\\n                                    <br>\\n                                </div>\\n                            </div>\\n                        </form>\\n                    </div>\\n                    <!-- Contrase\\xc3\\xb1a -->\\n                    <div id="cambioContra" class="tab-pane">\\n                        <h1>Cambiar contrase\\xc3\\xb1a</h1><br><br>\\n                    <form method="get">\\n                       <!-- Contrase;a actual -->\\n                            <label for="contrase\\xc3\\xb1a">Contrase\\xc3\\xb1a actual: </label>\\n                            <input type="password" id="contrasena" name="contrase\\xc3\\xb1a" placeholder="Contrase\\xc3\\xb1a actual" required> <br>\\n                        <!-- Contrase;a nueva -->\\n                            <label for="contrase\\xc3\\xb1a">Contrase\\xc3\\xb1a nueva: </label>\\n                            <input type="password" id="password" name="contrase\\xc3\\xb1a" placeholder="Contrase\\xc3\\xb1a nueva" required> <br>\\n                        <!-- Contrase;a nueva -->\\n                            <label for="contrase\\xc3\\xb1a">Confirmar contrase\\xc3\\xb1a: </label>\\n                            <input type="password" id="confirm_password" name="contrase\\xc3\\xb1a" placeholder="Contrase\\xc3\\xb1a nueva" required> <br><br>\\n                        <div class="save text-center"><input type="submit" class="btn btn-primary save" value="Guardar"></div>\\n                        </form>\\n                    </div>\\n                    \\n                </div><!--tab -->\\n              </div>\\n                \\n            </div><!-- row -->\\n            \\n            \\n        </div><!-- col md 10-->\\n    </div><!-- container-->\\n   \\n\\n    <footer class="container-fluid footer">\\n        <div class="row">\\n            <p class="text-center minText">Universidad Simon Bolivar<br>Sartenejas, Baruta, Edo. Miranda - Apartado 89000 - Cable Unibolivar - Caracas Venezuela. Tel\\xc3\\xa9fono +58 0212-9063111.<br>\\nDise\\xc3\\xb1ada y desarrollada por Software for the World</p>\\n        </div>\\n    </footer>\\n    \\n    <!-- jQuery (necessary for Bootstrap\\\'s JavaScript plugins) -->\\n    <script src="https://ajax.googleapis.com/ajax/libs/jquery/1.12.4/jquery.min.js"></script>    <!-- Include all compiled plugins (below), or include individual files as needed -->\\n\\n    <script src="\', escape=False)'
p111
sI18
S"response.write(URL('static', 'js/bootstrap.min.js'))"
p112
sI19
S'response.write(\'"></script>\\n    <script src="\', escape=False)'
p113
sI20
S"response.write(URL('static', 'js/pioLink.js'))"
p114
sI21
S'response.write(\'"></script>\\n    <script >\\n    \\t/**** WELCOME ESTUDIANTE ******/\\n\\n    $(".glyphicon, #userinfo" ).click(function(){\\n        $("#information").hide();\\n        $("#enviarEmail").hide();\\n        $("#testVocacional").hide();\\n        $("#cambioContra").hide();\\n        $("#miPerfil").show();\\n        $(".nav").find(".active").removeClass("active");\\n        $("#perfil").parent().addClass("active");\\n    });\\n   /*Para el welcome.html estudiante*/\\n    $("#principal").click(function(){\\n        $("#information").show();\\n        $("#enviarEmail").hide();\\n        $("#cambioContra").hide();\\n        $("#testVocacional").hide();\\n        $("#miPerfil").hide();\\n    });\\n    /*Registro datos estudiantes*/\\n    $("#perfil").click(function(){\\n        $("#information").hide();\\n        $("#enviarEmail").hide();\\n        $("#cambioContra").hide();\\n        $("#testVocacional").hide();\\n        $("#miPerfil").show();\\n    });\\n    /*Prueba vocacional*/\\n    $("#test").click(function(){\\n        $("#information").hide();\\n        $("#enviarEmail").hide();\\n        $("#cambioContra").hide();\\n        $("#testVocacional").show();\\n        $("#miPerfil").hide();\\n    });\\n    /*Cambio de contrase;a*/\\n     $("#pass").click(function(){\\n        $("#information").hide();\\n        $("#enviarEmail").hide();\\n        $("#cambioContra").show();\\n        $("#testVocacional").hide();\\n        $("#miPerfil").hide();\\n    });\\n     /*enviar email*/\\n    $("#contacto, #enviar").click(function(){\\n        $("#information").hide();\\n        $("#enviarEmail").show();\\n        $("#testVocacional").hide();\\n        $("#cambioContra").hide();\\n        $("#miPerfil").hide();\\n        $(".nav").find(".active").removeClass("active");\\n        $("#contacto").parent().addClass("active");\\n    });\\n    \\t\\n    </script>\\n   \\n</body>\\n</html>\\n\', escape=False)'
p115
ssg83
S'()'
p116
sg85
S'<module>'
p117
sasS'pyver'
p118
S'Python 2.7.12: /usr/bin/python (prefix: /usr)'
p119
sS'session'
p120
g57
(S's\x80\t\x00\x00<div><table><tr><td style="font-weight:bold;vertical-align:top;">auth</td><td style="vertical-align:top;">:</td><td><div><table><tr><td style="font-weight:bold;vertical-align:top;">expiration</td><td style="vertical-align:top;">:</td><td><div>3600</div></td></tr><tr><td style="font-weight:bold;vertical-align:top;">hmac_key</td><td style="vertical-align:top;">:</td><td><div>7f36f2df-7c84-43df-91c3-011f0d8a78a9</div></td></tr><tr><td style="font-weight:bold;vertical-align:top;">last_visit</td><td style="vertical-align:top;">:</td><td><div>datetime.datetime(2017, 10, 13, 12, 42, 9, 306962)</div></td></tr><tr><td style="font-weight:bold;vertical-align:top;">remember_me</td><td style="vertical-align:top;">:</td><td><div>False</div></td></tr><tr><td style="font-weight:bold;vertical-align:top;">user</td><td style="vertical-align:top;">:</td><td><div><table><tr><td style="font-weight:bold;vertical-align:top;">email</td><td style="vertical-align:top;">:</td><td><div>andres@hotmail.com</div></td></tr><tr><td style="font-weight:bold;vertical-align:top;">first_name</td><td style="vertical-align:top;">:</td><td><div>Jefferson</div></td></tr><tr><td style="font-weight:bold;vertical-align:top;">id</td><td style="vertical-align:top;">:</td><td><div>2L</div></td></tr><tr><td style="font-weight:bold;vertical-align:top;">last_name</td><td style="vertical-align:top;">:</td><td><div>Gutierritos</div></td></tr><tr><td style="font-weight:bold;vertical-align:top;">registration_id</td><td style="vertical-align:top;">:</td><td><div></div></td></tr><tr><td style="font-weight:bold;vertical-align:top;">registration_key</td><td style="vertical-align:top;">:</td><td><div></div></td></tr><tr><td style="font-weight:bold;vertical-align:top;">reset_password_key</td><td style="vertical-align:top;">:</td><td><div></div></td></tr><tr><td style="font-weight:bold;vertical-align:top;">username</td><td style="vertical-align:top;">:</td><td><div>24222622</div></td></tr></table></div></td></tr><tr><td style="font-weight:bold;vertical-align:top;">user_groups</td><td style="vertical-align:top;">:</td><td><div><table><tr><td style="font-weight:bold;vertical-align:top;">1</td><td style="vertical-align:top;">:</td><td><div>Estudiante</div></td></tr></table></div></td></tr></table></div></td></tr><tr><td style="font-weight:bold;vertical-align:top;">flash</td><td style="vertical-align:top;">:</td><td><div>None</div></td></tr></table></div>'
tRp121
sS'etype'
p122
S"<type 'exceptions.NameError'>"
p123
sS'date'
p124
S'Fri Oct 13 12:42:10 2017'
p125
sS'response'
p126
g57
(S's\xbf@\x00\x00<div><table><tr><td style="font-weight:bold;vertical-align:top;">body</td><td style="vertical-align:top;">:</td><td><div>&lt;cStringIO.StringO object at 0x7f280c07a6c0&gt;</div></td></tr><tr><td style="font-weight:bold;vertical-align:top;">cookies</td><td style="vertical-align:top;">:</td><td><div><table><tr><td style="font-weight:bold;vertical-align:top;">session_id_sispiosinconsultav2</td><td style="vertical-align:top;">:</td><td><div>127.0.0.1-4ba9e9a8-dcc3-446d-a49e-3a97541a998b<table><tr><td style="font-weight:bold;vertical-align:top;">comment</td><td style="vertical-align:top;">:</td><td><div></div></td></tr><tr><td style="font-weight:bold;vertical-align:top;">domain</td><td style="vertical-align:top;">:</td><td><div></div></td></tr><tr><td style="font-weight:bold;vertical-align:top;">expires</td><td style="vertical-align:top;">:</td><td><div></div></td></tr><tr><td style="font-weight:bold;vertical-align:top;">httponly</td><td style="vertical-align:top;">:</td><td><div></div></td></tr><tr><td style="font-weight:bold;vertical-align:top;">max-age</td><td style="vertical-align:top;">:</td><td><div></div></td></tr><tr><td style="font-weight:bold;vertical-align:top;">path</td><td style="vertical-align:top;">:</td><td><div>/</div></td></tr><tr><td style="font-weight:bold;vertical-align:top;">secure</td><td style="vertical-align:top;">:</td><td><div></div></td></tr><tr><td style="font-weight:bold;vertical-align:top;">version</td><td style="vertical-align:top;">:</td><td><div></div></td></tr></table></div></td></tr></table></div></td></tr><tr><td style="font-weight:bold;vertical-align:top;">delimiters</td><td style="vertical-align:top;">:</td><td><div><table><tr><td><div>{{</div></td></tr><tr><td><div>}}</div></td></tr></table></div></td></tr><tr><td style="font-weight:bold;vertical-align:top;">files</td><td style="vertical-align:top;">:</td><td><div><table></table></div></td></tr><tr><td style="font-weight:bold;vertical-align:top;">flash</td><td style="vertical-align:top;">:</td><td><div></div></td></tr><tr><td style="font-weight:bold;vertical-align:top;">form_label_separator</td><td style="vertical-align:top;">:</td><td><div></div></td></tr><tr><td style="font-weight:bold;vertical-align:top;">formstyle</td><td style="vertical-align:top;">:</td><td><div>bootstrap3_inline</div></td></tr><tr><td style="font-weight:bold;vertical-align:top;">generic_patterns</td><td style="vertical-align:top;">:</td><td><div><table><tr><td><div>*</div></td></tr></table></div></td></tr><tr><td style="font-weight:bold;vertical-align:top;">google_analytics_id</td><td style="vertical-align:top;">:</td><td><div>None</div></td></tr><tr><td style="font-weight:bold;vertical-align:top;">headers</td><td style="vertical-align:top;">:</td><td><div><table><tr><td style="font-weight:bold;vertical-align:top;">X-Powered-By</td><td style="vertical-align:top;">:</td><td><div>web2py</div></td></tr></table></div></td></tr><tr><td style="font-weight:bold;vertical-align:top;">logo</td><td style="vertical-align:top;">:</td><td><div><a class="navbar-brand" href="http://www.web2py.com/" id="web2py-logo"><b>web<span>2</span>py</b>&trade;&nbsp;</a></div></td></tr><tr><td style="font-weight:bold;vertical-align:top;">menu</td><td style="vertical-align:top;">:</td><td><div><table><tr><td><div><table><tr><td><div>Inicio</div></td></tr><tr><td><div>False</div></td></tr><tr><td><div>/SisPIOSinConsultaV2/default/index</div></td></tr><tr><td><div><table></table></div></td></tr></table></div></td></tr><tr><td><div><table><tr><td><div>Mis Sitios</div></td></tr><tr><td><div>False</div></td></tr><tr><td><div>/admin/default/site</div></td></tr></table></div></td></tr><tr><td><div><table><tr><td><div>Esta Aplicaci\xc3\xb3n</div></td></tr><tr><td><div>False</div></td></tr><tr><td><div>#</div></td></tr><tr><td><div><table><tr><td><div><table><tr><td><div>Design</div></td></tr><tr><td><div>False</div></td></tr><tr><td><div>/admin/default/design/SisPIOSinConsultaV2</div></td></tr></table></div></td></tr><tr><td><div><li class="divider"></li></div></td></tr><tr><td><div><table><tr><td><div>Controlador</div></td></tr><tr><td><div>False</div></td></tr><tr><td><div>/admin/default/edit/SisPIOSinConsultaV2/controllers/default.py</div></td></tr></table></div></td></tr><tr><td><div><table><tr><td><div>Vista</div></td></tr><tr><td><div>False</div></td></tr><tr><td><div>/admin/default/edit/SisPIOSinConsultaV2/views/default/welcome.html</div></td></tr></table></div></td></tr><tr><td><div><table><tr><td><div>Modelo BDD</div></td></tr><tr><td><div>False</div></td></tr><tr><td><div>/admin/default/edit/SisPIOSinConsultaV2/models/db.py</div></td></tr></table></div></td></tr><tr><td><div><table><tr><td><div>Modelo "menu"</div></td></tr><tr><td><div>False</div></td></tr><tr><td><div>/admin/default/edit/SisPIOSinConsultaV2/models/menu.py</div></td></tr></table></div></td></tr><tr><td><div><table><tr><td><div>Config.ini</div></td></tr><tr><td><div>False</div></td></tr><tr><td><div>/admin/default/edit/SisPIOSinConsultaV2/private/appconfig.ini</div></td></tr></table></div></td></tr><tr><td><div><table><tr><td><div>Dise\xc3\xb1o de p\xc3\xa1gina</div></td></tr><tr><td><div>False</div></td></tr><tr><td><div>/admin/default/edit/SisPIOSinConsultaV2/views/layout.html</div></td></tr></table></div></td></tr><tr><td><div><table><tr><td><div>Hoja de estilo</div></td></tr><tr><td><div>False</div></td></tr><tr><td><div>/admin/default/edit/SisPIOSinConsultaV2/static/css/web2py-bootstrap3.css</div></td></tr></table></div></td></tr><tr><td><div><table><tr><td><div>Base de datos</div></td></tr><tr><td><div>False</div></td></tr><tr><td><div>/SisPIOSinConsultaV2/appadmin/index</div></td></tr></table></div></td></tr><tr><td><div><table><tr><td><div>Errores</div></td></tr><tr><td><div>False</div></td></tr><tr><td><div>/admin/default/errors/SisPIOSinConsultaV2</div></td></tr></table></div></td></tr><tr><td><div><table><tr><td><div>Acerca de</div></td></tr><tr><td><div>False</div></td></tr><tr><td><div>/admin/default/about/SisPIOSinConsultaV2</div></td></tr></table></div></td></tr></table></div></td></tr></table></div></td></tr><tr><td><div><table><tr><td><div>web2py.com</div></td></tr><tr><td><div>False</div></td></tr><tr><td><div>#</div></td></tr><tr><td><div><table><tr><td><div><table><tr><td><div>Descargas</div></td></tr><tr><td><div>False</div></td></tr><tr><td><div>http://www.web2py.com/examples/default/download</div></td></tr></table></div></td></tr><tr><td><div><table><tr><td><div>Soporte</div></td></tr><tr><td><div>False</div></td></tr><tr><td><div>http://www.web2py.com/examples/default/support</div></td></tr></table></div></td></tr><tr><td><div><table><tr><td><div>Demostraci\xc3\xb3n</div></td></tr><tr><td><div>False</div></td></tr><tr><td><div>http://web2py.com/demo_admin</div></td></tr></table></div></td></tr><tr><td><div><table><tr><td><div>Ejemplos R\xc3\xa1pidos</div></td></tr><tr><td><div>False</div></td></tr><tr><td><div>http://web2py.com/examples/default/examples</div></td></tr></table></div></td></tr><tr><td><div><table><tr><td><div>FAQ</div></td></tr><tr><td><div>False</div></td></tr><tr><td><div>http://web2py.com/AlterEgo</div></td></tr></table></div></td></tr><tr><td><div><table><tr><td><div>V\xc3\xaddeos</div></td></tr><tr><td><div>False</div></td></tr><tr><td><div>http://www.web2py.com/examples/default/videos/</div></td></tr></table></div></td></tr><tr><td><div><table><tr><td><div>Aplicaciones Libres</div></td></tr><tr><td><div>False</div></td></tr><tr><td><div>http://web2py.com/appliances</div></td></tr></table></div></td></tr><tr><td><div><table><tr><td><div>Plugins</div></td></tr><tr><td><div>False</div></td></tr><tr><td><div>http://web2py.com/plugins</div></td></tr></table></div></td></tr><tr><td><div><table><tr><td><div>Recetas</div></td></tr><tr><td><div>False</div></td></tr><tr><td><div>http://web2pyslices.com/</div></td></tr></table></div></td></tr></table></div></td></tr></table></div></td></tr><tr><td><div><table><tr><td><div>Documentaci\xc3\xb3n</div></td></tr><tr><td><div>False</div></td></tr><tr><td><div>#</div></td></tr><tr><td><div><table><tr><td><div><table><tr><td><div>Online book</div></td></tr><tr><td><div>False</div></td></tr><tr><td><div>http://www.web2py.com/book</div></td></tr></table></div></td></tr><tr><td><div><li class="divider"></li></div></td></tr><tr><td><div><table><tr><td><div>Prefacio</div></td></tr><tr><td><div>False</div></td></tr><tr><td><div>http://www.web2py.com/book/default/chapter/00</div></td></tr></table></div></td></tr><tr><td><div><table><tr><td><div>Introducci\xc3\xb3n</div></td></tr><tr><td><div>False</div></td></tr><tr><td><div>http://www.web2py.com/book/default/chapter/01</div></td></tr></table></div></td></tr><tr><td><div><table><tr><td><div>Python</div></td></tr><tr><td><div>False</div></td></tr><tr><td><div>http://www.web2py.com/book/default/chapter/02</div></td></tr></table></div></td></tr><tr><td><div><table><tr><td><div>Resumen</div></td></tr><tr><td><div>False</div></td></tr><tr><td><div>http://www.web2py.com/book/default/chapter/03</div></td></tr></table></div></td></tr><tr><td><div><table><tr><td><div>El N\xc3\xbacleo</div></td></tr><tr><td><div>False</div></td></tr><tr><td><div>http://www.web2py.com/book/default/chapter/04</div></td></tr></table></div></td></tr><tr><td><div><table><tr><td><div>Las Vistas</div></td></tr><tr><td><div>False</div></td></tr><tr><td><div>http://www.web2py.com/book/default/chapter/05</div></td></tr></table></div></td></tr><tr><td><div><table><tr><td><div>Base de datos</div></td></tr><tr><td><div>False</div></td></tr><tr><td><div>http://www.web2py.com/book/default/chapter/06</div></td></tr></table></div></td></tr><tr><td><div><table><tr><td><div>Formularios y validadores</div></td></tr><tr><td><div>False</div></td></tr><tr><td><div>http://www.web2py.com/book/default/chapter/07</div></td></tr></table></div></td></tr><tr><td><div><table><tr><td><div>Correo electr\xc3\xb3nico y SMS</div></td></tr><tr><td><div>False</div></td></tr><tr><td><div>http://www.web2py.com/book/default/chapter/08</div></td></tr></table></div></td></tr><tr><td><div><table><tr><td><div>Control de Acceso</div></td></tr><tr><td><div>False</div></td></tr><tr><td><div>http://www.web2py.com/book/default/chapter/09</div></td></tr></table></div></td></tr><tr><td><div><table><tr><td><div>Servicios</div></td></tr><tr><td><div>False</div></td></tr><tr><td><div>http://www.web2py.com/book/default/chapter/10</div></td></tr></table></div></td></tr><tr><td><div><table><tr><td><div>Recetas AJAX</div></td></tr><tr><td><div>False</div></td></tr><tr><td><div>http://www.web2py.com/book/default/chapter/11</div></td></tr></table></div></td></tr><tr><td><div><table><tr><td><div>Componentes y Plugins</div></td></tr><tr><td><div>False</div></td></tr><tr><td><div>http://www.web2py.com/book/default/chapter/12</div></td></tr></table></div></td></tr><tr><td><div><table><tr><td><div>Recetas de despliegue</div></td></tr><tr><td><div>False</div></td></tr><tr><td><div>http://www.web2py.com/book/default/chapter/13</div></td></tr></table></div></td></tr><tr><td><div><table><tr><td><div>Otras Recetas</div></td></tr><tr><td><div>False</div></td></tr><tr><td><div>http://www.web2py.com/book/default/chapter/14</div></td></tr></table></div></td></tr><tr><td><div><table><tr><td><div>Helping web2py</div></td></tr><tr><td><div>False</div></td></tr><tr><td><div>http://www.web2py.com/book/default/chapter/15</div></td></tr></table></div></td></tr><tr><td><div><table><tr><td><div>Buy web2py\'s book</div></td></tr><tr><td><div>False</div></td></tr><tr><td><div>http://stores.lulu.com/web2py</div></td></tr></table></div></td></tr></table></div></td></tr></table></div></td></tr><tr><td><div><table><tr><td><div>Comunidad</div></td></tr><tr><td><div>False</div></td></tr><tr><td><div>None</div></td></tr><tr><td><div><table><tr><td><div><table><tr><td><div>Grupos</div></td></tr><tr><td><div>False</div></td></tr><tr><td><div>http://www.web2py.com/examples/default/usergroups</div></td></tr></table></div></td></tr><tr><td><div><table><tr><td><div>Twitter</div></td></tr><tr><td><div>False</div></td></tr><tr><td><div>http://twitter.com/web2py</div></td></tr></table></div></td></tr><tr><td><div><table><tr><td><div>Chat en vivo</div></td></tr><tr><td><div>False</div></td></tr><tr><td><div>http://webchat.freenode.net/?channels=web2py</div></td></tr></table></div></td></tr></table></div></td></tr></table></div></td></tr></table></div></td></tr><tr><td style="font-weight:bold;vertical-align:top;">meta</td><td style="vertical-align:top;">:</td><td><div><table><tr><td style="font-weight:bold;vertical-align:top;">author</td><td style="vertical-align:top;">:</td><td><div>Your Name &lt;you@example.com&gt;</div></td></tr><tr><td style="font-weight:bold;vertical-align:top;">description</td><td style="vertical-align:top;">:</td><td><div>a cool new app</div></td></tr><tr><td style="font-weight:bold;vertical-align:top;">generator</td><td style="vertical-align:top;">:</td><td><div>Web2py Web Framework</div></td></tr><tr><td style="font-weight:bold;vertical-align:top;">keywords</td><td style="vertical-align:top;">:</td><td><div><table><tr><td><div>web2py</div></td></tr><tr><td><div>python</div></td></tr><tr><td><div>framework</div></td></tr></table></div></td></tr></table></div></td></tr><tr><td style="font-weight:bold;vertical-align:top;">models_to_run</td><td style="vertical-align:top;">:</td><td><div><table><tr><td><div>^\\w+\\.py$</div></td></tr><tr><td><div>^default/\\w+\\.py$</div></td></tr><tr><td><div>^default/welcome/\\w+\\.py$</div></td></tr></table></div></td></tr><tr><td style="font-weight:bold;vertical-align:top;">postprocessing</td><td style="vertical-align:top;">:</td><td><div><table></table></div></td></tr><tr><td style="font-weight:bold;vertical-align:top;">session_client</td><td style="vertical-align:top;">:</td><td><div>127.0.0.1</div></td></tr><tr><td style="font-weight:bold;vertical-align:top;">session_cookie_compression_level</td><td style="vertical-align:top;">:</td><td><div>None</div></td></tr><tr><td style="font-weight:bold;vertical-align:top;">session_cookie_expires</td><td style="vertical-align:top;">:</td><td><div>None</div></td></tr><tr><td style="font-weight:bold;vertical-align:top;">session_data_name</td><td style="vertical-align:top;">:</td><td><div>session_data_sispiosinconsultav2</div></td></tr><tr><td style="font-weight:bold;vertical-align:top;">session_file</td><td style="vertical-align:top;">:</td><td><div>&lt;open file &#x27;/home/aabv/Documentos/Web2py/web2py/applications/SisPIOSinConsultaV2/sessions/110/01f/127.0.0.1-4ba9e9a8-dcc3-446d-a49e-3a97541a998b&#x27;, mode &#x27;rb+&#x27; at 0x7f27eb1e9390&gt;</div></td></tr><tr><td style="font-weight:bold;vertical-align:top;">session_filename</td><td style="vertical-align:top;">:</td><td><div>/home/aabv/Documentos/Web2py/web2py/applications/SisPIOSinConsultaV2/sessions/127.0.0.1-4ba9e9a8-dcc3-446d-a49e-3a97541a998b</div></td></tr><tr><td style="font-weight:bold;vertical-align:top;">session_hash</td><td style="vertical-align:top;">:</td><td><div>05d4d1370be0b08150587eafe8726c9a</div></td></tr><tr><td style="font-weight:bold;vertical-align:top;">session_id</td><td style="vertical-align:top;">:</td><td><div>127.0.0.1-4ba9e9a8-dcc3-446d-a49e-3a97541a998b</div></td></tr><tr><td style="font-weight:bold;vertical-align:top;">session_id_name</td><td style="vertical-align:top;">:</td><td><div>session_id_sispiosinconsultav2</div></td></tr><tr><td style="font-weight:bold;vertical-align:top;">session_locked</td><td style="vertical-align:top;">:</td><td><div>True</div></td></tr><tr><td style="font-weight:bold;vertical-align:top;">session_masterapp</td><td style="vertical-align:top;">:</td><td><div>SisPIOSinConsultaV2</div></td></tr><tr><td style="font-weight:bold;vertical-align:top;">session_new</td><td style="vertical-align:top;">:</td><td><div>False</div></td></tr><tr><td style="font-weight:bold;vertical-align:top;">session_storage_type</td><td style="vertical-align:top;">:</td><td><div>file</div></td></tr><tr><td style="font-weight:bold;vertical-align:top;">status</td><td style="vertical-align:top;">:</td><td><div>200</div></td></tr><tr><td style="font-weight:bold;vertical-align:top;">subtitle</td><td style="vertical-align:top;">:</td><td><div></div></td></tr><tr><td style="font-weight:bold;vertical-align:top;">title</td><td style="vertical-align:top;">:</td><td><div>Sispiosinconsultav2</div></td></tr><tr><td style="font-weight:bold;vertical-align:top;">view</td><td style="vertical-align:top;">:</td><td><div>default/welcome.html</div></td></tr></table></div>'
tRp127
sS'locals'
p128
(dp129
S'Service'
p130
S"<class 'gluon.tools.Service'>"
p131
sS'OBJECT'
p132
S"<class 'gluon.html.OBJECT'>"
p133
sS'SQLDB'
p134
S"<class 'pydal.base.DAL'>"
p135
sg120
S"<Storage {'_auth_next': None, 'flash': None, 'au...f5580', 'b2d0e6b9-a2a4-448f-8ed3-81d3a7990ae8']}>"
p136
sS'LINK'
p137
S"<class 'gluon.html.LINK'>"
p138
sS'BR'
p139
S"<class 'gluon.html.BR'>"
p140
sS'local_import'
p141
S'<function <lambda>>'
p142
sS'OPTGROUP'
p143
S"<class 'gluon.html.OPTGROUP'>"
p144
sS'__package__'
p145
S'None'
p146
sS'PRE'
p147
S"<class 'gluon.html.PRE'>"
p148
sS'IS_INT_IN_RANGE'
p149
S"<class 'gluon.validators.IS_INT_IN_RANGE'>"
p150
sS'IS_LOWER'
p151
S"<class 'gluon.validators.IS_LOWER'>"
p152
sS'IS_STRONG'
p153
S"<class 'gluon.validators.IS_STRONG'>"
p154
sS'cache'
p155
S'<gluon.cache.Cache object>'
p156
sS'IS_IN_DB'
p157
S"<class 'gluon.validators.IS_IN_DB'>"
p158
sS'TAG'
p159
S'<gluon.html.__TAG__ object>'
p160
sS'SQLField'
p161
S"<class 'pydal.objects.Field'>"
p162
sS'mail'
p163
S'<gluon.tools.Mail object>'
p164
sS'BODY'
p165
S"<class 'gluon.html.BODY'>"
p166
sS'IS_DATE_IN_RANGE'
p167
S"<class 'gluon.validators.IS_DATE_IN_RANGE'>"
p168
sS'IFRAME'
p169
S"<class 'gluon.html.IFRAME'>"
p170
sS'URL'
p171
S'<function URL>'
p172
sS'__file__'
p173
S"'/home/aabv/Documentos/Web2py/web2py/applications/SisPIOSinConsultaV2/views/default/welcome.html'"
p174
sS'db'
p175
S'<DAL uri="postgres:******@localhost/SisPIO">'
p176
sS'auth'
p177
S'<gluon.tools.Auth object>'
p178
sS'P'
S"<class 'gluon.html.P'>"
p179
sS'TFOOT'
p180
S"<class 'gluon.html.TFOOT'>"
p181
sS'XHTML'
p182
S"<class 'gluon.html.XHTML'>"
p183
sS'ON'
p184
S'True'
p185
sS'OL'
p186
S"<class 'gluon.html.OL'>"
p187
sS'TEXTAREA'
p188
S"<class 'gluon.html.TEXTAREA'>"
p189
sS'MENU'
p190
S"<class 'gluon.html.MENU'>"
p191
sS'IS_IMAGE'
p192
S"<class 'gluon.validators.IS_IMAGE'>"
p193
sS'EM'
p194
S"<class 'gluon.html.EM'>"
p195
sS'CODE'
p196
S"<class 'gluon.html.CODE'>"
p197
sS'HTTP'
p198
S"<class 'gluon.http.HTTP'>"
p199
sS'HR'
p200
S"<class 'gluon.html.HR'>"
p201
sS'IS_DATETIME'
p202
S"<class 'gluon.validators.IS_DATETIME'>"
p203
sS'STYLE'
p204
S"<class 'gluon.html.STYLE'>"
p205
sS'LABEL'
p206
S"<class 'gluon.html.LABEL'>"
p207
sS'CLEANUP'
p208
S"<class 'gluon.validators.CLEANUP'>"
p209
sS'plugins'
p210
S'<gluon.tools.PluginManager object>'
p211
sS'SELECT'
p212
S"<class 'gluon.html.SELECT'>"
p213
sS'CENTER'
p214
S"<class 'gluon.html.CENTER'>"
p215
sS'Auth'
p216
S"<class 'gluon.tools.Auth'>"
p217
sS'DEVELOPMENT_MENU'
p218
g185
sS'__builtins__'
p219
S"{'ArithmeticError': <type 'exceptions.ArithmeticError'>, 'AssertionError': <type 'exceptions.AssertionError'>, 'AttributeError': <type 'exceptions.AttributeError'>, 'BaseException': <type 'exceptions.BaseException'>, 'BufferError': <type 'exceptions.BufferError'>, 'BytesWarning': <type 'exceptions.BytesWarning'>, 'DeprecationWarning': <type 'exceptions.DeprecationWarning'>, 'EOFError': <type 'exceptions.EOFError'>, 'Ellipsis': Ellipsis, 'EnvironmentError': <type 'exceptions.EnvironmentError'>, ...}"
p220
sS'HTML'
p221
S"<class 'gluon.html.HTML'>"
p222
sS'SQLFORM'
p223
S"<class 'gluon.sqlhtml.SQLFORM'>"
p224
sS'LOAD'
p225
S'<function LOAD>'
p226
sS'redirect'
p227
S'<function redirect>'
p228
sS'FIELDSET'
p229
S"<class 'gluon.html.FIELDSET'>"
p230
sS'IS_EQUAL_TO'
p231
S"<class 'gluon.validators.IS_EQUAL_TO'>"
p232
sS'embed64'
p233
S'<function embed64>'
p234
sS'IS_LIST_OF'
p235
S"<class 'gluon.validators.IS_LIST_OF'>"
p236
sS'INPUT'
p237
S"<class 'gluon.html.INPUT'>"
p238
sS'EMBED'
p239
S"<class 'gluon.html.EMBED'>"
p240
sS'_'
S'<function _>'
p241
sS'myconf'
p242
S"{'forms': {'formstyle': 'bootstrap3_inline', 'se...': {'names': 'localhost:*, 127.0.0.1:*, *:*, *'}}"
p243
sS'H2'
p244
S"<class 'gluon.html.H2'>"
p245
sS'H3'
p246
S"<class 'gluon.html.H3'>"
p247
sS'AppConfig'
p248
S'<function AppConfig>'
p249
sS'H1'
p250
S"<class 'gluon.html.H1'>"
p251
sS'H6'
p252
S"<class 'gluon.html.H6'>"
p253
sS'H4'
p254
S"<class 'gluon.html.H4'>"
p255
sS'H5'
p256
S"<class 'gluon.html.H5'>"
p257
sS'UL'
p258
S"<class 'gluon.html.UL'>"
p259
sS'IS_UPPER'
p260
S"<class 'gluon.validators.IS_UPPER'>"
p261
sS'xmlescape'
p262
S'<function xmlescape>'
p263
sS'IS_TIME'
p264
S"<class 'gluon.validators.IS_TIME'>"
p265
sS'OPTION'
p266
S"<class 'gluon.html.OPTION'>"
p267
sS'TITLE'
p268
S"<class 'gluon.html.TITLE'>"
p269
sS'CRYPT'
p270
S"<class 'gluon.validators.CRYPT'>"
p271
sS'IS_EMPTY_OR'
p272
S"<class 'gluon.validators.IS_EMPTY_OR'>"
p273
sS'MARKMIN'
p274
S"<class 'gluon.html.MARKMIN'>"
p275
sS'__name__'
p276
S"'__restricted__'"
p277
sS'STRONG'
p278
S"<class 'gluon.html.STRONG'>"
p279
sS'COL'
p280
S"<class 'gluon.html.COL'>"
p281
sS'IS_EMAIL'
p282
S"<class 'gluon.validators.IS_EMAIL'>"
p283
sS'service'
p284
S'<gluon.tools.Service object>'
p285
sS'SCRIPT'
p286
S"<class 'gluon.html.SCRIPT'>"
p287
sS'TABLE'
p288
S"<class 'gluon.html.TABLE'>"
p289
sS'IS_IPV4'
p290
S"<class 'gluon.validators.IS_IPV4'>"
p291
sS'IS_LENGTH'
p292
S"<class 'gluon.validators.IS_LENGTH'>"
p293
sS'IS_IPV6'
p294
S"<class 'gluon.validators.IS_IPV6'>"
p295
sS'XML'
p296
S"<class 'gluon.html.XML'>"
p297
sS'B'
S"<class 'gluon.html.B'>"
p298
sS'IMG'
p299
S"<class 'gluon.html.IMG'>"
p300
sS'SQLTABLE'
p301
S"<class 'gluon.sqlhtml.SQLTABLE'>"
p302
sS'IS_MATCH'
p303
S"<class 'gluon.validators.IS_MATCH'>"
p304
sS'IS_ALPHANUMERIC'
p305
S"<class 'gluon.validators.IS_ALPHANUMERIC'>"
p306
sS'SPAN'
p307
S"<class 'gluon.html.SPAN'>"
p308
sS'IS_JSON'
p309
S"<class 'gluon.validators.IS_JSON'>"
p310
sS'IS_IPADDRESS'
p311
S"<class 'gluon.validators.IS_IPADDRESS'>"
p312
sS'IS_SLUG'
p313
S"<class 'gluon.validators.IS_SLUG'>"
p314
sS'BEAUTIFY'
p315
S"<class 'gluon.html.BEAUTIFY'>"
p316
sS'META'
p317
S"<class 'gluon.html.META'>"
p318
sS'BUTTON'
p319
S"<class 'gluon.html.BUTTON'>"
p320
sS'IS_DATE'
p321
S"<class 'gluon.validators.IS_DATE'>"
p322
sS'formDatosBasicos'
p323
S'<gluon.sqlhtml.SQLFORM object>'
p324
sS'IS_NOT_EMPTY'
p325
S"<class 'gluon.validators.IS_NOT_EMPTY'>"
p326
sS'IS_FLOAT_IN_RANGE'
p327
S"<class 'gluon.validators.IS_FLOAT_IN_RANGE'>"
p328
sS'TBODY'
p329
S"<class 'gluon.html.TBODY'>"
p330
sS'CAT'
p331
S"<class 'gluon.html.CAT'>"
p332
sS'Field'
p333
S"<class 'pydal.objects.Field'>"
p334
sS'IS_LIST_OF_EMAILS'
p335
S"<class 'gluon.validators.IS_LIST_OF_EMAILS'>"
p336
sS'DIV'
p337
S"<class 'gluon.html.DIV'>"
p338
sS'LEGEND'
p339
S"<class 'gluon.html.LEGEND'>"
p340
sS'COLGROUP'
p341
S"<class 'gluon.html.COLGROUP'>"
p342
sS'DAL'
p343
S"<class 'pydal.base.DAL'>"
p344
sS'ASSIGNJS'
p345
S'<function ASSIGNJS>'
p346
sS'TR'
p347
S"<class 'gluon.html.TR'>"
p348
sS'LI'
p349
S"<class 'gluon.html.LI'>"
p350
sS'formEstudiante'
p351
S'<gluon.sqlhtml.SQLFORM object>'
p352
sS'TH'
p353
S"<class 'gluon.html.TH'>"
p354
sS'TD'
p355
S"<class 'gluon.html.TD'>"
p356
sS'PluginManager'
p357
S"<class 'gluon.tools.PluginManager'>"
p358
sS'IS_URL'
p359
S"<class 'gluon.validators.IS_URL'>"
p360
sS'A'
S"<class 'gluon.html.A'>"
p361
sS'HEAD'
p362
S"<class 'gluon.html.HEAD'>"
p363
sS'IS_DATETIME_IN_RANGE'
p364
S"<class 'gluon.validators.IS_DATETIME_IN_RANGE'>"
p365
sS'FORM'
p366
S"<class 'gluon.html.FORM'>"
p367
sS'I'
S"<class 'gluon.html.I'>"
p368
sS'IS_NOT_IN_DB'
p369
S"<class 'gluon.validators.IS_NOT_IN_DB'>"
p370
sg126
S"<Storage {'body': <cStringIO.StringO object at 0...0x7f27eb1c1a28>, 'view': 'default/welcome.html'}>"
p371
sS'THEAD'
p372
S"<class 'gluon.html.THEAD'>"
p373
sS'ANY_OF'
p374
S"<class 'gluon.validators.ANY_OF'>"
p375
sS'IS_NULL_OR'
p376
S"<class 'gluon.validators.IS_EMPTY_OR'>"
p377
sg56
S"<Storage {'_vars': None, 'function': 'welcome', ...eb2py/web2py/applications/SisPIOSinConsultaV2/'}>"
p378
sS'IS_EXPR'
p379
S"<class 'gluon.validators.IS_EXPR'>"
p380
sS'T'
S'<gluon.languages.translator object>'
p381
sS'IS_IN_SET'
p382
S"<class 'gluon.validators.IS_IN_SET'>"
p383
sS'IS_UPLOAD_FILENAME'
p384
S"<class 'gluon.validators.IS_UPLOAD_FILENAME'>"
p385
sS'TT'
p386
S"<class 'gluon.html.TT'>"
p387
sS'IS_DECIMAL_IN_RANGE'
p388
S"<class 'gluon.validators.IS_DECIMAL_IN_RANGE'>"
p389
sssS'traceback'
p390
S'Traceback (most recent call last):\n  File "/home/aabv/Documentos/Web2py/web2py/gluon/restricted.py", line 227, in restricted\n    exec ccode in environment\n  File "/home/aabv/Documentos/Web2py/web2py/applications/SisPIOSinConsultaV2/views/default/welcome.html", line 16, in <module>\n    <!-- HTML5 shim and Respond.js for IE8 support of HTML5 elements and media queries -->\nNameError: name \'usuario\' is not defined\n'
p391
s.