(dp1
S'output'
p2
S"<class 'gluon.contrib.pg8000.core.ProgrammingError'> (u'ERROR', u'ERROR', u'42703', u'no existe la columna estudiante.correo', u'71', u'parse_relation.c', u'3183', u'errorMissingColumn', u'', u'')"
p3
sS'layer'
p4
S'/home/mabraca/Documentos/universidad/Sistema de Informacion/web2py/applications/Lab/controllers/default.py'
p5
sS'code'
p6
S'<code object <module> at 0x7f318c2b0db0, file "/home/mabraca/Documentos/universidad/Sistema de Informacion/web2py/applications/Lab/controllers/default.py", line 10>'
p7
sS'snapshot'
p8
(dp9
S'exception'
p10
(dp11
S'__module__'
p12
S"'gluon.contrib.pg8000.core'"
p13
sS'__getslice__'
p14
S"<method-wrapper '__getslice__' of ProgrammingError object>"
p15
sS'__str__'
p16
S"<method-wrapper '__str__' of ProgrammingError object>"
p17
sS'__reduce__'
p18
S'<built-in method __reduce__ of ProgrammingError object>'
p19
sS'__dict__'
p20
S'{}'
p21
sS'__sizeof__'
p22
S'<built-in method __sizeof__ of ProgrammingError object>'
p23
sS'__weakref__'
p24
S'None'
p25
sS'message'
p26
S"''"
p27
sS'__init__'
p28
S"<method-wrapper '__init__' of ProgrammingError object>"
p29
sS'__setattr__'
p30
S"<method-wrapper '__setattr__' of ProgrammingError object>"
p31
sS'__reduce_ex__'
p32
S'<built-in method __reduce_ex__ of ProgrammingError object>'
p33
sS'__new__'
p34
S'<built-in method __new__ of type object>'
p35
sS'__format__'
p36
S'<built-in method __format__ of ProgrammingError object>'
p37
sS'__class__'
p38
S"<class 'gluon.contrib.pg8000.core.ProgrammingError'>"
p39
sS'__doc__'
p40
S"'Generic exception raised for programming errors....http://www.python.org/dev/peps/pep-0249/>`_.\\n    '"
p41
sS'__getitem__'
p42
S"<method-wrapper '__getitem__' of ProgrammingError object>"
p43
sS'__setstate__'
p44
S'<built-in method __setstate__ of ProgrammingError object>'
p45
sS'__getattribute__'
p46
S"<method-wrapper '__getattribute__' of ProgrammingError object>"
p47
sS'args'
p48
S"(u'ERROR', u'ERROR', u'42703', u'no existe la columna estudiante.correo', u'71', u'parse_relation.c', u'3183', u'errorMissingColumn', u'', u'')"
p49
sS'__subclasshook__'
p50
S'<built-in method __subclasshook__ of type object>'
p51
sS'__unicode__'
p52
S'<built-in method __unicode__ of ProgrammingError object>'
p53
sS'__delattr__'
p54
S"<method-wrapper '__delattr__' of ProgrammingError object>"
p55
sS'__repr__'
p56
S"<method-wrapper '__repr__' of ProgrammingError object>"
p57
sS'__hash__'
p58
S"<method-wrapper '__hash__' of ProgrammingError object>"
p59
ssS'evalue'
p60
S"(u'ERROR', u'ERROR', u'42703', u'no existe la columna estudiante.correo', u'71', u'parse_relation.c', u'3183', u'errorMissingColumn', u'', u'')"
p61
sS'request'
p62
cgluon.html
XML_unpickle
p63
(S's`f\x00\x00<div><table><tr><td style="font-weight:bold;vertical-align:top;">ajax</td><td style="vertical-align:top;">:</td><td><div>False</div></td></tr><tr><td style="font-weight:bold;vertical-align:top;">application</td><td style="vertical-align:top;">:</td><td><div>Lab</div></td></tr><tr><td style="font-weight:bold;vertical-align:top;">args</td><td style="vertical-align:top;">:</td><td><div><table></table></div></td></tr><tr><td style="font-weight:bold;vertical-align:top;">cid</td><td style="vertical-align:top;">:</td><td><div>None</div></td></tr><tr><td style="font-weight:bold;vertical-align:top;">client</td><td style="vertical-align:top;">:</td><td><div>127.0.0.1</div></td></tr><tr><td style="font-weight:bold;vertical-align:top;">controller</td><td style="vertical-align:top;">:</td><td><div>default</div></td></tr><tr><td style="font-weight:bold;vertical-align:top;">cookies</td><td style="vertical-align:top;">:</td><td><div><table><tr><td style="font-weight:bold;vertical-align:top;">session_id_admin</td><td style="vertical-align:top;">:</td><td><div>127.0.0.1-1fed2a89-2c45-462f-8596-13e7248bf095<table><tr><td style="font-weight:bold;vertical-align:top;">comment</td><td style="vertical-align:top;">:</td><td><div></div></td></tr><tr><td style="font-weight:bold;vertical-align:top;">domain</td><td style="vertical-align:top;">:</td><td><div></div></td></tr><tr><td style="font-weight:bold;vertical-align:top;">expires</td><td style="vertical-align:top;">:</td><td><div></div></td></tr><tr><td style="font-weight:bold;vertical-align:top;">httponly</td><td style="vertical-align:top;">:</td><td><div></div></td></tr><tr><td style="font-weight:bold;vertical-align:top;">max-age</td><td style="vertical-align:top;">:</td><td><div></div></td></tr><tr><td style="font-weight:bold;vertical-align:top;">path</td><td style="vertical-align:top;">:</td><td><div></div></td></tr><tr><td style="font-weight:bold;vertical-align:top;">secure</td><td style="vertical-align:top;">:</td><td><div></div></td></tr><tr><td style="font-weight:bold;vertical-align:top;">version</td><td style="vertical-align:top;">:</td><td><div></div></td></tr></table></div></td></tr><tr><td style="font-weight:bold;vertical-align:top;">session_id_lab</td><td style="vertical-align:top;">:</td><td><div>127.0.0.1-5ac1ab07-69db-4da3-9aa2-31f01ac41e8c<table><tr><td style="font-weight:bold;vertical-align:top;">comment</td><td style="vertical-align:top;">:</td><td><div></div></td></tr><tr><td style="font-weight:bold;vertical-align:top;">domain</td><td style="vertical-align:top;">:</td><td><div></div></td></tr><tr><td style="font-weight:bold;vertical-align:top;">expires</td><td style="vertical-align:top;">:</td><td><div></div></td></tr><tr><td style="font-weight:bold;vertical-align:top;">httponly</td><td style="vertical-align:top;">:</td><td><div></div></td></tr><tr><td style="font-weight:bold;vertical-align:top;">max-age</td><td style="vertical-align:top;">:</td><td><div></div></td></tr><tr><td style="font-weight:bold;vertical-align:top;">path</td><td style="vertical-align:top;">:</td><td><div></div></td></tr><tr><td style="font-weight:bold;vertical-align:top;">secure</td><td style="vertical-align:top;">:</td><td><div></div></td></tr><tr><td style="font-weight:bold;vertical-align:top;">version</td><td style="vertical-align:top;">:</td><td><div></div></td></tr></table></div></td></tr><tr><td style="font-weight:bold;vertical-align:top;">session_id_welcome</td><td style="vertical-align:top;">:</td><td><div>127.0.0.1-2d808e03-fae9-4ac9-8480-bb0dd3a2083c<table><tr><td style="font-weight:bold;vertical-align:top;">comment</td><td style="vertical-align:top;">:</td><td><div></div></td></tr><tr><td style="font-weight:bold;vertical-align:top;">domain</td><td style="vertical-align:top;">:</td><td><div></div></td></tr><tr><td style="font-weight:bold;vertical-align:top;">expires</td><td style="vertical-align:top;">:</td><td><div></div></td></tr><tr><td style="font-weight:bold;vertical-align:top;">httponly</td><td style="vertical-align:top;">:</td><td><div></div></td></tr><tr><td style="font-weight:bold;vertical-align:top;">max-age</td><td style="vertical-align:top;">:</td><td><div></div></td></tr><tr><td style="font-weight:bold;vertical-align:top;">path</td><td style="vertical-align:top;">:</td><td><div></div></td></tr><tr><td style="font-weight:bold;vertical-align:top;">secure</td><td style="vertical-align:top;">:</td><td><div></div></td></tr><tr><td style="font-weight:bold;vertical-align:top;">version</td><td style="vertical-align:top;">:</td><td><div></div></td></tr></table></div></td></tr></table></div></td></tr><tr><td style="font-weight:bold;vertical-align:top;">env</td><td style="vertical-align:top;">:</td><td><div><table><tr><td style="font-weight:bold;vertical-align:top;">CONTENT_LENGTH</td><td style="vertical-align:top;">:</td><td><div>775</div></td></tr><tr><td style="font-weight:bold;vertical-align:top;">CONTENT_TYPE</td><td style="vertical-align:top;">:</td><td><div>multipart/form-data; boundary=----WebKitFormBoundaryETFtHelADb8DAKnA</div></td></tr><tr><td style="font-weight:bold;vertical-align:top;">HTTP_ACCEPT</td><td style="vertical-align:top;">:</td><td><div>text/html,application/xhtml+xml,application/xml;q=0.9,image/webp,image/apng,*/*;q=0.8</div></td></tr><tr><td style="font-weight:bold;vertical-align:top;">HTTP_ACCEPT_ENCODING</td><td style="vertical-align:top;">:</td><td><div>gzip, deflate, br</div></td></tr><tr><td style="font-weight:bold;vertical-align:top;">HTTP_ACCEPT_LANGUAGE</td><td style="vertical-align:top;">:</td><td><div>es-ES,es;q=0.8</div></td></tr><tr><td style="font-weight:bold;vertical-align:top;">HTTP_CACHE_CONTROL</td><td style="vertical-align:top;">:</td><td><div>max-age=0</div></td></tr><tr><td style="font-weight:bold;vertical-align:top;">HTTP_CONNECTION</td><td style="vertical-align:top;">:</td><td><div>keep-alive</div></td></tr><tr><td style="font-weight:bold;vertical-align:top;">HTTP_CONTENT_LENGTH</td><td style="vertical-align:top;">:</td><td><div>775</div></td></tr><tr><td style="font-weight:bold;vertical-align:top;">HTTP_CONTENT_TYPE</td><td style="vertical-align:top;">:</td><td><div>multipart/form-data; boundary=----WebKitFormBoundaryETFtHelADb8DAKnA</div></td></tr><tr><td style="font-weight:bold;vertical-align:top;">HTTP_COOKIE</td><td style="vertical-align:top;">:</td><td><div>session_id_welcome=127.0.0.1-2d808e03-fae9-4ac9-8480-bb0dd3a2083c; session_id_admin=127.0.0.1-1fed2a89-2c45-462f-8596-13e7248bf095; session_id_lab=127.0.0.1-5ac1ab07-69db-4da3-9aa2-31f01ac41e8c</div></td></tr><tr><td style="font-weight:bold;vertical-align:top;">HTTP_HOST</td><td style="vertical-align:top;">:</td><td><div>127.0.0.1:8000</div></td></tr><tr><td style="font-weight:bold;vertical-align:top;">HTTP_ORIGIN</td><td style="vertical-align:top;">:</td><td><div>http://127.0.0.1:8000</div></td></tr><tr><td style="font-weight:bold;vertical-align:top;">HTTP_REFERER</td><td style="vertical-align:top;">:</td><td><div>http://127.0.0.1:8000/Lab/default/admin</div></td></tr><tr><td style="font-weight:bold;vertical-align:top;">HTTP_UPGRADE_INSECURE_REQUESTS</td><td style="vertical-align:top;">:</td><td><div>1</div></td></tr><tr><td style="font-weight:bold;vertical-align:top;">HTTP_USER_AGENT</td><td style="vertical-align:top;">:</td><td><div>Mozilla/5.0 (X11; Linux x86_64) AppleWebKit/537.36 (KHTML, like Gecko) Ubuntu Chromium/61.0.3163.100 Chrome/61.0.3163.100 Safari/537.36</div></td></tr><tr><td style="font-weight:bold;vertical-align:top;">PATH_INFO</td><td style="vertical-align:top;">:</td><td><div>/Lab/default/admin</div></td></tr><tr><td style="font-weight:bold;vertical-align:top;">QUERY_STRING</td><td style="vertical-align:top;">:</td><td><div></div></td></tr><tr><td style="font-weight:bold;vertical-align:top;">REMOTE_ADDR</td><td style="vertical-align:top;">:</td><td><div>127.0.0.1</div></td></tr><tr><td style="font-weight:bold;vertical-align:top;">REMOTE_PORT</td><td style="vertical-align:top;">:</td><td><div>56072</div></td></tr><tr><td style="font-weight:bold;vertical-align:top;">REQUEST_METHOD</td><td style="vertical-align:top;">:</td><td><div>POST</div></td></tr><tr><td style="font-weight:bold;vertical-align:top;">SCRIPT_NAME</td><td style="vertical-align:top;">:</td><td><div></div></td></tr><tr><td style="font-weight:bold;vertical-align:top;">SERVER_NAME</td><td style="vertical-align:top;">:</td><td><div>Mabraca</div></td></tr><tr><td style="font-weight:bold;vertical-align:top;">SERVER_PORT</td><td style="vertical-align:top;">:</td><td><div>8000</div></td></tr><tr><td style="font-weight:bold;vertical-align:top;">SERVER_PROTOCOL</td><td style="vertical-align:top;">:</td><td><div>HTTP/1.1</div></td></tr><tr><td style="font-weight:bold;vertical-align:top;">SERVER_SOFTWARE</td><td style="vertical-align:top;">:</td><td><div>Rocket 1.2.6</div></td></tr><tr><td style="font-weight:bold;vertical-align:top;">app_folders</td><td style="vertical-align:top;">:</td><td><div>set([&#x27;/home/mabraca/Documentos/universidad/Sistema de Informacion/web2py/applications/welcome/&#x27;, &#x27;/home/mabraca/Documentos/universidad/Sistema de Informacion/web2py/applications/admin/&#x27;, &#x27;/home/mabraca/Documentos/universidad/Sistema de Informacion/web2py/applications/Lab/&#x27;])</div></td></tr><tr><td style="font-weight:bold;vertical-align:top;">applications_parent</td><td style="vertical-align:top;">:</td><td><div>/home/mabraca/Documentos/universidad/Sistema de Informacion/web2py</div></td></tr><tr><td style="font-weight:bold;vertical-align:top;">cmd_args</td><td style="vertical-align:top;">:</td><td><div><table></table></div></td></tr><tr><td style="font-weight:bold;vertical-align:top;">cmd_options</td><td style="vertical-align:top;">:</td><td><div>&lt;Values at 0x7f31a7a36bd8: {&#x27;verbose&#x27;: False, &#x27;ip&#x27;: &#x27;127.0.0.1&#x27;, &#x27;debuglevel&#x27;: 30, &#x27;with_scheduler&#x27;: False, &#x27;shutdown_timeout&#x27;: 5, &#x27;taskbar&#x27;: False, &#x27;with_coverage&#x27;: False, &#x27;pid_filename&#x27;: &#x27;httpserver.pid&#x27;, &#x27;maxthreads&#x27;: None, &#x27;softcron&#x27;: False, &#x27;server_name&#x27;: &#x27;Mabraca&#x27;, &#x27;bpython&#x27;: False, &#x27;nogui&#x27;: False, &#x27;port&#x27;: 8000, &#x27;print_errors&#x27;: False, &#x27;extcron&#x27;: False, &#x27;runcron&#x27;: False, &#x27;run_system_tests&#x27;: False, &#x27;test&#x27;: None, &#x27;folder&#x27;: &#x27;/home/mabraca/Documentos/universidad/Sistema de Informacion/web2py&#x27;, &#x27;config&#x27;: &#x27;&#x27;, &#x27;minthreads&#x27;: None, &#x27;shell&#x27;: None, &#x27;run&#x27;: &#x27;&#x27;, &#x27;log_filename&#x27;: &#x27;httpserver.log&#x27;, &#x27;profiler_dir&#x27;: None, &#x27;args&#x27;: [&#x27;&#x27;], &#x27;socket_timeout&#x27;: 5, &#x27;ssl_ca_certificate&#x27;: None, &#x27;scheduler&#x27;: None, &#x27;interfaces&#x27;: None, &#x27;ssl_private_key&#x27;: &#x27;&#x27;, &#x27;gae&#x27;: None, &#x27;password&#x27;: &#x27;******&#x27;, &#x27;request_queue_size&#x27;: 5, &#x27;ssl_certificate&#x27;: &#x27;&#x27;, &#x27;cronjob&#x27;: False, &#x27;numthreads&#x27;: None, &#x27;quiet&#x27;: False, &#x27;import_models&#x27;: False, &#x27;timeout&#x27;: 10, &#x27;plain&#x27;: False, &#x27;nobanner&#x27;: False}&gt;</div></td></tr><tr><td style="font-weight:bold;vertical-align:top;">content_length</td><td style="vertical-align:top;">:</td><td><div>775</div></td></tr><tr><td style="font-weight:bold;vertical-align:top;">content_type</td><td style="vertical-align:top;">:</td><td><div>multipart/form-data; boundary=----WebKitFormBoundaryETFtHelADb8DAKnA</div></td></tr><tr><td style="font-weight:bold;vertical-align:top;">db_sessions</td><td style="vertical-align:top;">:</td><td><div>set([])</div></td></tr><tr><td style="font-weight:bold;vertical-align:top;">debugging</td><td style="vertical-align:top;">:</td><td><div>False</div></td></tr><tr><td style="font-weight:bold;vertical-align:top;">gluon_parent</td><td style="vertical-align:top;">:</td><td><div>/home/mabraca/Documentos/universidad/Sistema de Informacion/web2py</div></td></tr><tr><td style="font-weight:bold;vertical-align:top;">http_accept</td><td style="vertical-align:top;">:</td><td><div>text/html,application/xhtml+xml,application/xml;q=0.9,image/webp,image/apng,*/*;q=0.8</div></td></tr><tr><td style="font-weight:bold;vertical-align:top;">http_accept_encoding</td><td style="vertical-align:top;">:</td><td><div>gzip, deflate, br</div></td></tr><tr><td style="font-weight:bold;vertical-align:top;">http_accept_language</td><td style="vertical-align:top;">:</td><td><div>es-ES,es;q=0.8</div></td></tr><tr><td style="font-weight:bold;vertical-align:top;">http_cache_control</td><td style="vertical-align:top;">:</td><td><div>max-age=0</div></td></tr><tr><td style="font-weight:bold;vertical-align:top;">http_connection</td><td style="vertical-align:top;">:</td><td><div>keep-alive</div></td></tr><tr><td style="font-weight:bold;vertical-align:top;">http_content_length</td><td style="vertical-align:top;">:</td><td><div>775</div></td></tr><tr><td style="font-weight:bold;vertical-align:top;">http_content_type</td><td style="vertical-align:top;">:</td><td><div>multipart/form-data; boundary=----WebKitFormBoundaryETFtHelADb8DAKnA</div></td></tr><tr><td style="font-weight:bold;vertical-align:top;">http_cookie</td><td style="vertical-align:top;">:</td><td><div>session_id_welcome=127.0.0.1-2d808e03-fae9-4ac9-8480-bb0dd3a2083c; session_id_admin=127.0.0.1-1fed2a89-2c45-462f-8596-13e7248bf095; session_id_lab=127.0.0.1-5ac1ab07-69db-4da3-9aa2-31f01ac41e8c</div></td></tr><tr><td style="font-weight:bold;vertical-align:top;">http_host</td><td style="vertical-align:top;">:</td><td><div>127.0.0.1:8000</div></td></tr><tr><td style="font-weight:bold;vertical-align:top;">http_origin</td><td style="vertical-align:top;">:</td><td><div>http://127.0.0.1:8000</div></td></tr><tr><td style="font-weight:bold;vertical-align:top;">http_referer</td><td style="vertical-align:top;">:</td><td><div>http://127.0.0.1:8000/Lab/default/admin</div></td></tr><tr><td style="font-weight:bold;vertical-align:top;">http_upgrade_insecure_requests</td><td style="vertical-align:top;">:</td><td><div>1</div></td></tr><tr><td style="font-weight:bold;vertical-align:top;">http_user_agent</td><td style="vertical-align:top;">:</td><td><div>Mozilla/5.0 (X11; Linux x86_64) AppleWebKit/537.36 (KHTML, like Gecko) Ubuntu Chromium/61.0.3163.100 Chrome/61.0.3163.100 Safari/537.36</div></td></tr><tr><td style="font-weight:bold;vertical-align:top;">is_jython</td><td style="vertical-align:top;">:</td><td><div>False</div></td></tr><tr><td style="font-weight:bold;vertical-align:top;">is_py2</td><td style="vertical-align:top;">:</td><td><div>True</div></td></tr><tr><td style="font-weight:bold;vertical-align:top;">is_pypy</td><td style="vertical-align:top;">:</td><td><div>False</div></td></tr><tr><td style="font-weight:bold;vertical-align:top;">is_source</td><td style="vertical-align:top;">:</td><td><div>True</div></td></tr><tr><td style="font-weight:bold;vertical-align:top;">local_hosts</td><td style="vertical-align:top;">:</td><td><div><table><tr><td><div>::1</div></td></tr><tr><td><div>127.0.1.1</div></td></tr><tr><td><div>Mabraca</div></td></tr><tr><td><div>::ffff:127.0.0.1</div></td></tr><tr><td><div>127.0.0.1</div></td></tr></table></div></td></tr><tr><td style="font-weight:bold;vertical-align:top;">path_info</td><td style="vertical-align:top;">:</td><td><div>/Lab/default/admin</div></td></tr><tr><td style="font-weight:bold;vertical-align:top;">query_string</td><td style="vertical-align:top;">:</td><td><div></div></td></tr><tr><td style="font-weight:bold;vertical-align:top;">remote_addr</td><td style="vertical-align:top;">:</td><td><div>127.0.0.1</div></td></tr><tr><td style="font-weight:bold;vertical-align:top;">remote_port</td><td style="vertical-align:top;">:</td><td><div>56072</div></td></tr><tr><td style="font-weight:bold;vertical-align:top;">request_method</td><td style="vertical-align:top;">:</td><td><div>POST</div></td></tr><tr><td style="font-weight:bold;vertical-align:top;">request_uri</td><td style="vertical-align:top;">:</td><td><div>/Lab/default/admin</div></td></tr><tr><td style="font-weight:bold;vertical-align:top;">script_name</td><td style="vertical-align:top;">:</td><td><div></div></td></tr><tr><td style="font-weight:bold;vertical-align:top;">server_name</td><td style="vertical-align:top;">:</td><td><div>Mabraca</div></td></tr><tr><td style="font-weight:bold;vertical-align:top;">server_port</td><td style="vertical-align:top;">:</td><td><div>8000</div></td></tr><tr><td style="font-weight:bold;vertical-align:top;">server_protocol</td><td style="vertical-align:top;">:</td><td><div>HTTP/1.1</div></td></tr><tr><td style="font-weight:bold;vertical-align:top;">server_software</td><td style="vertical-align:top;">:</td><td><div>Rocket 1.2.6</div></td></tr><tr><td style="font-weight:bold;vertical-align:top;">web2py_path</td><td style="vertical-align:top;">:</td><td><div>/home/mabraca/Documentos/universidad/Sistema de Informacion/web2py</div></td></tr><tr><td style="font-weight:bold;vertical-align:top;">web2py_version</td><td style="vertical-align:top;">:</td><td><div>2.15.4-stable+timestamp.2017.09.02.04.02.22</div></td></tr><tr><td style="font-weight:bold;vertical-align:top;">wsgi.errors</td><td style="vertical-align:top;">:</td><td><div>&lt;open file &#x27;&lt;stderr&gt;&#x27;, mode &#x27;w&#x27; at 0x7f31af6f01e0&gt;</div></td></tr><tr><td style="font-weight:bold;vertical-align:top;">wsgi.file_wrapper</td><td style="vertical-align:top;">:</td><td><div>&lt;class wsgiref.util.FileWrapper at 0x7f31a7a5f8d8&gt;</div></td></tr><tr><td style="font-weight:bold;vertical-align:top;">wsgi.input</td><td style="vertical-align:top;">:</td><td><div>&lt;socket._fileobject object at 0x7f31ad55ce50&gt;</div></td></tr><tr><td style="font-weight:bold;vertical-align:top;">wsgi.multiprocess</td><td style="vertical-align:top;">:</td><td><div>False</div></td></tr><tr><td style="font-weight:bold;vertical-align:top;">wsgi.multithread</td><td style="vertical-align:top;">:</td><td><div>True</div></td></tr><tr><td style="font-weight:bold;vertical-align:top;">wsgi.run_once</td><td style="vertical-align:top;">:</td><td><div>False</div></td></tr><tr><td style="font-weight:bold;vertical-align:top;">wsgi.url_scheme</td><td style="vertical-align:top;">:</td><td><div>http</div></td></tr><tr><td style="font-weight:bold;vertical-align:top;">wsgi.version</td><td style="vertical-align:top;">:</td><td><div><table><tr><td><div>1</div></td></tr><tr><td><div>0</div></td></tr></table></div></td></tr><tr><td style="font-weight:bold;vertical-align:top;">wsgi_errors</td><td style="vertical-align:top;">:</td><td><div>&lt;open file &#x27;&lt;stderr&gt;&#x27;, mode &#x27;w&#x27; at 0x7f31af6f01e0&gt;</div></td></tr><tr><td style="font-weight:bold;vertical-align:top;">wsgi_file_wrapper</td><td style="vertical-align:top;">:</td><td><div>&lt;class wsgiref.util.FileWrapper at 0x7f31a7a5f8d8&gt;</div></td></tr><tr><td style="font-weight:bold;vertical-align:top;">wsgi_input</td><td style="vertical-align:top;">:</td><td><div>&lt;socket._fileobject object at 0x7f31ad55ce50&gt;</div></td></tr><tr><td style="font-weight:bold;vertical-align:top;">wsgi_multiprocess</td><td style="vertical-align:top;">:</td><td><div>False</div></td></tr><tr><td style="font-weight:bold;vertical-align:top;">wsgi_multithread</td><td style="vertical-align:top;">:</td><td><div>True</div></td></tr><tr><td style="font-weight:bold;vertical-align:top;">wsgi_run_once</td><td style="vertical-align:top;">:</td><td><div>False</div></td></tr><tr><td style="font-weight:bold;vertical-align:top;">wsgi_url_scheme</td><td style="vertical-align:top;">:</td><td><div>http</div></td></tr><tr><td style="font-weight:bold;vertical-align:top;">wsgi_version</td><td style="vertical-align:top;">:</td><td><div><table><tr><td><div>1</div></td></tr><tr><td><div>0</div></td></tr></table></div></td></tr></table></div></td></tr><tr><td style="font-weight:bold;vertical-align:top;">extension</td><td style="vertical-align:top;">:</td><td><div>html</div></td></tr><tr><td style="font-weight:bold;vertical-align:top;">folder</td><td style="vertical-align:top;">:</td><td><div>/home/mabraca/Documentos/universidad/Sistema de Informacion/web2py/applications/Lab/</div></td></tr><tr><td style="font-weight:bold;vertical-align:top;">function</td><td style="vertical-align:top;">:</td><td><div>admin</div></td></tr><tr><td style="font-weight:bold;vertical-align:top;">global_settings</td><td style="vertical-align:top;">:</td><td><div><table><tr><td style="font-weight:bold;vertical-align:top;">app_folders</td><td style="vertical-align:top;">:</td><td><div>set([&#x27;/home/mabraca/Documentos/universidad/Sistema de Informacion/web2py/applications/welcome/&#x27;, &#x27;/home/mabraca/Documentos/universidad/Sistema de Informacion/web2py/applications/admin/&#x27;, &#x27;/home/mabraca/Documentos/universidad/Sistema de Informacion/web2py/applications/Lab/&#x27;])</div></td></tr><tr><td style="font-weight:bold;vertical-align:top;">applications_parent</td><td style="vertical-align:top;">:</td><td><div>/home/mabraca/Documentos/universidad/Sistema de Informacion/web2py</div></td></tr><tr><td style="font-weight:bold;vertical-align:top;">cmd_args</td><td style="vertical-align:top;">:</td><td><div><table></table></div></td></tr><tr><td style="font-weight:bold;vertical-align:top;">cmd_options</td><td style="vertical-align:top;">:</td><td><div>&lt;Values at 0x7f31a7a36bd8: {&#x27;verbose&#x27;: False, &#x27;ip&#x27;: &#x27;127.0.0.1&#x27;, &#x27;debuglevel&#x27;: 30, &#x27;with_scheduler&#x27;: False, &#x27;shutdown_timeout&#x27;: 5, &#x27;taskbar&#x27;: False, &#x27;with_coverage&#x27;: False, &#x27;pid_filename&#x27;: &#x27;httpserver.pid&#x27;, &#x27;maxthreads&#x27;: None, &#x27;softcron&#x27;: False, &#x27;server_name&#x27;: &#x27;Mabraca&#x27;, &#x27;bpython&#x27;: False, &#x27;nogui&#x27;: False, &#x27;port&#x27;: 8000, &#x27;print_errors&#x27;: False, &#x27;extcron&#x27;: False, &#x27;runcron&#x27;: False, &#x27;run_system_tests&#x27;: False, &#x27;test&#x27;: None, &#x27;folder&#x27;: &#x27;/home/mabraca/Documentos/universidad/Sistema de Informacion/web2py&#x27;, &#x27;config&#x27;: &#x27;&#x27;, &#x27;minthreads&#x27;: None, &#x27;shell&#x27;: None, &#x27;run&#x27;: &#x27;&#x27;, &#x27;log_filename&#x27;: &#x27;httpserver.log&#x27;, &#x27;profiler_dir&#x27;: None, &#x27;args&#x27;: [&#x27;&#x27;], &#x27;socket_timeout&#x27;: 5, &#x27;ssl_ca_certificate&#x27;: None, &#x27;scheduler&#x27;: None, &#x27;interfaces&#x27;: None, &#x27;ssl_private_key&#x27;: &#x27;&#x27;, &#x27;gae&#x27;: None, &#x27;password&#x27;: &#x27;******&#x27;, &#x27;request_queue_size&#x27;: 5, &#x27;ssl_certificate&#x27;: &#x27;&#x27;, &#x27;cronjob&#x27;: False, &#x27;numthreads&#x27;: None, &#x27;quiet&#x27;: False, &#x27;import_models&#x27;: False, &#x27;timeout&#x27;: 10, &#x27;plain&#x27;: False, &#x27;nobanner&#x27;: False}&gt;</div></td></tr><tr><td style="font-weight:bold;vertical-align:top;">db_sessions</td><td style="vertical-align:top;">:</td><td><div>set([])</div></td></tr><tr><td style="font-weight:bold;vertical-align:top;">debugging</td><td style="vertical-align:top;">:</td><td><div>False</div></td></tr><tr><td style="font-weight:bold;vertical-align:top;">gluon_parent</td><td style="vertical-align:top;">:</td><td><div>/home/mabraca/Documentos/universidad/Sistema de Informacion/web2py</div></td></tr><tr><td style="font-weight:bold;vertical-align:top;">is_jython</td><td style="vertical-align:top;">:</td><td><div>False</div></td></tr><tr><td style="font-weight:bold;vertical-align:top;">is_py2</td><td style="vertical-align:top;">:</td><td><div>True</div></td></tr><tr><td style="font-weight:bold;vertical-align:top;">is_pypy</td><td style="vertical-align:top;">:</td><td><div>False</div></td></tr><tr><td style="font-weight:bold;vertical-align:top;">is_source</td><td style="vertical-align:top;">:</td><td><div>True</div></td></tr><tr><td style="font-weight:bold;vertical-align:top;">local_hosts</td><td style="vertical-align:top;">:</td><td><div><table><tr><td><div>::1</div></td></tr><tr><td><div>127.0.1.1</div></td></tr><tr><td><div>Mabraca</div></td></tr><tr><td><div>::ffff:127.0.0.1</div></td></tr><tr><td><div>127.0.0.1</div></td></tr></table></div></td></tr><tr><td style="font-weight:bold;vertical-align:top;">web2py_version</td><td style="vertical-align:top;">:</td><td><div>2.15.4-stable+timestamp.2017.09.02.04.02.22</div></td></tr></table></div></td></tr><tr><td style="font-weight:bold;vertical-align:top;">is_https</td><td style="vertical-align:top;">:</td><td><div>False</div></td></tr><tr><td style="font-weight:bold;vertical-align:top;">is_local</td><td style="vertical-align:top;">:</td><td><div>True</div></td></tr><tr><td style="font-weight:bold;vertical-align:top;">is_restful</td><td style="vertical-align:top;">:</td><td><div>False</div></td></tr><tr><td style="font-weight:bold;vertical-align:top;">is_scheduler</td><td style="vertical-align:top;">:</td><td><div>False</div></td></tr><tr><td style="font-weight:bold;vertical-align:top;">is_shell</td><td style="vertical-align:top;">:</td><td><div>False</div></td></tr><tr><td style="font-weight:bold;vertical-align:top;">now</td><td style="vertical-align:top;">:</td><td><div>datetime.datetime(2017, 10, 24, 20, 48, 24, 269177)</div></td></tr><tr><td style="font-weight:bold;vertical-align:top;">raw_args</td><td style="vertical-align:top;">:</td><td><div></div></td></tr><tr><td style="font-weight:bold;vertical-align:top;">raw_extension</td><td style="vertical-align:top;">:</td><td><div>None</div></td></tr><tr><td style="font-weight:bold;vertical-align:top;">url</td><td style="vertical-align:top;">:</td><td><div>/Lab/default/admin</div></td></tr><tr><td style="font-weight:bold;vertical-align:top;">utcnow</td><td style="vertical-align:top;">:</td><td><div>datetime.datetime(2017, 10, 25, 0, 48, 24, 269250)</div></td></tr><tr><td style="font-weight:bold;vertical-align:top;">wsgi</td><td style="vertical-align:top;">:</td><td><div>&lt;gluon.main.LazyWSGI object at 0x7f318c156910&gt;</div></td></tr></table></div>'
tRp64
sS'frames'
p65
(lp66
(dp67
S'file'
p68
S'/home/mabraca/Documentos/universidad/Sistema de Informacion/web2py/gluon/restricted.py'
p69
sS'dump'
p70
(dp71
S'environment'
p72
S"{'A': <class 'gluon.html.A'>, 'ANY_OF': <class 'gluon.validators.ANY_OF'>, 'ASSIGNJS': <function ASSIGNJS>, 'AppConfig': <function AppConfig>, 'Auth': <class 'gluon.tools.Auth'>, 'B': <class 'gluon.html.B'>, 'BEAUTIFY': <class 'gluon.html.BEAUTIFY'>, 'BODY': <class 'gluon.html.BODY'>, 'BR': <class 'gluon.html.BR'>, 'BUTTON': <class 'gluon.html.BUTTON'>, ...}"
p73
sS'ccode'
p74
S'<code object <module> at 0x7f318c2b0db0, file "/...pplications/Lab/controllers/default.py", line 10>'
p75
ssS'lnum'
p76
I219
sS'lines'
p77
(dp78
I214
S'    if environment is None:'
p79
sI215
S'        environment = {}'
p80
sI216
S"    environment['__file__'] = layer"
p81
sI217
S"    environment['__name__'] = '__restricted__'"
p82
sI218
S'    try:'
p83
sI219
S'        exec(ccode, environment)'
p84
sI220
S'    except HTTP:'
p85
sI221
S'        raise'
p86
sI222
S'    except RestrictedError:'
p87
sI223
S'        # do not encapsulate (obfuscate) the original RestrictedError'
p88
ssS'call'
p89
S'(ccode=<code object <module> at 0x7f318c2b0db0, file "/...pplications/Lab/controllers/default.py", line 10>, environment={\'A\': <class \'gluon.html.A\'>, \'ANY_OF\': <class \'gluon.validators.ANY_OF\'>, \'ASSIGNJS\': <function ASSIGNJS>, \'AppConfig\': <function AppConfig>, \'Auth\': <class \'gluon.tools.Auth\'>, \'B\': <class \'gluon.html.B\'>, \'BEAUTIFY\': <class \'gluon.html.BEAUTIFY\'>, \'BODY\': <class \'gluon.html.BODY\'>, \'BR\': <class \'gluon.html.BR\'>, \'BUTTON\': <class \'gluon.html.BUTTON\'>, ...}, layer=\'/home/mabraca/Documentos/universidad/Sistema de ...on/web2py/applications/Lab/controllers/default.py\', scode=<code object <module> at 0x7f318c2b0db0, file "/...pplications/Lab/controllers/default.py", line 10>)'
p90
sS'func'
p91
S'restricted'
p92
sa(dp93
g68
S'/home/mabraca/Documentos/universidad/Sistema de Informacion/web2py/applications/Lab/controllers/default.py'
p94
sg70
(dp95
sg76
I720
sg77
(dp96
I709
S''
sI710
S'    elif formEstudiante.errors:'
p97
sI711
S'        #error = True'
p98
sI712
S"        response.flash = 'Hay un error en un campo.'"
p99
sI713
S''
sI714
S'    ############################'
p100
sI715
S'    ###fin de Consula de datos'
p101
sI716
S'    ############################'
p102
sI717
S''
sI718
S'    return dict(formDatosBasicos = formDatosBasicos, formEstudiante = formEstudiante)'
p103
ssg89
S'()'
p104
sg91
S'<module>'
p105
sa(dp106
g68
S'/home/mabraca/Documentos/universidad/Sistema de Informacion/web2py/gluon/globals.py'
p107
sg70
(dp108
S'self'
p109
S'undefined'
p110
sS'f'
S'<function admin>'
p111
ssg76
I414
sg77
(dp112
I416
S'        self._custom_commit = None'
p113
sI417
S'        self._custom_rollback = None'
p114
sI418
S"        self.generic_patterns = ['*']"
p115
sI409
S"        self.flash = ''            # used by the default view layout"
p116
sI410
S'        self.meta = Storage()      # used by web2py_ajax.html'
p117
sI411
S'        self.menu = []             # used by the default view layout'
p118
sI412
S'        self.files = []            # used by web2py_ajax.html'
p119
sI413
S'        self._vars = None'
p120
sI414
S'        self._caller = lambda f: f()'
p121
sI415
S'        self._view_environment = None'
p122
ssg89
S'(f=<function admin>)'
p123
sg91
S'<lambda>'
p124
sa(dp125
g68
S'/home/mabraca/Documentos/universidad/Sistema de Informacion/web2py/gluon/tools.py'
p126
sg70
(dp127
S'action'
p128
S'<function admin>'
p129
sS'a'
S'()'
p130
sS'b'
g21
ssg76
I3981
sg77
(dp131
I3976
S'                    flag = condition'
p132
sI3977
S'                if not flag:'
p133
sI3978
S'                    current.session.flash = self.messages.access_denied'
p134
sI3979
S'                    return call_or_redirect('
p135
sI3980
S'                        self.settings.on_failed_authorization)'
p136
sI3981
S'                return action(*a, **b)'
p137
sI3982
S'            f.__doc__ = action.__doc__'
p138
sI3983
S'            f.__name__ = action.__name__'
p139
sI3984
S'            f.__dict__.update(action.__dict__)'
p140
sI3985
S'            return f'
p141
ssg89
S'(*a=(), **b={})'
p142
sg91
S'f'
sa(dp143
g68
S'/home/mabraca/Documentos/universidad/Sistema de Informacion/web2py/gluon/tools.py'
p144
sg70
(dp145
S'action'
p146
S'<function admin>'
p147
sS'a'
S'()'
p148
sS'b'
g21
ssg76
I3981
sg77
(dp149
I3976
S'                    flag = condition'
p150
sI3977
S'                if not flag:'
p151
sI3978
S'                    current.session.flash = self.messages.access_denied'
p152
sI3979
S'                    return call_or_redirect('
p153
sI3980
S'                        self.settings.on_failed_authorization)'
p154
sI3981
S'                return action(*a, **b)'
p155
sI3982
S'            f.__doc__ = action.__doc__'
p156
sI3983
S'            f.__name__ = action.__name__'
p157
sI3984
S'            f.__dict__.update(action.__dict__)'
p158
sI3985
S'            return f'
p159
ssg89
S'(*a=(), **b={})'
p160
sg91
S'f'
sa(dp161
g68
S'/home/mabraca/Documentos/universidad/Sistema de Informacion/web2py/applications/Lab/controllers/default.py'
p162
sg70
(dp163
S'global db'
p164
S'<DAL uri="postgres:******@localhost/SisPIO">'
p165
sS'i'
S"['24759502', 'Rafael Andres', 'Cisneros Corro', '20.00', '']"
p166
sS'db.estudiante.ci'
p167
S'<pydal.objects.Field object>'
p168
sS'db.estudiante'
p169
S'<Table estudiante (id, ci, promedio, correo, dir...enfermedad, enfermedad, indicaciones_enfermedad)>'
p170
sS').select'
p171
g110
ssg76
I123
sg77
(dp172
I118
S'                            dato = i.split(";")         # Separamos los datos del usuario'
p173
sI119
S'                            datos.append(dato)          # Agregamos el usuario a la lista de usuarios por agregar'
p174
sI120
S''
sI121
S'                    for i in datos:'
p175
sI122
S'                        if (not(db(db.usuario.username == i[0]).select()) and'
p176
sI123
S'                           not(db(db.estudiante.ci == i[0]).select())):         # Verificar que no existe un usuario para esa cedula'
p177
sI124
S'                            if 0 <= float(i[3]) <= 20:                          # Verificamos que el indice sea correcto'
p178
sI125
S'                                if db(db.liceo.nombre == liceo).select():       # Verificamos que el liceo este en la base de datos'
p179
sI126
S'                                    id = db.usuario.insert(first_name = i[1],last_name = i[2], email = "", username = i[0],'
p180
sI127
S'                                                  password = db.usuario.password.validate(i[0])[0], registration_key = "",'
p181
ssg89
S'()'
p182
sg91
S'admin'
p183
sa(dp184
g68
S'/home/mabraca/Documentos/universidad/Sistema de Informacion/web2py/gluon/packages/dal/pydal/objects.py'
p185
sg70
(dp186
S'self.query'
p187
S'<Query ("estudiante"."ci" = \'24759502\')>'
p188
sS'adapter.select'
p189
S'<bound method PostgrePG8000.select of <pydal.adapters.postgres.PostgrePG8000 object>>'
p190
sS'fields'
p191
S'[<pydal.objects.Field object>, <pydal.objects.Field object>, <pydal.objects.Field object>, <pydal.objects.Field object>, <pydal.objects.Field object>, <pydal.objects.Field object>, <pydal.objects.Field object>, <pydal.objects.Field object>, <pydal.objects.Field object>, <pydal.objects.Field object>, <pydal.objects.Field object>, <pydal.objects.Field object>, <pydal.objects.Field object>, <pydal.objects.Field object>, <pydal.objects.Field object>, <pydal.objects.Field object>, <pydal.objects.Field object>, <pydal.objects.Field object>, <pydal.objects.Field object>, <pydal.objects.Field object>, ...]'
p192
sS'adapter'
p193
S'<pydal.adapters.postgres.PostgrePG8000 object>'
p194
sS'attributes'
p195
g21
sS'self'
p196
S'<Set ("estudiante"."ci" = \'24759502\')>'
p197
ssg76
I2211
sg77
(dp198
I2208
S"                                    attributes.get('orderby', None),"
p199
sI2209
S"                                    attributes.get('groupby', None))"
p200
sI2210
S'        fields = adapter.expand_all(fields, tablenames)'
p201
sI2211
S'        return adapter.select(self.query, fields, attributes)'
p202
sI2212
S''
sI2213
S'    def iterselect(self, *fields, **attributes):'
p203
sI2214
S'        adapter = self.db._adapter'
p204
sI2215
S'        tablenames = adapter.tables(self.query,'
p205
sI2206
S"                                    attributes.get('join', None),"
p206
sI2207
S"                                    attributes.get('left', None),"
p207
ssg89
S'(self=<Set ("estudiante"."ci" = \'24759502\')>, *fields=[<pydal.objects.Field object>, <pydal.objects.Field object>, <pydal.objects.Field object>, <pydal.objects.Field object>, <pydal.objects.Field object>, <pydal.objects.Field object>, <pydal.objects.Field object>, <pydal.objects.Field object>, <pydal.objects.Field object>, <pydal.objects.Field object>, <pydal.objects.Field object>, <pydal.objects.Field object>, <pydal.objects.Field object>, <pydal.objects.Field object>, <pydal.objects.Field object>, <pydal.objects.Field object>, <pydal.objects.Field object>, <pydal.objects.Field object>, <pydal.objects.Field object>, <pydal.objects.Field object>, ...], **attributes={})'
p208
sg91
S'select'
p209
sa(dp210
g68
S'/home/mabraca/Documentos/universidad/Sistema de Informacion/web2py/gluon/packages/dal/pydal/adapters/base.py'
p211
sg70
(dp212
S'self._select_aux'
p213
S'<bound method PostgrePG8000._select_aux of <pydal.adapters.postgres.PostgrePG8000 object>>'
p214
sS'fields'
p215
S'[<pydal.objects.Field object>, <pydal.objects.Field object>, <pydal.objects.Field object>, <pydal.objects.Field object>, <pydal.objects.Field object>, <pydal.objects.Field object>, <pydal.objects.Field object>, <pydal.objects.Field object>, <pydal.objects.Field object>, <pydal.objects.Field object>, <pydal.objects.Field object>, <pydal.objects.Field object>, <pydal.objects.Field object>, <pydal.objects.Field object>, <pydal.objects.Field object>, <pydal.objects.Field object>, <pydal.objects.Field object>, <pydal.objects.Field object>, <pydal.objects.Field object>, <pydal.objects.Field object>, ...]'
p216
sS'self'
p217
S'<pydal.adapters.postgres.PostgrePG8000 object>'
p218
sS'sql'
p219
S'\'SELECT "estudiante"."id", "estudiante"."ci", "es...tudiante" WHERE ("estudiante"."ci" = \\\'24759502\\\');\''
p220
sS'attributes'
p221
g21
sS'colnames'
p222
S"['estudiante.id', 'estudiante.ci', 'estudiante.promedio', 'estudiante.correo', 'estudiante.direccion', 'estudiante.telefono_habitacion', 'estudiante.telefono_otro', 'estudiante.fecha_nacimiento', 'estudiante.sexo', 'estudiante.nombre_liceo', 'estudiante.estatus', 'estudiante.cohorte', 'estudiante.ci_representante', 'estudiante.nombre_representante', 'estudiante.apellido_representante', 'estudiante.sexo_representante', 'estudiante.correo_representante', 'estudiante.direccion_representante', 'estudiante.telefono_representante_oficina', 'estudiante.telefono_representante_otro', ...]"
p223
ssg76
I762
sg77
(dp224
I757
S'        colnames, sql = self._select_wcols(query, fields, **attributes)'
p225
sI758
S"        cache = attributes.get('cache', None)"
p226
sI759
S"        if cache and attributes.get('cacheable', False):"
p227
sI760
S'            return self._cached_select('
p228
sI761
S'                cache, sql, fields, attributes, colnames)'
p229
sI762
S'        return self._select_aux(sql, fields, attributes, colnames)'
p230
sI763
S''
sI764
S'    def iterselect(self, query, fields, attributes):'
p231
sI765
S'        colnames, sql = self._select_wcols(query, fields, **attributes)'
p232
sI766
S"        cacheable = attributes.get('cacheable', False)"
p233
ssg89
S'(self=<pydal.adapters.postgres.PostgrePG8000 object>, query=<Query ("estudiante"."ci" = \'24759502\')>, fields=[<pydal.objects.Field object>, <pydal.objects.Field object>, <pydal.objects.Field object>, <pydal.objects.Field object>, <pydal.objects.Field object>, <pydal.objects.Field object>, <pydal.objects.Field object>, <pydal.objects.Field object>, <pydal.objects.Field object>, <pydal.objects.Field object>, <pydal.objects.Field object>, <pydal.objects.Field object>, <pydal.objects.Field object>, <pydal.objects.Field object>, <pydal.objects.Field object>, <pydal.objects.Field object>, <pydal.objects.Field object>, <pydal.objects.Field object>, <pydal.objects.Field object>, <pydal.objects.Field object>, ...], attributes={})'
p234
sg91
g209
sa(dp235
g68
S'/home/mabraca/Documentos/universidad/Sistema de Informacion/web2py/gluon/packages/dal/pydal/adapters/base.py'
p236
sg70
(dp237
S'self'
p238
S'<pydal.adapters.postgres.PostgrePG8000 object>'
p239
sS'rows'
p240
g110
sS'self._select_aux_execute'
p241
S'<bound method PostgrePG8000._select_aux_execute of <pydal.adapters.postgres.PostgrePG8000 object>>'
p242
sS'sql'
p243
S'\'SELECT "estudiante"."id", "estudiante"."ci", "es...tudiante" WHERE ("estudiante"."ci" = \\\'24759502\\\');\''
p244
ssg76
I718
sg77
(dp245
I713
S'        return self.cursor.fetchall()'
p246
sI714
S''
sI715
S'    def _select_aux(self, sql, fields, attributes, colnames):'
p247
sI716
S"        cache = attributes.get('cache', None)"
p248
sI717
S'        if not cache:'
p249
sI718
S'            rows = self._select_aux_execute(sql)'
p250
sI719
S'        else:'
p251
sI720
S'            if isinstance(cache, dict):'
p252
sI721
S"                cache_model = cache['model']"
p253
sI722
S"                time_expire = cache['expiration']"
p254
ssg89
S'(self=<pydal.adapters.postgres.PostgrePG8000 object>, sql=\'SELECT "estudiante"."id", "estudiante"."ci", "es...tudiante" WHERE ("estudiante"."ci" = \\\'24759502\\\');\', fields=[<pydal.objects.Field object>, <pydal.objects.Field object>, <pydal.objects.Field object>, <pydal.objects.Field object>, <pydal.objects.Field object>, <pydal.objects.Field object>, <pydal.objects.Field object>, <pydal.objects.Field object>, <pydal.objects.Field object>, <pydal.objects.Field object>, <pydal.objects.Field object>, <pydal.objects.Field object>, <pydal.objects.Field object>, <pydal.objects.Field object>, <pydal.objects.Field object>, <pydal.objects.Field object>, <pydal.objects.Field object>, <pydal.objects.Field object>, <pydal.objects.Field object>, <pydal.objects.Field object>, ...], attributes={}, colnames=[\'estudiante.id\', \'estudiante.ci\', \'estudiante.promedio\', \'estudiante.correo\', \'estudiante.direccion\', \'estudiante.telefono_habitacion\', \'estudiante.telefono_otro\', \'estudiante.fecha_nacimiento\', \'estudiante.sexo\', \'estudiante.nombre_liceo\', \'estudiante.estatus\', \'estudiante.cohorte\', \'estudiante.ci_representante\', \'estudiante.nombre_representante\', \'estudiante.apellido_representante\', \'estudiante.sexo_representante\', \'estudiante.correo_representante\', \'estudiante.direccion_representante\', \'estudiante.telefono_representante_oficina\', \'estudiante.telefono_representante_otro\', ...])'
p255
sg91
S'_select_aux'
p256
sa(dp257
g68
S'/home/mabraca/Documentos/universidad/Sistema de Informacion/web2py/gluon/packages/dal/pydal/adapters/base.py'
p258
sg70
(dp259
S'self'
p260
S'<pydal.adapters.postgres.PostgrePG8000 object>'
p261
sS'self.execute'
p262
S'<bound method PostgrePG8000.wrap of <pydal.adapters.postgres.PostgrePG8000 object>>'
p263
sS'sql'
p264
S'\'SELECT "estudiante"."id", "estudiante"."ci", "es...tudiante" WHERE ("estudiante"."ci" = \\\'24759502\\\');\''
p265
ssg76
I712
sg77
(dp266
I707
S''
sI708
S'    def nested_select(self, query, fields, attributes):'
p267
sI709
S'        return Select(self.db, query, fields, attributes)'
p268
sI710
S''
sI711
S'    def _select_aux_execute(self, sql):'
p269
sI712
S'        self.execute(sql)'
p270
sI713
S'        return self.cursor.fetchall()'
p271
sI714
S''
sI715
S'    def _select_aux(self, sql, fields, attributes, colnames):'
p272
sI716
S"        cache = attributes.get('cache', None)"
p273
ssg89
S'(self=<pydal.adapters.postgres.PostgrePG8000 object>, sql=\'SELECT "estudiante"."id", "estudiante"."ci", "es...tudiante" WHERE ("estudiante"."ci" = \\\'24759502\\\');\')'
p274
sg91
S'_select_aux_execute'
p275
sa(dp276
g68
S'/home/mabraca/Documentos/universidad/Sistema de Informacion/web2py/gluon/packages/dal/pydal/adapters/__init__.py'
p277
sg70
(dp278
S'kwargs'
p279
g21
sS'args'
p280
S'(<pydal.adapters.postgres.PostgrePG8000 object>, \'SELECT "estudiante"."id", "estudiante"."ci", "es...tudiante" WHERE ("estudiante"."ci" = \\\'24759502\\\');\')'
p281
sS'f'
S'<function execute>'
p282
ssg76
I67
sg77
(dp283
I64
S'            if len(args) > 1:'
p284
sI65
S'                raise ValueError(args[1])'
p285
sI66
S"            raise RuntimeError('no connection available')"
p286
sI67
S'        return f(*args, **kwargs)'
p287
sI68
S'    return wrap'
p288
sI69
S''
sI70
S''
sI71
S'from .base import SQLAdapter, NoSQLAdapter'
p289
sI62
S'    def wrap(*args, **kwargs):'
p290
sI63
S'        if not args[0].connection:'
p291
ssg89
S'(*args=(<pydal.adapters.postgres.PostgrePG8000 object>, \'SELECT "estudiante"."id", "estudiante"."ci", "es...tudiante" WHERE ("estudiante"."ci" = \\\'24759502\\\');\'), **kwargs={})'
p292
sg91
S'wrap'
p293
sa(dp294
g68
S'/home/mabraca/Documentos/universidad/Sistema de Informacion/web2py/gluon/packages/dal/pydal/adapters/postgres.py'
p295
sg70
(dp296
S'global PostgrePG8000'
p297
S"<class 'pydal.adapters.postgres.PostgrePG8000'>"
p298
sS'self'
p299
S'<pydal.adapters.postgres.PostgrePG8000 object>'
p300
sS'args'
p301
S'[u\'SELECT "estudiante"."id", "estudiante"."ci", "...iante" WHERE ("estudiante"."ci" = \\\'24759502\\\');\']'
p302
sS'kwargs'
p303
g21
sS'builtinsuper'
p304
S"<type 'super'>"
p305
sS').execute'
p306
S'<bound method PostgrePG8000.wrap of <pydal.adapters.postgres.PostgrePG8000 object>>'
p307
ssg76
I190
sg77
(dp308
I192
S''
sI193
S"@adapters.register_for('postgres2')"
p309
sI194
S'class PostgreNew(Postgre):'
p310
sI185
S'    @with_connection_or_raise'
p311
sI186
S'    def execute(self, *args, **kwargs):'
p312
sI187
S'        if PY2:'
p313
sI188
S'            args = list(args)'
p314
sI189
S'            args[0] = to_unicode(args[0])'
p315
sI190
S'        return super(PostgrePG8000, self).execute(*args, **kwargs)'
p316
sI191
S''
ssg89
S'(self=<pydal.adapters.postgres.PostgrePG8000 object>, *args=[u\'SELECT "estudiante"."id", "estudiante"."ci", "...iante" WHERE ("estudiante"."ci" = \\\'24759502\\\');\'], **kwargs={})'
p317
sg91
S'execute'
p318
sa(dp319
g68
S'/home/mabraca/Documentos/universidad/Sistema de Informacion/web2py/gluon/packages/dal/pydal/adapters/__init__.py'
p320
sg70
(dp321
S'kwargs'
p322
g21
sS'args'
p323
S'(<pydal.adapters.postgres.PostgrePG8000 object>, u\'SELECT "estudiante"."id", "estudiante"."ci", "...iante" WHERE ("estudiante"."ci" = \\\'24759502\\\');\')'
p324
sS'f'
S'<function execute>'
p325
ssg76
I67
sg77
(dp326
I64
S'            if len(args) > 1:'
p327
sI65
S'                raise ValueError(args[1])'
p328
sI66
S"            raise RuntimeError('no connection available')"
p329
sI67
S'        return f(*args, **kwargs)'
p330
sI68
S'    return wrap'
p331
sI69
S''
sI70
S''
sI71
S'from .base import SQLAdapter, NoSQLAdapter'
p332
sI62
S'    def wrap(*args, **kwargs):'
p333
sI63
S'        if not args[0].connection:'
p334
ssg89
S'(*args=(<pydal.adapters.postgres.PostgrePG8000 object>, u\'SELECT "estudiante"."id", "estudiante"."ci", "...iante" WHERE ("estudiante"."ci" = \\\'24759502\\\');\'), **kwargs={})'
p335
sg91
g293
sa(dp336
g68
S'/home/mabraca/Documentos/universidad/Sistema de Informacion/web2py/gluon/packages/dal/pydal/adapters/base.py'
p337
sg70
(dp338
S'rv'
p339
g110
sS'self'
p340
S'<pydal.adapters.postgres.PostgrePG8000 object>'
p341
sS'args'
p342
S'(u\'SELECT "estudiante"."id", "estudiante"."ci", "...iante" WHERE ("estudiante"."ci" = \\\'24759502\\\');\',)'
p343
sS'self.cursor'
p344
S'<gluon.contrib.pg8000.core.Cursor instance>'
p345
sS'command'
p346
S'u\'SELECT "estudiante"."id", "estudiante"."ci", "...iante" WHERE ("estudiante"."ci" = \\\'24759502\\\');\''
p347
sS'self.cursor.execute'
p348
S'<bound method Cursor.execute of <gluon.contrib.pg8000.core.Cursor instance>>'
p349
sS'kwargs'
p350
g21
ssg76
I412
sg77
(dp351
I416
S''
sI407
S'    def execute(self, *args, **kwargs):'
p352
sI408
S'        command = self.filter_sql_command(args[0])'
p353
sI409
S'        handlers = self._build_handlers_for_execution()'
p354
sI410
S'        for handler in handlers:'
p355
sI411
S'            handler.before_execute(command)'
p356
sI412
S'        rv = self.cursor.execute(command, *args[1:], **kwargs)'
p357
sI413
S'        for handler in handlers:'
p358
sI414
S'            handler.after_execute(command)'
p359
sI415
S'        return rv'
p360
ssg89
S'(self=<pydal.adapters.postgres.PostgrePG8000 object>, *args=(u\'SELECT "estudiante"."id", "estudiante"."ci", "...iante" WHERE ("estudiante"."ci" = \\\'24759502\\\');\',), **kwargs={})'
p361
sg91
g318
sa(dp362
g68
S'/home/mabraca/Documentos/universidad/Sistema de Informacion/web2py/gluon/contrib/pg8000/core.py'
p363
sg70
(dp364
S'self'
p365
S'<gluon.contrib.pg8000.core.Cursor instance>'
p366
sS'args'
p367
S'None'
p368
sS'self._c.execute'
p369
S'<bound method Connection.execute of <gluon.contrib.pg8000.core.Connection object>>'
p370
sS'self._c'
p371
S'<gluon.contrib.pg8000.core.Connection object>'
p372
sS'operation'
p373
S'u\'SELECT "estudiante"."id", "estudiante"."ci", "...iante" WHERE ("estudiante"."ci" = \\\'24759502\\\');\''
p374
ssg76
I906
sg77
(dp375
I901
S'            with self._c._lock:'
p376
sI902
S'                self.stream = stream'
p377
sI903
S''
sI904
S'                if not self._c.in_transaction and not self._c.autocommit:'
p378
sI905
S'                    self._c.execute(self, "begin transaction", None)'
p379
sI906
S'                self._c.execute(self, operation, args)'
p380
sI907
S'        except AttributeError as e:'
p381
sI908
S'            if self._c is None:'
p382
sI909
S'                raise InterfaceError("Cursor closed")'
p383
sI910
S'            elif self._c._sock is None:'
p384
ssg89
S'(self=<gluon.contrib.pg8000.core.Cursor instance>, operation=u\'SELECT "estudiante"."id", "estudiante"."ci", "...iante" WHERE ("estudiante"."ci" = \\\'24759502\\\');\', args=None, stream=None)'
p385
sg91
g318
sa(dp386
g68
S'/home/mabraca/Documentos/universidad/Sistema de Informacion/web2py/gluon/contrib/pg8000/core.py'
p387
sg70
(dp388
S'cursor'
p389
S'<gluon.contrib.pg8000.core.Cursor instance>'
p390
sS'self.handle_messages'
p391
S'<bound method Connection.handle_messages of <gluon.contrib.pg8000.core.Connection object>>'
p392
sS'self'
p393
S'<gluon.contrib.pg8000.core.Connection object>'
p394
ssg76
I1940
sg77
(dp395
I1935
S'                else:'
p396
sI1936
S'                    raise e'
p397
sI1937
S'            except socket.error as e:'
p398
sI1938
S'                raise OperationalError(str(e))'
p399
sI1939
S''
sI1940
S'            self.handle_messages(cursor)'
p400
sI1941
S''
sI1942
S"            # We've got row_desc that allows us to identify what we're"
p401
sI1943
S'            # going to get back from this statement.'
p402
sI1944
S'            output_fc = tuple('
p403
ssg89
S'(self=<gluon.contrib.pg8000.core.Connection object>, cursor=<gluon.contrib.pg8000.core.Cursor instance>, operation=u\'SELECT "estudiante"."id", "estudiante"."ci", "...iante" WHERE ("estudiante"."ci" = \\\'24759502\\\');\', vals=())'
p404
sg91
g318
sa(dp405
g68
S'/home/mabraca/Documentos/universidad/Sistema de Informacion/web2py/gluon/contrib/pg8000/core.py'
p406
sg70
(dp407
S'self'
p408
S'<gluon.contrib.pg8000.core.Connection object>'
p409
sS'self.error'
p410
S"ProgrammingError(u'ERROR', u'ERROR', u'42703', u...ion.c', u'3183', u'errorMissingColumn', u'', u'')"
p411
ssg76
I2088
sg77
(dp412
I2083
S'        except:'
p413
sI2084
S'            self._close()'
p414
sI2085
S'            raise'
p415
sI2086
S''
sI2087
S'        if self.error is not None:'
p416
sI2088
S'            raise self.error'
p417
sI2089
S''
sI2090
S"    # Byte1('C') - Identifies the message as a close command."
p418
sI2091
S'    # Int32 - Message length, including self.'
p419
sI2092
S"    # Byte1 - 'S' for prepared statement, 'P' for portal."
p420
ssg89
S'(self=<gluon.contrib.pg8000.core.Connection object>, cursor=<gluon.contrib.pg8000.core.Cursor instance>)'
p421
sg91
S'handle_messages'
p422
sasS'pyver'
p423
S'Python 2.7.6: /usr/bin/python2.7 (prefix: /usr)'
p424
sS'session'
p425
g63
(S's\xf5\t\x00\x00<div><table><tr><td style="font-weight:bold;vertical-align:top;">auth</td><td style="vertical-align:top;">:</td><td><div><table><tr><td style="font-weight:bold;vertical-align:top;">expiration</td><td style="vertical-align:top;">:</td><td><div>3600</div></td></tr><tr><td style="font-weight:bold;vertical-align:top;">hmac_key</td><td style="vertical-align:top;">:</td><td><div>88ba607d-098e-4797-9f56-4dddb2e7ca5d</div></td></tr><tr><td style="font-weight:bold;vertical-align:top;">last_visit</td><td style="vertical-align:top;">:</td><td><div>datetime.datetime(2017, 10, 24, 20, 46, 1, 134536)</div></td></tr><tr><td style="font-weight:bold;vertical-align:top;">remember_me</td><td style="vertical-align:top;">:</td><td><div>False</div></td></tr><tr><td style="font-weight:bold;vertical-align:top;">user</td><td style="vertical-align:top;">:</td><td><div><table><tr><td style="font-weight:bold;vertical-align:top;">email</td><td style="vertical-align:top;">:</td><td><div>admin@usb.ve</div></td></tr><tr><td style="font-weight:bold;vertical-align:top;">first_name</td><td style="vertical-align:top;">:</td><td><div>SisPIO</div></td></tr><tr><td style="font-weight:bold;vertical-align:top;">id</td><td style="vertical-align:top;">:</td><td><div>3L</div></td></tr><tr><td style="font-weight:bold;vertical-align:top;">last_name</td><td style="vertical-align:top;">:</td><td><div>Admin</div></td></tr><tr><td style="font-weight:bold;vertical-align:top;">registration_id</td><td style="vertical-align:top;">:</td><td><div></div></td></tr><tr><td style="font-weight:bold;vertical-align:top;">registration_key</td><td style="vertical-align:top;">:</td><td><div></div></td></tr><tr><td style="font-weight:bold;vertical-align:top;">reset_password_key</td><td style="vertical-align:top;">:</td><td><div></div></td></tr><tr><td style="font-weight:bold;vertical-align:top;">username</td><td style="vertical-align:top;">:</td><td><div>admin</div></td></tr></table></div></td></tr><tr><td style="font-weight:bold;vertical-align:top;">user_groups</td><td style="vertical-align:top;">:</td><td><div><table><tr><td style="font-weight:bold;vertical-align:top;">3</td><td style="vertical-align:top;">:</td><td><div>Estudiante</div></td></tr><tr><td style="font-weight:bold;vertical-align:top;">7</td><td style="vertical-align:top;">:</td><td><div>Administrador</div></td></tr></table></div></td></tr></table></div></td></tr><tr><td style="font-weight:bold;vertical-align:top;">flash</td><td style="vertical-align:top;">:</td><td><div>None</div></td></tr></table></div>'
tRp426
sS'etype'
p427
S"<class 'gluon.contrib.pg8000.core.ProgrammingError'>"
p428
sS'date'
p429
S'Tue Oct 24 20:48:24 2017'
p430
sS'response'
p431
g63
(S's\xc7?\x00\x00<div><table><tr><td style="font-weight:bold;vertical-align:top;">body</td><td style="vertical-align:top;">:</td><td><div>&lt;cStringIO.StringO object at 0x7f318c167570&gt;</div></td></tr><tr><td style="font-weight:bold;vertical-align:top;">cookies</td><td style="vertical-align:top;">:</td><td><div><table><tr><td style="font-weight:bold;vertical-align:top;">session_id_lab</td><td style="vertical-align:top;">:</td><td><div>127.0.0.1-5ac1ab07-69db-4da3-9aa2-31f01ac41e8c<table><tr><td style="font-weight:bold;vertical-align:top;">comment</td><td style="vertical-align:top;">:</td><td><div></div></td></tr><tr><td style="font-weight:bold;vertical-align:top;">domain</td><td style="vertical-align:top;">:</td><td><div></div></td></tr><tr><td style="font-weight:bold;vertical-align:top;">expires</td><td style="vertical-align:top;">:</td><td><div></div></td></tr><tr><td style="font-weight:bold;vertical-align:top;">httponly</td><td style="vertical-align:top;">:</td><td><div></div></td></tr><tr><td style="font-weight:bold;vertical-align:top;">max-age</td><td style="vertical-align:top;">:</td><td><div></div></td></tr><tr><td style="font-weight:bold;vertical-align:top;">path</td><td style="vertical-align:top;">:</td><td><div>/</div></td></tr><tr><td style="font-weight:bold;vertical-align:top;">secure</td><td style="vertical-align:top;">:</td><td><div></div></td></tr><tr><td style="font-weight:bold;vertical-align:top;">version</td><td style="vertical-align:top;">:</td><td><div></div></td></tr></table></div></td></tr></table></div></td></tr><tr><td style="font-weight:bold;vertical-align:top;">delimiters</td><td style="vertical-align:top;">:</td><td><div><table><tr><td><div>{{</div></td></tr><tr><td><div>}}</div></td></tr></table></div></td></tr><tr><td style="font-weight:bold;vertical-align:top;">files</td><td style="vertical-align:top;">:</td><td><div><table></table></div></td></tr><tr><td style="font-weight:bold;vertical-align:top;">flash</td><td style="vertical-align:top;">:</td><td><div></div></td></tr><tr><td style="font-weight:bold;vertical-align:top;">form_label_separator</td><td style="vertical-align:top;">:</td><td><div></div></td></tr><tr><td style="font-weight:bold;vertical-align:top;">formstyle</td><td style="vertical-align:top;">:</td><td><div>bootstrap3_inline</div></td></tr><tr><td style="font-weight:bold;vertical-align:top;">generic_patterns</td><td style="vertical-align:top;">:</td><td><div><table><tr><td><div>*</div></td></tr></table></div></td></tr><tr><td style="font-weight:bold;vertical-align:top;">google_analytics_id</td><td style="vertical-align:top;">:</td><td><div>None</div></td></tr><tr><td style="font-weight:bold;vertical-align:top;">headers</td><td style="vertical-align:top;">:</td><td><div><table><tr><td style="font-weight:bold;vertical-align:top;">X-Powered-By</td><td style="vertical-align:top;">:</td><td><div>web2py</div></td></tr></table></div></td></tr><tr><td style="font-weight:bold;vertical-align:top;">logo</td><td style="vertical-align:top;">:</td><td><div><a class="navbar-brand" href="http://www.web2py.com/" id="web2py-logo"><b>web<span>2</span>py</b>&trade;&nbsp;</a></div></td></tr><tr><td style="font-weight:bold;vertical-align:top;">menu</td><td style="vertical-align:top;">:</td><td><div><table><tr><td><div><table><tr><td><div>Inicio</div></td></tr><tr><td><div>False</div></td></tr><tr><td><div>/Lab/default/index</div></td></tr><tr><td><div><table></table></div></td></tr></table></div></td></tr><tr><td><div><table><tr><td><div>Mis Sitios</div></td></tr><tr><td><div>False</div></td></tr><tr><td><div>/admin/default/site</div></td></tr></table></div></td></tr><tr><td><div><table><tr><td><div>Esta Aplicaci\xc3\xb3n</div></td></tr><tr><td><div>False</div></td></tr><tr><td><div>#</div></td></tr><tr><td><div><table><tr><td><div><table><tr><td><div>Design</div></td></tr><tr><td><div>False</div></td></tr><tr><td><div>/admin/default/design/Lab</div></td></tr></table></div></td></tr><tr><td><div><li class="divider"></li></div></td></tr><tr><td><div><table><tr><td><div>Controlador</div></td></tr><tr><td><div>False</div></td></tr><tr><td><div>/admin/default/edit/Lab/controllers/default.py</div></td></tr></table></div></td></tr><tr><td><div><table><tr><td><div>Vista</div></td></tr><tr><td><div>False</div></td></tr><tr><td><div>/admin/default/edit/Lab/views/default/admin.html</div></td></tr></table></div></td></tr><tr><td><div><table><tr><td><div>Modelo BDD</div></td></tr><tr><td><div>False</div></td></tr><tr><td><div>/admin/default/edit/Lab/models/db.py</div></td></tr></table></div></td></tr><tr><td><div><table><tr><td><div>Modelo "menu"</div></td></tr><tr><td><div>False</div></td></tr><tr><td><div>/admin/default/edit/Lab/models/menu.py</div></td></tr></table></div></td></tr><tr><td><div><table><tr><td><div>Config.ini</div></td></tr><tr><td><div>False</div></td></tr><tr><td><div>/admin/default/edit/Lab/private/appconfig.ini</div></td></tr></table></div></td></tr><tr><td><div><table><tr><td><div>Dise\xc3\xb1o de p\xc3\xa1gina</div></td></tr><tr><td><div>False</div></td></tr><tr><td><div>/admin/default/edit/Lab/views/layout.html</div></td></tr></table></div></td></tr><tr><td><div><table><tr><td><div>Hoja de estilo</div></td></tr><tr><td><div>False</div></td></tr><tr><td><div>/admin/default/edit/Lab/static/css/web2py-bootstrap3.css</div></td></tr></table></div></td></tr><tr><td><div><table><tr><td><div>Base de datos</div></td></tr><tr><td><div>False</div></td></tr><tr><td><div>/Lab/appadmin/index</div></td></tr></table></div></td></tr><tr><td><div><table><tr><td><div>Errores</div></td></tr><tr><td><div>False</div></td></tr><tr><td><div>/admin/default/errors/Lab</div></td></tr></table></div></td></tr><tr><td><div><table><tr><td><div>Acerca de</div></td></tr><tr><td><div>False</div></td></tr><tr><td><div>/admin/default/about/Lab</div></td></tr></table></div></td></tr></table></div></td></tr></table></div></td></tr><tr><td><div><table><tr><td><div>web2py.com</div></td></tr><tr><td><div>False</div></td></tr><tr><td><div>#</div></td></tr><tr><td><div><table><tr><td><div><table><tr><td><div>Descargas</div></td></tr><tr><td><div>False</div></td></tr><tr><td><div>http://www.web2py.com/examples/default/download</div></td></tr></table></div></td></tr><tr><td><div><table><tr><td><div>Soporte</div></td></tr><tr><td><div>False</div></td></tr><tr><td><div>http://www.web2py.com/examples/default/support</div></td></tr></table></div></td></tr><tr><td><div><table><tr><td><div>Demostraci\xc3\xb3n</div></td></tr><tr><td><div>False</div></td></tr><tr><td><div>http://web2py.com/demo_admin</div></td></tr></table></div></td></tr><tr><td><div><table><tr><td><div>Ejemplos R\xc3\xa1pidos</div></td></tr><tr><td><div>False</div></td></tr><tr><td><div>http://web2py.com/examples/default/examples</div></td></tr></table></div></td></tr><tr><td><div><table><tr><td><div>FAQ</div></td></tr><tr><td><div>False</div></td></tr><tr><td><div>http://web2py.com/AlterEgo</div></td></tr></table></div></td></tr><tr><td><div><table><tr><td><div>V\xc3\xaddeos</div></td></tr><tr><td><div>False</div></td></tr><tr><td><div>http://www.web2py.com/examples/default/videos/</div></td></tr></table></div></td></tr><tr><td><div><table><tr><td><div>Aplicaciones Libres</div></td></tr><tr><td><div>False</div></td></tr><tr><td><div>http://web2py.com/appliances</div></td></tr></table></div></td></tr><tr><td><div><table><tr><td><div>Plugins</div></td></tr><tr><td><div>False</div></td></tr><tr><td><div>http://web2py.com/plugins</div></td></tr></table></div></td></tr><tr><td><div><table><tr><td><div>Recetas</div></td></tr><tr><td><div>False</div></td></tr><tr><td><div>http://web2pyslices.com/</div></td></tr></table></div></td></tr></table></div></td></tr></table></div></td></tr><tr><td><div><table><tr><td><div>Documentaci\xc3\xb3n</div></td></tr><tr><td><div>False</div></td></tr><tr><td><div>#</div></td></tr><tr><td><div><table><tr><td><div><table><tr><td><div>Online book</div></td></tr><tr><td><div>False</div></td></tr><tr><td><div>http://www.web2py.com/book</div></td></tr></table></div></td></tr><tr><td><div><li class="divider"></li></div></td></tr><tr><td><div><table><tr><td><div>Prefacio</div></td></tr><tr><td><div>False</div></td></tr><tr><td><div>http://www.web2py.com/book/default/chapter/00</div></td></tr></table></div></td></tr><tr><td><div><table><tr><td><div>Introducci\xc3\xb3n</div></td></tr><tr><td><div>False</div></td></tr><tr><td><div>http://www.web2py.com/book/default/chapter/01</div></td></tr></table></div></td></tr><tr><td><div><table><tr><td><div>Python</div></td></tr><tr><td><div>False</div></td></tr><tr><td><div>http://www.web2py.com/book/default/chapter/02</div></td></tr></table></div></td></tr><tr><td><div><table><tr><td><div>Resumen</div></td></tr><tr><td><div>False</div></td></tr><tr><td><div>http://www.web2py.com/book/default/chapter/03</div></td></tr></table></div></td></tr><tr><td><div><table><tr><td><div>El N\xc3\xbacleo</div></td></tr><tr><td><div>False</div></td></tr><tr><td><div>http://www.web2py.com/book/default/chapter/04</div></td></tr></table></div></td></tr><tr><td><div><table><tr><td><div>Las Vistas</div></td></tr><tr><td><div>False</div></td></tr><tr><td><div>http://www.web2py.com/book/default/chapter/05</div></td></tr></table></div></td></tr><tr><td><div><table><tr><td><div>Base de datos</div></td></tr><tr><td><div>False</div></td></tr><tr><td><div>http://www.web2py.com/book/default/chapter/06</div></td></tr></table></div></td></tr><tr><td><div><table><tr><td><div>Formularios y validadores</div></td></tr><tr><td><div>False</div></td></tr><tr><td><div>http://www.web2py.com/book/default/chapter/07</div></td></tr></table></div></td></tr><tr><td><div><table><tr><td><div>Correo electr\xc3\xb3nico y SMS</div></td></tr><tr><td><div>False</div></td></tr><tr><td><div>http://www.web2py.com/book/default/chapter/08</div></td></tr></table></div></td></tr><tr><td><div><table><tr><td><div>Control de Acceso</div></td></tr><tr><td><div>False</div></td></tr><tr><td><div>http://www.web2py.com/book/default/chapter/09</div></td></tr></table></div></td></tr><tr><td><div><table><tr><td><div>Servicios</div></td></tr><tr><td><div>False</div></td></tr><tr><td><div>http://www.web2py.com/book/default/chapter/10</div></td></tr></table></div></td></tr><tr><td><div><table><tr><td><div>Recetas AJAX</div></td></tr><tr><td><div>False</div></td></tr><tr><td><div>http://www.web2py.com/book/default/chapter/11</div></td></tr></table></div></td></tr><tr><td><div><table><tr><td><div>Componentes y Plugins</div></td></tr><tr><td><div>False</div></td></tr><tr><td><div>http://www.web2py.com/book/default/chapter/12</div></td></tr></table></div></td></tr><tr><td><div><table><tr><td><div>Recetas de despliegue</div></td></tr><tr><td><div>False</div></td></tr><tr><td><div>http://www.web2py.com/book/default/chapter/13</div></td></tr></table></div></td></tr><tr><td><div><table><tr><td><div>Otras Recetas</div></td></tr><tr><td><div>False</div></td></tr><tr><td><div>http://www.web2py.com/book/default/chapter/14</div></td></tr></table></div></td></tr><tr><td><div><table><tr><td><div>Helping web2py</div></td></tr><tr><td><div>False</div></td></tr><tr><td><div>http://www.web2py.com/book/default/chapter/15</div></td></tr></table></div></td></tr><tr><td><div><table><tr><td><div>Buy web2py\'s book</div></td></tr><tr><td><div>False</div></td></tr><tr><td><div>http://stores.lulu.com/web2py</div></td></tr></table></div></td></tr></table></div></td></tr></table></div></td></tr><tr><td><div><table><tr><td><div>Comunidad</div></td></tr><tr><td><div>False</div></td></tr><tr><td><div>None</div></td></tr><tr><td><div><table><tr><td><div><table><tr><td><div>Grupos</div></td></tr><tr><td><div>False</div></td></tr><tr><td><div>http://www.web2py.com/examples/default/usergroups</div></td></tr></table></div></td></tr><tr><td><div><table><tr><td><div>Twitter</div></td></tr><tr><td><div>False</div></td></tr><tr><td><div>http://twitter.com/web2py</div></td></tr></table></div></td></tr><tr><td><div><table><tr><td><div>Chat en vivo</div></td></tr><tr><td><div>False</div></td></tr><tr><td><div>http://webchat.freenode.net/?channels=web2py</div></td></tr></table></div></td></tr></table></div></td></tr></table></div></td></tr></table></div></td></tr><tr><td style="font-weight:bold;vertical-align:top;">meta</td><td style="vertical-align:top;">:</td><td><div><table><tr><td style="font-weight:bold;vertical-align:top;">author</td><td style="vertical-align:top;">:</td><td><div>Your Name &lt;you@example.com&gt;</div></td></tr><tr><td style="font-weight:bold;vertical-align:top;">description</td><td style="vertical-align:top;">:</td><td><div>a cool new app</div></td></tr><tr><td style="font-weight:bold;vertical-align:top;">generator</td><td style="vertical-align:top;">:</td><td><div>Web2py Web Framework</div></td></tr><tr><td style="font-weight:bold;vertical-align:top;">keywords</td><td style="vertical-align:top;">:</td><td><div><table><tr><td><div>web2py</div></td></tr><tr><td><div>python</div></td></tr><tr><td><div>framework</div></td></tr></table></div></td></tr></table></div></td></tr><tr><td style="font-weight:bold;vertical-align:top;">models_to_run</td><td style="vertical-align:top;">:</td><td><div><table><tr><td><div>^\\w+\\.py$</div></td></tr><tr><td><div>^default/\\w+\\.py$</div></td></tr><tr><td><div>^default/admin/\\w+\\.py$</div></td></tr></table></div></td></tr><tr><td style="font-weight:bold;vertical-align:top;">postprocessing</td><td style="vertical-align:top;">:</td><td><div><table></table></div></td></tr><tr><td style="font-weight:bold;vertical-align:top;">session_client</td><td style="vertical-align:top;">:</td><td><div>127.0.0.1</div></td></tr><tr><td style="font-weight:bold;vertical-align:top;">session_cookie_compression_level</td><td style="vertical-align:top;">:</td><td><div>None</div></td></tr><tr><td style="font-weight:bold;vertical-align:top;">session_cookie_expires</td><td style="vertical-align:top;">:</td><td><div>None</div></td></tr><tr><td style="font-weight:bold;vertical-align:top;">session_data_name</td><td style="vertical-align:top;">:</td><td><div>session_data_lab</div></td></tr><tr><td style="font-weight:bold;vertical-align:top;">session_file</td><td style="vertical-align:top;">:</td><td><div>&lt;open file &#x27;/home/mabraca/Documentos/universidad/Sistema de Informacion/web2py/applications/Lab/sessions/0f6/0f2/127.0.0.1-5ac1ab07-69db-4da3-9aa2-31f01ac41e8c&#x27;, mode &#x27;rb+&#x27; at 0x7f318c2b3390&gt;</div></td></tr><tr><td style="font-weight:bold;vertical-align:top;">session_filename</td><td style="vertical-align:top;">:</td><td><div>/home/mabraca/Documentos/universidad/Sistema de Informacion/web2py/applications/Lab/sessions/127.0.0.1-5ac1ab07-69db-4da3-9aa2-31f01ac41e8c</div></td></tr><tr><td style="font-weight:bold;vertical-align:top;">session_hash</td><td style="vertical-align:top;">:</td><td><div>0349d44478eb0971665c1f6af9e11ab9</div></td></tr><tr><td style="font-weight:bold;vertical-align:top;">session_id</td><td style="vertical-align:top;">:</td><td><div>127.0.0.1-5ac1ab07-69db-4da3-9aa2-31f01ac41e8c</div></td></tr><tr><td style="font-weight:bold;vertical-align:top;">session_id_name</td><td style="vertical-align:top;">:</td><td><div>session_id_lab</div></td></tr><tr><td style="font-weight:bold;vertical-align:top;">session_locked</td><td style="vertical-align:top;">:</td><td><div>True</div></td></tr><tr><td style="font-weight:bold;vertical-align:top;">session_masterapp</td><td style="vertical-align:top;">:</td><td><div>Lab</div></td></tr><tr><td style="font-weight:bold;vertical-align:top;">session_new</td><td style="vertical-align:top;">:</td><td><div>False</div></td></tr><tr><td style="font-weight:bold;vertical-align:top;">session_storage_type</td><td style="vertical-align:top;">:</td><td><div>file</div></td></tr><tr><td style="font-weight:bold;vertical-align:top;">status</td><td style="vertical-align:top;">:</td><td><div>200</div></td></tr><tr><td style="font-weight:bold;vertical-align:top;">subtitle</td><td style="vertical-align:top;">:</td><td><div></div></td></tr><tr><td style="font-weight:bold;vertical-align:top;">title</td><td style="vertical-align:top;">:</td><td><div>Lab</div></td></tr><tr><td style="font-weight:bold;vertical-align:top;">view</td><td style="vertical-align:top;">:</td><td><div>default/admin.html</div></td></tr></table></div>'
tRp432
sS'locals'
p433
(dp434
S'cursor'
p435
S'<gluon.contrib.pg8000.core.Cursor instance>'
p436
sS'self'
p437
S'<gluon.contrib.pg8000.core.Connection object>'
p438
sg6
S"'Z'"
p439
sS'data_len'
p440
S'5'
sssS'traceback'
p441
S'Traceback (most recent call last):\n  File "/home/mabraca/Documentos/universidad/Sistema de Informacion/web2py/gluon/restricted.py", line 219, in restricted\n    exec(ccode, environment)\n  File "/home/mabraca/Documentos/universidad/Sistema de Informacion/web2py/applications/Lab/controllers/default.py", line 720, in <module>\n  File "/home/mabraca/Documentos/universidad/Sistema de Informacion/web2py/gluon/globals.py", line 414, in <lambda>\n    self._caller = lambda f: f()\n  File "/home/mabraca/Documentos/universidad/Sistema de Informacion/web2py/gluon/tools.py", line 3981, in f\n    return action(*a, **b)\n  File "/home/mabraca/Documentos/universidad/Sistema de Informacion/web2py/gluon/tools.py", line 3981, in f\n    return action(*a, **b)\n  File "/home/mabraca/Documentos/universidad/Sistema de Informacion/web2py/applications/Lab/controllers/default.py", line 123, in admin\n    not(db(db.estudiante.ci == i[0]).select())):         # Verificar que no existe un usuario para esa cedula\n  File "/home/mabraca/Documentos/universidad/Sistema de Informacion/web2py/gluon/packages/dal/pydal/objects.py", line 2211, in select\n    return adapter.select(self.query, fields, attributes)\n  File "/home/mabraca/Documentos/universidad/Sistema de Informacion/web2py/gluon/packages/dal/pydal/adapters/base.py", line 762, in select\n    return self._select_aux(sql, fields, attributes, colnames)\n  File "/home/mabraca/Documentos/universidad/Sistema de Informacion/web2py/gluon/packages/dal/pydal/adapters/base.py", line 718, in _select_aux\n    rows = self._select_aux_execute(sql)\n  File "/home/mabraca/Documentos/universidad/Sistema de Informacion/web2py/gluon/packages/dal/pydal/adapters/base.py", line 712, in _select_aux_execute\n    self.execute(sql)\n  File "/home/mabraca/Documentos/universidad/Sistema de Informacion/web2py/gluon/packages/dal/pydal/adapters/__init__.py", line 67, in wrap\n    return f(*args, **kwargs)\n  File "/home/mabraca/Documentos/universidad/Sistema de Informacion/web2py/gluon/packages/dal/pydal/adapters/postgres.py", line 190, in execute\n    return super(PostgrePG8000, self).execute(*args, **kwargs)\n  File "/home/mabraca/Documentos/universidad/Sistema de Informacion/web2py/gluon/packages/dal/pydal/adapters/__init__.py", line 67, in wrap\n    return f(*args, **kwargs)\n  File "/home/mabraca/Documentos/universidad/Sistema de Informacion/web2py/gluon/packages/dal/pydal/adapters/base.py", line 412, in execute\n    rv = self.cursor.execute(command, *args[1:], **kwargs)\n  File "/home/mabraca/Documentos/universidad/Sistema de Informacion/web2py/gluon/contrib/pg8000/core.py", line 906, in execute\n    self._c.execute(self, operation, args)\n  File "/home/mabraca/Documentos/universidad/Sistema de Informacion/web2py/gluon/contrib/pg8000/core.py", line 1940, in execute\n    self.handle_messages(cursor)\n  File "/home/mabraca/Documentos/universidad/Sistema de Informacion/web2py/gluon/contrib/pg8000/core.py", line 2088, in handle_messages\n    raise self.error\nProgrammingError: (u\'ERROR\', u\'ERROR\', u\'42703\', u\'no existe la columna estudiante.correo\', u\'71\', u\'parse_relation.c\', u\'3183\', u\'errorMissingColumn\', u\'\', u\'\')\n'
p442
s.