(dp1
S'output'
p2
S"<class 'psycopg2.ProgrammingError'> column estudiante.telefono_habitacion does not exist\nLINE 1: ...te.ci, estudiante.promedio, estudiante.direccion, estudiante...\n                                                             ^\n"
p3
sS'layer'
p4
S'C:\\Users\\Rafael Cisneros\\Desktop\\web2py\\web2py\\applications\\SisPIOrafael2\\controllers/default.py'
p5
sS'code'
p6
S'# -*- coding: utf-8 -*-\n# this file is released under public domain and you can use without limitations\n\n# -------------------------------------------------------------------------\n# This is a sample controller\n# - index is the default action of any application\n# - user is required for authentication and authorization\n# - download is for downloading files uploaded in the db (does streaming)\n# -------------------------------------------------------------------------\n\ndef user():\n    """\n    exposes:\n    http://..../[app]/default/user/login\n    http://..../[app]/default/user/logout\n    http://..../[app]/default/user/register\n    http://..../[app]/default/user/profile\n    http://..../[app]/default/user/retrieve_password\n    http://..../[app]/default/user/change_password\n    http://..../[app]/default/user/bulk_register\n    use @auth.requires_login()\n        @auth.requires_membership(\'group name\')\n        @auth.requires_permission(\'read\',\'table name\',record_id)\n    to decorate functions that need access control\n    also notice there is http://..../[app]/appadmin/manage/auth to allow administrator to manage users\n    """\n    if not(request.args):\n        if auth.is_logged_in():\n            redirect(URL(\'redireccionando\'))\n        else:\n            redirect(URL(\'index\'))\n    else:\n        if request.args[0] == \'login\':\n            if auth.is_logged_in():\n                redirect(URL(\'redireccionando\'))\n            else:\n                redirect(URL(\'index\'))\n    return dict(form=auth())\n\n\n@cache.action()\ndef download():\n    """\n    allows downloading of uploaded files\n    http://..../[app]/default/download/[filename]\n    """\n    return response.download(request, db)\n\n@auth.requires_login()\ndef call():\n    """\n    exposes services. for example:\n    http://..../[app]/default/call/jsonrpc\n    decorate with @services.jsonrpc the functions to expose\n    supports xml, json, xmlrpc, jsonrpc, amfrpc, rss, csv\n    """\n    return service()\n\ndef index():\n    if auth.is_logged_in():\n        redirect(URL(\'default\', \'user\', args=\'logout\')) # Si ya hay un usuario conectado, desconectarlo\n    return dict(form=auth.login())\n\ndef redireccionando():\n    if auth.is_logged_in():\n        if 5 in auth.user_groups:\n            redirect(URL(\'admin\'))\n        elif 1 in auth.user_groups:\n            redirect(URL(\'welcome\'))\n        elif 2 in auth.user_groups:\n            redirect(URL(\'profesor\'))\n        elif 3 in auth.user_groups:\n            redirect(URL(\'coordinadorLiceo\'))\n        elif 4 in auth.user_groups:\n            redirect(URL(\'coordinadorPio\'))\n        else:\n            redirect(URL(\'default\', \'user\', args=\'logout\'))\n    else:\n        redirect(URL(\'index\'))\n    return dict()\n\n@auth.requires_membership(\'Administrador\')\n@auth.requires_login()\ndef admin():\n\n    ########################\n    ###Consula de datos\n    ########################\n    T.force(\'es\')\n    username = auth.user.username\n    usuario = db(db.usuario.username==username).select().first()\n    #tipo=""\n    #error = False\n\n    formAdministrador = SQLFORM.factory(\n        Field(\'first_name\' +  \'last_name\',\n\t\t\ttype=\'string\', \n\t\t\tdefault=usuario.first_name + " " + usuario.last_name,\n\t\t\trequires=db.usuario.first_name.requires and db.usuario.last_name.requires,\n\t\t\tlabel=\'nombre\'\n\t\t\t),\n        Field(\'username\',\n\t\t\ttype=\'string\',\n            notnull = True,\n\t\t\tdefault=usuario.username, \n\t\t\trequires=db.usuario.username.requires,\n\t\t\tlabel=\'ci\'\n\t\t\t),\n\t\tField(\'email\', \n\t\t\ttype=\'string\', \n\t\t\tdefault=usuario.email, \n\t\t\trequires=db.usuario.email.requires,\n\t\t\tlabel=\'email\'),\n        readonly = True\n        )\n\n    if formAdministrador.process(session=None, formname=\'perfil del administrador\', keepvalues=True).accepted:\n        response.flash = \'El formulario fue aceptado exitosamente.\'\n\n    elif formAdministrador.errors:\n\t\t#error = True\n\t\tresponse.flash = \'Hay un error en un campo.\'\n    ############################\n    ###fin de Consula de datos\n    ############################\n\n    return dict(formAdministrador=formAdministrador)\n\n@auth.requires_membership(\'Profesor\')\n@auth.requires_login()\ndef profesor():\n    return dict()\n\n@auth.requires_membership(\'Representante_liceo\')\n@auth.requires_login()\ndef coordinadorLiceo():\n\n    ########################\n    ###Consula de datos\n    ########################\n    T.force(\'es\')\n    username = auth.user.username\n    representante_liceo=db(db.representante_liceo.ci==username).select().first()\n    usuario = db(db.usuario.username==username).select().first()\n    #tipo=""\n    #error = False\n\n    formDatosBasicos = SQLFORM.factory(\n        Field(\'first_name\' +  \'last_name\',\n\t\t\ttype=\'string\', \n\t\t\tdefault=usuario.first_name + " " + usuario.last_name,\n\t\t\trequires=db.usuario.first_name.requires and db.usuario.last_name.requires,\n\t\t\tlabel=\'nombre\'\n\t\t\t),\n        Field(\'username\',\n\t\t\ttype=\'string\',\n            notnull = True,\n\t\t\tdefault=usuario.username, \n\t\t\trequires=db.usuario.username.requires,\n\t\t\tlabel=\'ci\'\n\t\t\t),\n\t\tField(\'email\', \n\t\t\ttype=\'string\', \n\t\t\tdefault=usuario.email, \n\t\t\trequires=db.usuario.email.requires,\n\t\t\tlabel=\'email\'),\n        readonly = True\n        )\n\n    if formDatosBasicos.process(session=None, formname=\'perfil basico del Representante liceo de sede\', keepvalues=True).accepted:\n        response.flash = \'El formulario fue aceptado exitosamente.\'\n\n    elif formDatosBasicos.errors:\n\t\t#error = True\n\t\tresponse.flash = \'Hay un error en un campo.\'\n\n    formCoordinadorLiceo = SQLFORM.factory(\n\t\tField(\'ci\', \n\t\t\ttype=\'string\', \n\t\t\tnotnull=True, \n\t\t\tdefault=representante_liceo.ci, \n\t\t\trequires=db.representante_liceo.ci.requires,\n\t\t\tlabel=\'ci\'\n\t\t\t),\n\t\tField(\'first_name\' +  \'last_name\', \n\t\t\ttype=\'string\', \n\t\t\tdefault=usuario.first_name + " " + usuario.last_name,\n\t\t\trequires=db.usuario.first_name.requires and db.usuario.last_name.requires,\n\t\t\tlabel=\'nombre\'\n\t\t\t),\n\t\tField(\'nombre_liceo\', \n\t\t\ttype=\'string\',  \n\t\t\tdefault=representante_liceo.nombre_liceo, \n\t\t\trequires=db.representante_liceo.nombre_liceo.requires,\n\t\t\tlabel=\'nombre_liceo\'\n\t\t\t),\n\t\tField(\'email\', \n\t\t\ttype=\'date\',\n\t\t\tdefault=usuario.email, \n\t\t\trequires=db.usuario.email.requires,\n\t\t\tlabel=\'email\'),\n        readonly = True\n        )\n\n    if formCoordinadorLiceo.process(session=None, formname=\'perfil del Representante Liceo de sede\', keepvalues=True).accepted:\n        response.flash = \'El formulario fue aceptado exitosamente.\'\n\n    elif formCoordinadorLiceo.errors:\n\t\t#error = True\n\t\tresponse.flash = \'Hay un error en un campo.\'\n    ############################\n    ###fin de Consula de datos\n    ############################\n\n    return dict(formCoordinadorLiceo=formCoordinadorLiceo, formDatosBasicos=formDatosBasicos)\n\n@auth.requires_membership(\'Representante_sede\')\n@auth.requires_login()\ndef coordinadorPio():\n\n    ########################\n    ###Consula de datos\n    ########################\n    T.force(\'es\')\n    username = auth.user.username\n    representante_sede=db(db.representante_sede.ci==username).select().first()\n    usuario = db(db.usuario.username==username).select().first()\n    #tipo=""\n    #error = False\n\n    formDatosBasicos = SQLFORM.factory(\n        Field(\'first_name\' +  \'last_name\',\n\t\t\ttype=\'string\', \n\t\t\tdefault=usuario.first_name + " " + usuario.last_name,\n\t\t\trequires=db.usuario.first_name.requires and db.usuario.last_name.requires,\n\t\t\tlabel=\'nombre\'\n\t\t\t),\n        Field(\'username\',\n\t\t\ttype=\'string\',\n            notnull = True,\n\t\t\tdefault=usuario.username, \n\t\t\trequires=db.usuario.username.requires,\n\t\t\tlabel=\'ci\'\n\t\t\t),\n\t\tField(\'email\', \n\t\t\ttype=\'string\', \n\t\t\tdefault=usuario.email, \n\t\t\trequires=db.usuario.email.requires,\n\t\t\tlabel=\'email\'),\n        readonly = True\n        )\n\n    if formDatosBasicos.process(session=None, formname=\'perfil basico del Representante PIO de sede\', keepvalues=True).accepted:\n        response.flash = \'El formulario fue aceptado exitosamente.\'\n\n    elif formDatosBasicos.errors:\n\t\t#error = True\n\t\tresponse.flash = \'Hay un error en un campo.\'\n\n    formCoordinadorPio = SQLFORM.factory(\n\t\tField(\'ci\', \n\t\t\ttype=\'string\', \n\t\t\tnotnull=True, \n\t\t\tdefault=representante_sede.ci, \n\t\t\trequires=db.representante_sede.ci.requires,\n\t\t\tlabel=\'ci\'\n\t\t\t),\n\t\tField(\'first_name\' +  \'last_name\', \n\t\t\ttype=\'string\', \n\t\t\tdefault=usuario.first_name + " " + usuario.last_name,\n\t\t\trequires=db.usuario.first_name.requires and db.usuario.last_name.requires,\n\t\t\tlabel=\'nombre\'\n\t\t\t),\n\t\tField(\'sede\', \n\t\t\ttype=\'string\',  \n\t\t\tdefault=representante_sede.sede, \n\t\t\trequires=db.representante_sede.sede.requires,\n\t\t\tlabel=\'sede\'\n\t\t\t),\n\t\tField(\'email\', \n\t\t\ttype=\'date\',\n\t\t\tdefault=usuario.email, \n\t\t\trequires=db.usuario.email.requires,\n\t\t\tlabel=\'email\'),\n        readonly = True\n        )\n\n    if formCoordinadorPio.process(session=None, formname=\'perfil del Representante PIO de sede\', keepvalues=True).accepted:\n        response.flash = \'El formulario fue aceptado exitosamente.\'\n\n    elif formCoordinadorPio.errors:\n\t\t#error = True\n\t\tresponse.flash = \'Hay un error en un campo.\'\n    ############################\n    ###fin de Consula de datos\n    ############################\n\n    return dict(formDatosBasicos=formDatosBasicos, formCoordinadorPio=formCoordinadorPio)\n\n@auth.requires_membership(\'Estudiante\')\n@auth.requires_login()\ndef welcome():\n\n    ########################\n    ###Consula de datos\n    ########################\n    T.force(\'es\')\n    username = auth.user.username\n    estudiante=db(db.estudiante.ci==username).select().first()\n    usuario = db(db.usuario.username==username).select().first()\n    #tipo=""\n    #error = False\n\n    formDatosBasicos = SQLFORM.factory(\n        Field(\'first_name\' +  \'last_name\',\n\t\t\ttype=\'string\', \n\t\t\tdefault=usuario.first_name + " " + usuario.last_name,\n\t\t\trequires=db.usuario.first_name.requires and db.usuario.last_name.requires,\n\t\t\tlabel=\'nombre\'\n\t\t\t),\n        Field(\'username\',\n\t\t\ttype=\'string\',\n            notnull = True,\n\t\t\tdefault=usuario.username, \n\t\t\trequires=db.usuario.username.requires,\n\t\t\tlabel=\'ci\'\n\t\t\t),\n\t\tField(\'email\', \n\t\t\ttype=\'string\', \n\t\t\tdefault=usuario.email, \n\t\t\trequires=db.usuario.email.requires,\n\t\t\tlabel=\'email\'),\n        readonly = True\n        )\n\n    if formDatosBasicos.process(session=None, formname=\'perfil basico del Estudiante\', keepvalues=True).accepted:\n        response.flash = \'El formulario fue aceptado exitosamente.\'\n\n    elif formDatosBasicos.errors:\n\t\t#error = True\n\t\tresponse.flash = \'Hay un error en un campo.\'\n\n    formEstudiante = SQLFORM.factory(\n\t\tField(\'ci\', \n\t\t\ttype=\'string\', \n\t\t\tnotnull=True, \n\t\t\tdefault=estudiante.ci, \n\t\t\trequires=db.estudiante.ci.requires,\n\t\t\tlabel=\'ci\'\n\t\t\t),\n\t\tField(\'first_name\', \n\t\t\ttype=\'string\', \n\t\t\tdefault=usuario.first_name,\n\t\t\trequires=db.usuario.first_name.requires and db.usuario.last_name.requires,\n\t\t\tlabel=\'nombre\'\n\t\t\t),\n        Field(\'last_name\',\n            type=\'string\',\n            default=usuario.last_name,\n            requires=db.usuario.first_name.requires and db.usuario.last_name.requires,\n            label=\'apellido\'\n            ),\n\n\t\tField(\'sexo\', \n\t\t\ttype=\'string\',  \n\t\t\tdefault=estudiante.sexo, \n\t\t\trequires=db.estudiante.sexo.requires,\n\t\t\tlabel=\'sexo\'\n\t\t\t),\n\t\tField(\'fecha_nacimiento\', \n\t\t\ttype=\'date\',\n\t\t\tdefault=estudiante.fecha_nacimiento, \n\t\t\trequires=db.estudiante.fecha_nacimiento.requires,\n\t\t\tlabel=\'fecha_de_nacimiento\'\n\t\t\t),\n\t\tField(\'promedio\', \n\t\t\ttype=\'string\', \n            default= estudiante.promedio,\n\t\t\trequires=db.estudiante.promedio.requires,\n\t\t\tlabel=\'promedio\'\n\t\t\t),\n\t\tField(\'nombre_liceo\', \n\t\t\ttype=\'string\',\n\t\t\tdefault="            "+estudiante.nombre_liceo, \n\t\t\trequires=db.estudiante.nombre_liceo.requires,\n\t\t\tlabel=\'nombre_liceo\'\n\t\t\t),\n\t\tField(\'email\', \n\t\t\ttype=\'string\',\n\t\t\tdefault=usuario.email, \n\t\t\trequires=db.usuario.email.requires,\n\t\t\tlabel=\'email\',\n\t\t\t),\n        Field(\'telefono_habitacion\',\n\t\t\ttype=\'integer\',\n\t\t\tdefault=estudiante.telefono_habitacion,\n\t\t\trequires=db.estudiante.telefono_habitacion.requires,\n\t\t\tlabel=\'telefono_habitacion\',\n\t\t\t),\n        Field(\'direccion\',\n            type=\'string\',\n            default= estudiante.direccion,\n            requires=db.estudiante.direccion.requires,\n            label=\'direccion\'),\n        readonly = True\n        )\n\n    if formEstudiante.process(session=None, formname=\'perfil del Estudiante\', keepvalues=True).accepted:\n        response.flash = \'El formulario fue aceptado exitosamente.\'\n\n    elif formEstudiante.errors:\n\t\t#error = True\n\t\tresponse.flash = \'Hay un error en un campo.\'\n\n    ############################\n    ###fin de Consula de datos\n    ############################\n\n    return dict(formDatosBasicos = formDatosBasicos, formEstudiante = formEstudiante)\n\nresponse._vars=response._caller(welcome)\n'
p7
sS'snapshot'
p8
(dp9
S'exception'
p10
(dp11
S'__module__'
p12
S"'psycopg2'"
p13
sS'__getslice__'
p14
S"<method-wrapper '__getslice__' of ProgrammingError object>"
p15
sS'__str__'
p16
S"<method-wrapper '__str__' of ProgrammingError object>"
p17
sS'__reduce__'
p18
S'<built-in method __reduce__ of ProgrammingError object>'
p19
sS'__dict__'
p20
S'{}'
p21
sS'__sizeof__'
p22
S'<built-in method __sizeof__ of ProgrammingError object>'
p23
sS'__weakref__'
p24
S'None'
p25
sS'__init__'
p26
S"<method-wrapper '__init__' of ProgrammingError object>"
p27
sS'__setattr__'
p28
S"<method-wrapper '__setattr__' of ProgrammingError object>"
p29
sS'__reduce_ex__'
p30
S'<built-in method __reduce_ex__ of ProgrammingError object>'
p31
sS'__new__'
p32
S'<built-in method __new__ of type object>'
p33
sS'diag'
p34
S'<psycopg2._psycopg.Diagnostics object>'
p35
sS'__format__'
p36
S'<built-in method __format__ of ProgrammingError object>'
p37
sS'__class__'
p38
S"<class 'psycopg2.ProgrammingError'>"
p39
sS'pgerror'
p40
S"'ERROR:  column estudiante.telefono_habitacion do...                                               ^\\n'"
p41
sS'__doc__'
p42
S"'Error related to database programming (SQL error, table not found etc).'"
p43
sS'__getitem__'
p44
S"<method-wrapper '__getitem__' of ProgrammingError object>"
p45
sS'__setstate__'
p46
S'<built-in method __setstate__ of ProgrammingError object>'
p47
sS'__getattribute__'
p48
S"<method-wrapper '__getattribute__' of ProgrammingError object>"
p49
sS'args'
p50
S"('column estudiante.telefono_habitacion does not e...                                               ^\\n',)"
p51
sS'__subclasshook__'
p52
S'<built-in method __subclasshook__ of type object>'
p53
sS'pgcode'
p54
S"'42703'"
p55
sS'__unicode__'
p56
S'<built-in method __unicode__ of ProgrammingError object>'
p57
sS'cursor'
p58
S'<cursor object at 0x03F31630; closed: 0>'
p59
sS'__delattr__'
p60
S"<method-wrapper '__delattr__' of ProgrammingError object>"
p61
sS'__repr__'
p62
S"<method-wrapper '__repr__' of ProgrammingError object>"
p63
sS'__hash__'
p64
S"<method-wrapper '__hash__' of ProgrammingError object>"
p65
ssS'evalue'
p66
S'column estudiante.telefono_habitacion does not exist\nLINE 1: ...te.ci, estudiante.promedio, estudiante.direccion, estudiante...\n                                                             ^\n'
p67
sS'request'
p68
cgluon.html
XML_unpickle
p69
(S's\xf3_\x00\x00<div><table><tr><td style="font-weight:bold;vertical-align:top;">ajax</td><td style="vertical-align:top;">:</td><td><div>False</div></td></tr><tr><td style="font-weight:bold;vertical-align:top;">application</td><td style="vertical-align:top;">:</td><td><div>SisPIOrafael2</div></td></tr><tr><td style="font-weight:bold;vertical-align:top;">args</td><td style="vertical-align:top;">:</td><td><div><table></table></div></td></tr><tr><td style="font-weight:bold;vertical-align:top;">cid</td><td style="vertical-align:top;">:</td><td><div>None</div></td></tr><tr><td style="font-weight:bold;vertical-align:top;">client</td><td style="vertical-align:top;">:</td><td><div>127.0.0.1</div></td></tr><tr><td style="font-weight:bold;vertical-align:top;">controller</td><td style="vertical-align:top;">:</td><td><div>default</div></td></tr><tr><td style="font-weight:bold;vertical-align:top;">cookies</td><td style="vertical-align:top;">:</td><td><div><table><tr><td style="font-weight:bold;vertical-align:top;">session_id_admin</td><td style="vertical-align:top;">:</td><td><div>127.0.0.1-93627c6e-081f-4e59-9dd3-cb771819e599<table><tr><td style="font-weight:bold;vertical-align:top;">comment</td><td style="vertical-align:top;">:</td><td><div></div></td></tr><tr><td style="font-weight:bold;vertical-align:top;">domain</td><td style="vertical-align:top;">:</td><td><div></div></td></tr><tr><td style="font-weight:bold;vertical-align:top;">expires</td><td style="vertical-align:top;">:</td><td><div></div></td></tr><tr><td style="font-weight:bold;vertical-align:top;">httponly</td><td style="vertical-align:top;">:</td><td><div></div></td></tr><tr><td style="font-weight:bold;vertical-align:top;">max-age</td><td style="vertical-align:top;">:</td><td><div></div></td></tr><tr><td style="font-weight:bold;vertical-align:top;">path</td><td style="vertical-align:top;">:</td><td><div></div></td></tr><tr><td style="font-weight:bold;vertical-align:top;">secure</td><td style="vertical-align:top;">:</td><td><div></div></td></tr><tr><td style="font-weight:bold;vertical-align:top;">version</td><td style="vertical-align:top;">:</td><td><div></div></td></tr></table></div></td></tr><tr><td style="font-weight:bold;vertical-align:top;">session_id_sispiorafael2</td><td style="vertical-align:top;">:</td><td><div>127.0.0.1-1dc4d167-2449-4eae-86df-f51bd2c79663<table><tr><td style="font-weight:bold;vertical-align:top;">comment</td><td style="vertical-align:top;">:</td><td><div></div></td></tr><tr><td style="font-weight:bold;vertical-align:top;">domain</td><td style="vertical-align:top;">:</td><td><div></div></td></tr><tr><td style="font-weight:bold;vertical-align:top;">expires</td><td style="vertical-align:top;">:</td><td><div></div></td></tr><tr><td style="font-weight:bold;vertical-align:top;">httponly</td><td style="vertical-align:top;">:</td><td><div></div></td></tr><tr><td style="font-weight:bold;vertical-align:top;">max-age</td><td style="vertical-align:top;">:</td><td><div></div></td></tr><tr><td style="font-weight:bold;vertical-align:top;">path</td><td style="vertical-align:top;">:</td><td><div></div></td></tr><tr><td style="font-weight:bold;vertical-align:top;">secure</td><td style="vertical-align:top;">:</td><td><div></div></td></tr><tr><td style="font-weight:bold;vertical-align:top;">version</td><td style="vertical-align:top;">:</td><td><div></div></td></tr></table></div></td></tr><tr><td style="font-weight:bold;vertical-align:top;">session_id_welcome</td><td style="vertical-align:top;">:</td><td><div>127.0.0.1-2417fcff-48a6-4605-a7ae-14118d2495fc<table><tr><td style="font-weight:bold;vertical-align:top;">comment</td><td style="vertical-align:top;">:</td><td><div></div></td></tr><tr><td style="font-weight:bold;vertical-align:top;">domain</td><td style="vertical-align:top;">:</td><td><div></div></td></tr><tr><td style="font-weight:bold;vertical-align:top;">expires</td><td style="vertical-align:top;">:</td><td><div></div></td></tr><tr><td style="font-weight:bold;vertical-align:top;">httponly</td><td style="vertical-align:top;">:</td><td><div></div></td></tr><tr><td style="font-weight:bold;vertical-align:top;">max-age</td><td style="vertical-align:top;">:</td><td><div></div></td></tr><tr><td style="font-weight:bold;vertical-align:top;">path</td><td style="vertical-align:top;">:</td><td><div></div></td></tr><tr><td style="font-weight:bold;vertical-align:top;">secure</td><td style="vertical-align:top;">:</td><td><div></div></td></tr><tr><td style="font-weight:bold;vertical-align:top;">version</td><td style="vertical-align:top;">:</td><td><div></div></td></tr></table></div></td></tr></table></div></td></tr><tr><td style="font-weight:bold;vertical-align:top;">env</td><td style="vertical-align:top;">:</td><td><div><table><tr><td style="font-weight:bold;vertical-align:top;">HTTP_ACCEPT</td><td style="vertical-align:top;">:</td><td><div>text/html,application/xhtml+xml,application/xml;q=0.9,image/webp,image/apng,*/*;q=0.8</div></td></tr><tr><td style="font-weight:bold;vertical-align:top;">HTTP_ACCEPT_ENCODING</td><td style="vertical-align:top;">:</td><td><div>gzip, deflate, br</div></td></tr><tr><td style="font-weight:bold;vertical-align:top;">HTTP_ACCEPT_LANGUAGE</td><td style="vertical-align:top;">:</td><td><div>es-419,es;q=0.8</div></td></tr><tr><td style="font-weight:bold;vertical-align:top;">HTTP_CACHE_CONTROL</td><td style="vertical-align:top;">:</td><td><div>max-age=0</div></td></tr><tr><td style="font-weight:bold;vertical-align:top;">HTTP_CONNECTION</td><td style="vertical-align:top;">:</td><td><div>keep-alive</div></td></tr><tr><td style="font-weight:bold;vertical-align:top;">HTTP_COOKIE</td><td style="vertical-align:top;">:</td><td><div>session_id_welcome=127.0.0.1-2417fcff-48a6-4605-a7ae-14118d2495fc; session_id_admin=127.0.0.1-93627c6e-081f-4e59-9dd3-cb771819e599; session_id_sispiorafael2=127.0.0.1-1dc4d167-2449-4eae-86df-f51bd2c79663</div></td></tr><tr><td style="font-weight:bold;vertical-align:top;">HTTP_HOST</td><td style="vertical-align:top;">:</td><td><div>127.0.0.1:8000</div></td></tr><tr><td style="font-weight:bold;vertical-align:top;">HTTP_REFERER</td><td style="vertical-align:top;">:</td><td><div>http://127.0.0.1:8000/SisPIOrafael2/default/index</div></td></tr><tr><td style="font-weight:bold;vertical-align:top;">HTTP_UPGRADE_INSECURE_REQUESTS</td><td style="vertical-align:top;">:</td><td><div>1</div></td></tr><tr><td style="font-weight:bold;vertical-align:top;">HTTP_USER_AGENT</td><td style="vertical-align:top;">:</td><td><div>Mozilla/5.0 (Windows NT 10.0; Win64; x64) AppleWebKit/537.36 (KHTML, like Gecko) Chrome/61.0.3163.100 Safari/537.36</div></td></tr><tr><td style="font-weight:bold;vertical-align:top;">PATH_INFO</td><td style="vertical-align:top;">:</td><td><div>/SisPIOrafael2/default/welcome</div></td></tr><tr><td style="font-weight:bold;vertical-align:top;">QUERY_STRING</td><td style="vertical-align:top;">:</td><td><div></div></td></tr><tr><td style="font-weight:bold;vertical-align:top;">REMOTE_ADDR</td><td style="vertical-align:top;">:</td><td><div>127.0.0.1</div></td></tr><tr><td style="font-weight:bold;vertical-align:top;">REMOTE_PORT</td><td style="vertical-align:top;">:</td><td><div>50686</div></td></tr><tr><td style="font-weight:bold;vertical-align:top;">REQUEST_METHOD</td><td style="vertical-align:top;">:</td><td><div>GET</div></td></tr><tr><td style="font-weight:bold;vertical-align:top;">SCRIPT_NAME</td><td style="vertical-align:top;">:</td><td><div></div></td></tr><tr><td style="font-weight:bold;vertical-align:top;">SERVER_NAME</td><td style="vertical-align:top;">:</td><td><div>Rafa-PC</div></td></tr><tr><td style="font-weight:bold;vertical-align:top;">SERVER_PORT</td><td style="vertical-align:top;">:</td><td><div>8000</div></td></tr><tr><td style="font-weight:bold;vertical-align:top;">SERVER_PROTOCOL</td><td style="vertical-align:top;">:</td><td><div>HTTP/1.1</div></td></tr><tr><td style="font-weight:bold;vertical-align:top;">SERVER_SOFTWARE</td><td style="vertical-align:top;">:</td><td><div>Rocket 1.2.6</div></td></tr><tr><td style="font-weight:bold;vertical-align:top;">app_folders</td><td style="vertical-align:top;">:</td><td><div>set([&#x27;C:\\\\Users\\\\Rafael Cisneros\\\\Desktop\\\\web2py\\\\web2py\\\\applications\\\\SisPIOrafael2\\\\&#x27;, &#x27;C:\\\\Users\\\\Rafael Cisneros\\\\Desktop\\\\web2py\\\\web2py\\\\applications\\\\admin\\\\&#x27;, &#x27;C:\\\\Users\\\\Rafael Cisneros\\\\Desktop\\\\web2py\\\\web2py\\\\applications\\\\welcome\\\\&#x27;])</div></td></tr><tr><td style="font-weight:bold;vertical-align:top;">applications_parent</td><td style="vertical-align:top;">:</td><td><div>C:\\Users\\Rafael Cisneros\\Desktop\\web2py\\web2py</div></td></tr><tr><td style="font-weight:bold;vertical-align:top;">cmd_args</td><td style="vertical-align:top;">:</td><td><div><table></table></div></td></tr><tr><td style="font-weight:bold;vertical-align:top;">cmd_options</td><td style="vertical-align:top;">:</td><td><div>&lt;Values at 0x301bf08: {&#x27;verbose&#x27;: False, &#x27;ip&#x27;: &#x27;127.0.0.1&#x27;, &#x27;debuglevel&#x27;: 30, &#x27;with_scheduler&#x27;: False, &#x27;shutdown_timeout&#x27;: 5, &#x27;taskbar&#x27;: False, &#x27;with_coverage&#x27;: False, &#x27;pid_filename&#x27;: &#x27;httpserver.pid&#x27;, &#x27;maxthreads&#x27;: None, &#x27;softcron&#x27;: False, &#x27;server_name&#x27;: &#x27;Rafa-PC&#x27;, &#x27;bpython&#x27;: False, &#x27;nogui&#x27;: False, &#x27;port&#x27;: 8000, &#x27;print_errors&#x27;: False, &#x27;extcron&#x27;: False, &#x27;runcron&#x27;: False, &#x27;run_system_tests&#x27;: False, &#x27;test&#x27;: None, &#x27;folder&#x27;: &#x27;C:\\\\Users\\\\Rafael Cisneros\\\\Desktop\\\\web2py\\\\web2py&#x27;, &#x27;config&#x27;: &#x27;&#x27;, &#x27;minthreads&#x27;: None, &#x27;shell&#x27;: None, &#x27;run&#x27;: &#x27;&#x27;, &#x27;log_filename&#x27;: &#x27;httpserver.log&#x27;, &#x27;profiler_dir&#x27;: None, &#x27;args&#x27;: [&#x27;&#x27;], &#x27;socket_timeout&#x27;: 5, &#x27;ssl_ca_certificate&#x27;: None, &#x27;scheduler&#x27;: None, &#x27;interfaces&#x27;: None, &#x27;ssl_private_key&#x27;: &#x27;&#x27;, &#x27;gae&#x27;: None, &#x27;password&#x27;: &#x27;******&#x27;, &#x27;request_queue_size&#x27;: 5, &#x27;ssl_certificate&#x27;: &#x27;&#x27;, &#x27;cronjob&#x27;: False, &#x27;numthreads&#x27;: None, &#x27;quiet&#x27;: False, &#x27;import_models&#x27;: False, &#x27;timeout&#x27;: 10, &#x27;plain&#x27;: False, &#x27;nobanner&#x27;: False}&gt;</div></td></tr><tr><td style="font-weight:bold;vertical-align:top;">db_sessions</td><td style="vertical-align:top;">:</td><td><div>set([])</div></td></tr><tr><td style="font-weight:bold;vertical-align:top;">debugging</td><td style="vertical-align:top;">:</td><td><div>False</div></td></tr><tr><td style="font-weight:bold;vertical-align:top;">gluon_parent</td><td style="vertical-align:top;">:</td><td><div>C:\\Users\\Rafael Cisneros\\Desktop\\web2py\\web2py</div></td></tr><tr><td style="font-weight:bold;vertical-align:top;">http_accept</td><td style="vertical-align:top;">:</td><td><div>text/html,application/xhtml+xml,application/xml;q=0.9,image/webp,image/apng,*/*;q=0.8</div></td></tr><tr><td style="font-weight:bold;vertical-align:top;">http_accept_encoding</td><td style="vertical-align:top;">:</td><td><div>gzip, deflate, br</div></td></tr><tr><td style="font-weight:bold;vertical-align:top;">http_accept_language</td><td style="vertical-align:top;">:</td><td><div>es-419,es;q=0.8</div></td></tr><tr><td style="font-weight:bold;vertical-align:top;">http_cache_control</td><td style="vertical-align:top;">:</td><td><div>max-age=0</div></td></tr><tr><td style="font-weight:bold;vertical-align:top;">http_connection</td><td style="vertical-align:top;">:</td><td><div>keep-alive</div></td></tr><tr><td style="font-weight:bold;vertical-align:top;">http_cookie</td><td style="vertical-align:top;">:</td><td><div>session_id_welcome=127.0.0.1-2417fcff-48a6-4605-a7ae-14118d2495fc; session_id_admin=127.0.0.1-93627c6e-081f-4e59-9dd3-cb771819e599; session_id_sispiorafael2=127.0.0.1-1dc4d167-2449-4eae-86df-f51bd2c79663</div></td></tr><tr><td style="font-weight:bold;vertical-align:top;">http_host</td><td style="vertical-align:top;">:</td><td><div>127.0.0.1:8000</div></td></tr><tr><td style="font-weight:bold;vertical-align:top;">http_referer</td><td style="vertical-align:top;">:</td><td><div>http://127.0.0.1:8000/SisPIOrafael2/default/index</div></td></tr><tr><td style="font-weight:bold;vertical-align:top;">http_upgrade_insecure_requests</td><td style="vertical-align:top;">:</td><td><div>1</div></td></tr><tr><td style="font-weight:bold;vertical-align:top;">http_user_agent</td><td style="vertical-align:top;">:</td><td><div>Mozilla/5.0 (Windows NT 10.0; Win64; x64) AppleWebKit/537.36 (KHTML, like Gecko) Chrome/61.0.3163.100 Safari/537.36</div></td></tr><tr><td style="font-weight:bold;vertical-align:top;">is_jython</td><td style="vertical-align:top;">:</td><td><div>False</div></td></tr><tr><td style="font-weight:bold;vertical-align:top;">is_pypy</td><td style="vertical-align:top;">:</td><td><div>False</div></td></tr><tr><td style="font-weight:bold;vertical-align:top;">is_source</td><td style="vertical-align:top;">:</td><td><div>False</div></td></tr><tr><td style="font-weight:bold;vertical-align:top;">local_hosts</td><td style="vertical-align:top;">:</td><td><div><table><tr><td><div>2001:0:5ef5:79fd:2c27:ffe:4138:404f</div></td></tr><tr><td><div>Rafa-PC.cantv.net</div></td></tr><tr><td><div>Rafa-PC</div></td></tr><tr><td><div>::ffff:127.0.0.1</div></td></tr><tr><td><div>::1</div></td></tr><tr><td><div>fe80::2c27:ffe:4138:404f%5</div></td></tr><tr><td><div>190.199.191.176</div></td></tr><tr><td><div>fe80::4018:b4d4:ee94:6775%15</div></td></tr><tr><td><div>127.0.0.1</div></td></tr></table></div></td></tr><tr><td style="font-weight:bold;vertical-align:top;">path_info</td><td style="vertical-align:top;">:</td><td><div>/SisPIOrafael2/default/welcome</div></td></tr><tr><td style="font-weight:bold;vertical-align:top;">query_string</td><td style="vertical-align:top;">:</td><td><div></div></td></tr><tr><td style="font-weight:bold;vertical-align:top;">remote_addr</td><td style="vertical-align:top;">:</td><td><div>127.0.0.1</div></td></tr><tr><td style="font-weight:bold;vertical-align:top;">remote_port</td><td style="vertical-align:top;">:</td><td><div>50686</div></td></tr><tr><td style="font-weight:bold;vertical-align:top;">request_method</td><td style="vertical-align:top;">:</td><td><div>GET</div></td></tr><tr><td style="font-weight:bold;vertical-align:top;">request_uri</td><td style="vertical-align:top;">:</td><td><div>/SisPIOrafael2/default/welcome</div></td></tr><tr><td style="font-weight:bold;vertical-align:top;">script_name</td><td style="vertical-align:top;">:</td><td><div></div></td></tr><tr><td style="font-weight:bold;vertical-align:top;">server_name</td><td style="vertical-align:top;">:</td><td><div>Rafa-PC</div></td></tr><tr><td style="font-weight:bold;vertical-align:top;">server_port</td><td style="vertical-align:top;">:</td><td><div>8000</div></td></tr><tr><td style="font-weight:bold;vertical-align:top;">server_protocol</td><td style="vertical-align:top;">:</td><td><div>HTTP/1.1</div></td></tr><tr><td style="font-weight:bold;vertical-align:top;">server_software</td><td style="vertical-align:top;">:</td><td><div>Rocket 1.2.6</div></td></tr><tr><td style="font-weight:bold;vertical-align:top;">web2py_path</td><td style="vertical-align:top;">:</td><td><div>C:\\Users\\Rafael Cisneros\\Desktop\\web2py\\web2py</div></td></tr><tr><td style="font-weight:bold;vertical-align:top;">web2py_version</td><td style="vertical-align:top;">:</td><td><div>2.14.6-stable+timestamp.2016.05.10.00.21.47</div></td></tr><tr><td style="font-weight:bold;vertical-align:top;">wsgi.errors</td><td style="vertical-align:top;">:</td><td><div>&lt;open file &#x27;&lt;stderr&gt;&#x27;, mode &#x27;w&#x27; at 0x0209D0D0&gt;</div></td></tr><tr><td style="font-weight:bold;vertical-align:top;">wsgi.file_wrapper</td><td style="vertical-align:top;">:</td><td><div>&lt;class wsgiref.util.FileWrapper at 0x02F25148&gt;</div></td></tr><tr><td style="font-weight:bold;vertical-align:top;">wsgi.input</td><td style="vertical-align:top;">:</td><td><div>&lt;socket._fileobject object at 0x041FAF30&gt;</div></td></tr><tr><td style="font-weight:bold;vertical-align:top;">wsgi.multiprocess</td><td style="vertical-align:top;">:</td><td><div>False</div></td></tr><tr><td style="font-weight:bold;vertical-align:top;">wsgi.multithread</td><td style="vertical-align:top;">:</td><td><div>True</div></td></tr><tr><td style="font-weight:bold;vertical-align:top;">wsgi.run_once</td><td style="vertical-align:top;">:</td><td><div>False</div></td></tr><tr><td style="font-weight:bold;vertical-align:top;">wsgi.url_scheme</td><td style="vertical-align:top;">:</td><td><div>http</div></td></tr><tr><td style="font-weight:bold;vertical-align:top;">wsgi.version</td><td style="vertical-align:top;">:</td><td><div><table><tr><td><div>1</div></td></tr><tr><td><div>0</div></td></tr></table></div></td></tr><tr><td style="font-weight:bold;vertical-align:top;">wsgi_errors</td><td style="vertical-align:top;">:</td><td><div>&lt;open file &#x27;&lt;stderr&gt;&#x27;, mode &#x27;w&#x27; at 0x0209D0D0&gt;</div></td></tr><tr><td style="font-weight:bold;vertical-align:top;">wsgi_file_wrapper</td><td style="vertical-align:top;">:</td><td><div>&lt;class wsgiref.util.FileWrapper at 0x02F25148&gt;</div></td></tr><tr><td style="font-weight:bold;vertical-align:top;">wsgi_input</td><td style="vertical-align:top;">:</td><td><div>&lt;socket._fileobject object at 0x041FAF30&gt;</div></td></tr><tr><td style="font-weight:bold;vertical-align:top;">wsgi_multiprocess</td><td style="vertical-align:top;">:</td><td><div>False</div></td></tr><tr><td style="font-weight:bold;vertical-align:top;">wsgi_multithread</td><td style="vertical-align:top;">:</td><td><div>True</div></td></tr><tr><td style="font-weight:bold;vertical-align:top;">wsgi_run_once</td><td style="vertical-align:top;">:</td><td><div>False</div></td></tr><tr><td style="font-weight:bold;vertical-align:top;">wsgi_url_scheme</td><td style="vertical-align:top;">:</td><td><div>http</div></td></tr><tr><td style="font-weight:bold;vertical-align:top;">wsgi_version</td><td style="vertical-align:top;">:</td><td><div><table><tr><td><div>1</div></td></tr><tr><td><div>0</div></td></tr></table></div></td></tr></table></div></td></tr><tr><td style="font-weight:bold;vertical-align:top;">extension</td><td style="vertical-align:top;">:</td><td><div>html</div></td></tr><tr><td style="font-weight:bold;vertical-align:top;">folder</td><td style="vertical-align:top;">:</td><td><div>C:\\Users\\Rafael Cisneros\\Desktop\\web2py\\web2py\\applications\\SisPIOrafael2\\</div></td></tr><tr><td style="font-weight:bold;vertical-align:top;">function</td><td style="vertical-align:top;">:</td><td><div>welcome</div></td></tr><tr><td style="font-weight:bold;vertical-align:top;">global_settings</td><td style="vertical-align:top;">:</td><td><div><table><tr><td style="font-weight:bold;vertical-align:top;">app_folders</td><td style="vertical-align:top;">:</td><td><div>set([&#x27;C:\\\\Users\\\\Rafael Cisneros\\\\Desktop\\\\web2py\\\\web2py\\\\applications\\\\SisPIOrafael2\\\\&#x27;, &#x27;C:\\\\Users\\\\Rafael Cisneros\\\\Desktop\\\\web2py\\\\web2py\\\\applications\\\\admin\\\\&#x27;, &#x27;C:\\\\Users\\\\Rafael Cisneros\\\\Desktop\\\\web2py\\\\web2py\\\\applications\\\\welcome\\\\&#x27;])</div></td></tr><tr><td style="font-weight:bold;vertical-align:top;">applications_parent</td><td style="vertical-align:top;">:</td><td><div>C:\\Users\\Rafael Cisneros\\Desktop\\web2py\\web2py</div></td></tr><tr><td style="font-weight:bold;vertical-align:top;">cmd_args</td><td style="vertical-align:top;">:</td><td><div><table></table></div></td></tr><tr><td style="font-weight:bold;vertical-align:top;">cmd_options</td><td style="vertical-align:top;">:</td><td><div>&lt;Values at 0x301bf08: {&#x27;verbose&#x27;: False, &#x27;ip&#x27;: &#x27;127.0.0.1&#x27;, &#x27;debuglevel&#x27;: 30, &#x27;with_scheduler&#x27;: False, &#x27;shutdown_timeout&#x27;: 5, &#x27;taskbar&#x27;: False, &#x27;with_coverage&#x27;: False, &#x27;pid_filename&#x27;: &#x27;httpserver.pid&#x27;, &#x27;maxthreads&#x27;: None, &#x27;softcron&#x27;: False, &#x27;server_name&#x27;: &#x27;Rafa-PC&#x27;, &#x27;bpython&#x27;: False, &#x27;nogui&#x27;: False, &#x27;port&#x27;: 8000, &#x27;print_errors&#x27;: False, &#x27;extcron&#x27;: False, &#x27;runcron&#x27;: False, &#x27;run_system_tests&#x27;: False, &#x27;test&#x27;: None, &#x27;folder&#x27;: &#x27;C:\\\\Users\\\\Rafael Cisneros\\\\Desktop\\\\web2py\\\\web2py&#x27;, &#x27;config&#x27;: &#x27;&#x27;, &#x27;minthreads&#x27;: None, &#x27;shell&#x27;: None, &#x27;run&#x27;: &#x27;&#x27;, &#x27;log_filename&#x27;: &#x27;httpserver.log&#x27;, &#x27;profiler_dir&#x27;: None, &#x27;args&#x27;: [&#x27;&#x27;], &#x27;socket_timeout&#x27;: 5, &#x27;ssl_ca_certificate&#x27;: None, &#x27;scheduler&#x27;: None, &#x27;interfaces&#x27;: None, &#x27;ssl_private_key&#x27;: &#x27;&#x27;, &#x27;gae&#x27;: None, &#x27;password&#x27;: &#x27;******&#x27;, &#x27;request_queue_size&#x27;: 5, &#x27;ssl_certificate&#x27;: &#x27;&#x27;, &#x27;cronjob&#x27;: False, &#x27;numthreads&#x27;: None, &#x27;quiet&#x27;: False, &#x27;import_models&#x27;: False, &#x27;timeout&#x27;: 10, &#x27;plain&#x27;: False, &#x27;nobanner&#x27;: False}&gt;</div></td></tr><tr><td style="font-weight:bold;vertical-align:top;">db_sessions</td><td style="vertical-align:top;">:</td><td><div>set([])</div></td></tr><tr><td style="font-weight:bold;vertical-align:top;">debugging</td><td style="vertical-align:top;">:</td><td><div>False</div></td></tr><tr><td style="font-weight:bold;vertical-align:top;">gluon_parent</td><td style="vertical-align:top;">:</td><td><div>C:\\Users\\Rafael Cisneros\\Desktop\\web2py\\web2py</div></td></tr><tr><td style="font-weight:bold;vertical-align:top;">is_jython</td><td style="vertical-align:top;">:</td><td><div>False</div></td></tr><tr><td style="font-weight:bold;vertical-align:top;">is_pypy</td><td style="vertical-align:top;">:</td><td><div>False</div></td></tr><tr><td style="font-weight:bold;vertical-align:top;">is_source</td><td style="vertical-align:top;">:</td><td><div>False</div></td></tr><tr><td style="font-weight:bold;vertical-align:top;">local_hosts</td><td style="vertical-align:top;">:</td><td><div><table><tr><td><div>2001:0:5ef5:79fd:2c27:ffe:4138:404f</div></td></tr><tr><td><div>Rafa-PC.cantv.net</div></td></tr><tr><td><div>Rafa-PC</div></td></tr><tr><td><div>::ffff:127.0.0.1</div></td></tr><tr><td><div>::1</div></td></tr><tr><td><div>fe80::2c27:ffe:4138:404f%5</div></td></tr><tr><td><div>190.199.191.176</div></td></tr><tr><td><div>fe80::4018:b4d4:ee94:6775%15</div></td></tr><tr><td><div>127.0.0.1</div></td></tr></table></div></td></tr><tr><td style="font-weight:bold;vertical-align:top;">web2py_version</td><td style="vertical-align:top;">:</td><td><div>2.14.6-stable+timestamp.2016.05.10.00.21.47</div></td></tr></table></div></td></tr><tr><td style="font-weight:bold;vertical-align:top;">is_https</td><td style="vertical-align:top;">:</td><td><div>False</div></td></tr><tr><td style="font-weight:bold;vertical-align:top;">is_local</td><td style="vertical-align:top;">:</td><td><div>True</div></td></tr><tr><td style="font-weight:bold;vertical-align:top;">is_restful</td><td style="vertical-align:top;">:</td><td><div>False</div></td></tr><tr><td style="font-weight:bold;vertical-align:top;">is_scheduler</td><td style="vertical-align:top;">:</td><td><div>False</div></td></tr><tr><td style="font-weight:bold;vertical-align:top;">is_shell</td><td style="vertical-align:top;">:</td><td><div>False</div></td></tr><tr><td style="font-weight:bold;vertical-align:top;">now</td><td style="vertical-align:top;">:</td><td><div>datetime.datetime(2017, 10, 21, 11, 21, 43, 724000)</div></td></tr><tr><td style="font-weight:bold;vertical-align:top;">raw_args</td><td style="vertical-align:top;">:</td><td><div></div></td></tr><tr><td style="font-weight:bold;vertical-align:top;">raw_extension</td><td style="vertical-align:top;">:</td><td><div>None</div></td></tr><tr><td style="font-weight:bold;vertical-align:top;">url</td><td style="vertical-align:top;">:</td><td><div>/SisPIOrafael2/default/welcome</div></td></tr><tr><td style="font-weight:bold;vertical-align:top;">utcnow</td><td style="vertical-align:top;">:</td><td><div>datetime.datetime(2017, 10, 21, 15, 21, 43, 724000)</div></td></tr><tr><td style="font-weight:bold;vertical-align:top;">wsgi</td><td style="vertical-align:top;">:</td><td><div>&lt;gluon.main.LazyWSGI object at 0x03F43630&gt;</div></td></tr></table></div>'
tRp70
sS'frames'
p71
(lp72
(dp73
S'file'
p74
S'C:\\Users\\Rafael Cisneros\\Desktop\\web2py\\web2py\\gluon\\restricted.py'
p75
sS'dump'
p76
(dp77
S'environment'
p78
S"{'A': <class 'gluon.html.A'>, 'ANY_OF': <class 'gluon.validators.ANY_OF'>, 'ASSIGNJS': <function ASSIGNJS>, 'AppConfig': <function AppConfig>, 'Auth': <class 'gluon.tools.Auth'>, 'B': <class 'gluon.html.B'>, 'BEAUTIFY': <class 'gluon.html.BEAUTIFY'>, 'BODY': <class 'gluon.html.BODY'>, 'BR': <class 'gluon.html.BR'>, 'BUTTON': <class 'gluon.html.BUTTON'>, ...}"
p79
sS'ccode'
p80
S'<code object <module> at 04148890, file "C:\\User...s\\SisPIOrafael2\\controllers/default.py", line 11>'
p81
ssS'lnum'
p82
I227
sS'lines'
p83
(dp84
I224
S'            ccode = code'
p85
sI225
S'        else:'
p86
sI226
S'            ccode = compile2(code, layer)'
p87
sI227
S'        exec ccode in environment'
p88
sI228
S'    except HTTP:'
p89
sI229
S'        raise'
p90
sI230
S'    except RestrictedError:'
p91
sI231
S'        # do not encapsulate (obfuscate) the original RestrictedError'
p92
sI222
S'    try:'
p93
sI223
S'        if isinstance(code, types.CodeType):'
p94
ssS'call'
p95
S"(code='# -*- coding: utf-8 -*-\\n# this file is released ...iante)\\n\\nresponse._vars=response._caller(welcome)\\n', environment={'A': <class 'gluon.html.A'>, 'ANY_OF': <class 'gluon.validators.ANY_OF'>, 'ASSIGNJS': <function ASSIGNJS>, 'AppConfig': <function AppConfig>, 'Auth': <class 'gluon.tools.Auth'>, 'B': <class 'gluon.html.B'>, 'BEAUTIFY': <class 'gluon.html.BEAUTIFY'>, 'BODY': <class 'gluon.html.BODY'>, 'BR': <class 'gluon.html.BR'>, 'BUTTON': <class 'gluon.html.BUTTON'>, ...}, layer=r'C:\\Users\\Rafael Cisneros\\Desktop\\web2py\\web2py\\applications\\SisPIOrafael2\\controllers/default.py')"
p96
sS'func'
p97
S'restricted'
p98
sa(dp99
g74
S'C:\\Users\\Rafael Cisneros\\Desktop\\web2py\\web2py\\applications\\SisPIOrafael2\\controllers\\default.py'
p100
sg76
(dp101
sg82
I421
sg83
(dp102
I416
S'    ###fin de Consula de datos'
p103
sI417
S'    ############################'
p104
sI418
S''
sI419
S'    return dict(formDatosBasicos = formDatosBasicos, formEstudiante = formEstudiante)'
p105
sI410
S''
sI411
S'    elif formEstudiante.errors:'
p106
sI412
S'\t\t#error = True'
p107
sI413
S"\t\tresponse.flash = 'Hay un error en un campo.'"
p108
sI414
S''
sI415
S'    ############################'
p109
ssg95
S'()'
p110
sg97
S'<module>'
p111
sa(dp112
g74
S'C:\\Users\\Rafael Cisneros\\Desktop\\web2py\\web2py\\gluon\\globals.py'
p113
sg76
(dp114
S'self'
p115
S'undefined'
p116
sS'f'
S'<function welcome>'
p117
ssg82
I417
sg83
(dp118
I416
S'        self._vars = None'
p119
sI417
S'        self._caller = lambda f: f()'
p120
sI418
S'        self._view_environment = None'
p121
sI419
S'        self._custom_commit = None'
p122
sI420
S'        self._custom_rollback = None'
p123
sI421
S"        self.generic_patterns = ['*']"
p124
sI412
S"        self.flash = ''            # used by the default view layout"
p125
sI413
S'        self.meta = Storage()      # used by web2py_ajax.html'
p126
sI414
S'        self.menu = []             # used by the default view layout'
p127
sI415
S'        self.files = []            # used by web2py_ajax.html'
p128
ssg95
S'(f=<function welcome>)'
p129
sg97
S'<lambda>'
p130
sa(dp131
g74
S'C:\\Users\\Rafael Cisneros\\Desktop\\web2py\\web2py\\gluon\\tools.py'
p132
sg76
(dp133
S'action'
p134
S'<function welcome>'
p135
sS'a'
S'()'
p136
sS'b'
g21
ssg82
I4241
sg83
(dp137
I4236
S'                    flag = condition'
p138
sI4237
S'                if not flag:'
p139
sI4238
S'                    current.session.flash = self.messages.access_denied'
p140
sI4239
S'                    return call_or_redirect('
p141
sI4240
S'                        self.settings.on_failed_authorization)'
p142
sI4241
S'                return action(*a, **b)'
p143
sI4242
S'            f.__doc__ = action.__doc__'
p144
sI4243
S'            f.__name__ = action.__name__'
p145
sI4244
S'            f.__dict__.update(action.__dict__)'
p146
sI4245
S'            return f'
p147
ssg95
S'(*a=(), **b={})'
p148
sg97
S'f'
sa(dp149
g74
S'C:\\Users\\Rafael Cisneros\\Desktop\\web2py\\web2py\\gluon\\tools.py'
p150
sg76
(dp151
S'action'
p152
S'<function welcome>'
p153
sS'a'
S'()'
p154
sS'b'
g21
ssg82
I4241
sg83
(dp155
I4236
S'                    flag = condition'
p156
sI4237
S'                if not flag:'
p157
sI4238
S'                    current.session.flash = self.messages.access_denied'
p158
sI4239
S'                    return call_or_redirect('
p159
sI4240
S'                        self.settings.on_failed_authorization)'
p160
sI4241
S'                return action(*a, **b)'
p161
sI4242
S'            f.__doc__ = action.__doc__'
p162
sI4243
S'            f.__name__ = action.__name__'
p163
sI4244
S'            f.__dict__.update(action.__dict__)'
p164
sI4245
S'            return f'
p165
ssg95
S'(*a=(), **b={})'
p166
sg97
S'f'
sa(dp167
g74
S'C:\\Users\\Rafael Cisneros\\Desktop\\web2py\\web2py\\applications\\SisPIOrafael2\\controllers\\default.py'
p168
sg76
(dp169
S'username'
p170
S"'24759502'"
p171
sS'db.estudiante.ci'
p172
S'<pydal.objects.Field object>'
p173
sS'db.estudiante'
p174
S'<Table estudiante (id, ci, promedio, direccion, ...nefermedad, enfermedad, indicaciones_enfermedad)>'
p175
sS'estudiante'
p176
g116
sS').select'
p177
g116
sS'global db'
p178
S'<DAL uri="postgres:******@localhost/SisPIO">'
p179
ssg82
I309
sg83
(dp180
I304
S'    ########################'
p181
sI305
S'    ###Consula de datos'
p182
sI306
S'    ########################'
p183
sI307
S"    T.force('es')"
p184
sI308
S'    username = auth.user.username'
p185
sI309
S'    estudiante=db(db.estudiante.ci==username).select().first()'
p186
sI310
S'    usuario = db(db.usuario.username==username).select().first()'
p187
sI311
S'    #tipo=""'
p188
sI312
S'    #error = False'
p189
sI313
S''
ssg95
S'()'
p190
sg97
S'welcome'
p191
sa(dp192
g74
S'C:\\Users\\Rafael Cisneros\\Desktop\\web2py\\web2py\\gluon\\packages\\dal\\pydal\\objects.py'
p193
sg76
(dp194
S'self.query'
p195
S"<Query (estudiante.ci = '24759502')>"
p196
sS'adapter.select'
p197
S'<bound method PostgreSQLAdapter.select of <pydal.adapters.postgres.PostgreSQLAdapter object>>'
p198
sS'fields'
p199
S'[<pydal.objects.Field object>, <pydal.objects.Field object>, <pydal.objects.Field object>, <pydal.objects.Field object>, <pydal.objects.Field object>, <pydal.objects.Field object>, <pydal.objects.Field object>, <pydal.objects.Field object>, <pydal.objects.Field object>, <pydal.objects.Field object>, <pydal.objects.Field object>, <pydal.objects.Field object>, <pydal.objects.Field object>, <pydal.objects.Field object>, <pydal.objects.Field object>, <pydal.objects.Field object>, <pydal.objects.Field object>, <pydal.objects.Field object>, <pydal.objects.Field object>, <pydal.objects.Field object>, ...]'
p200
sS'adapter'
p201
S'<pydal.adapters.postgres.PostgreSQLAdapter object>'
p202
sS'attributes'
p203
g21
sS'self'
p204
S"<Set (estudiante.ci = '24759502')>"
p205
ssg82
I2020
sg83
(dp206
I2016
S"                                    attributes.get('left', None),"
p207
sI2017
S"                                    attributes.get('orderby', None),"
p208
sI2018
S"                                    attributes.get('groupby', None))"
p209
sI2019
S'        fields = adapter.expand_all(fields, tablenames)'
p210
sI2020
S'        return adapter.select(self.query, fields, attributes)'
p211
sI2021
S''
sI2022
S'    def iterselect(self, *fields, **attributes):'
p212
sI2023
S'        adapter = self.db._adapter'
p213
sI2024
S'        tablenames = adapter.tables(self.query,'
p214
sI2015
S"                                    attributes.get('join', None),"
p215
ssg95
S"(self=<Set (estudiante.ci = '24759502')>, *fields=[<pydal.objects.Field object>, <pydal.objects.Field object>, <pydal.objects.Field object>, <pydal.objects.Field object>, <pydal.objects.Field object>, <pydal.objects.Field object>, <pydal.objects.Field object>, <pydal.objects.Field object>, <pydal.objects.Field object>, <pydal.objects.Field object>, <pydal.objects.Field object>, <pydal.objects.Field object>, <pydal.objects.Field object>, <pydal.objects.Field object>, <pydal.objects.Field object>, <pydal.objects.Field object>, <pydal.objects.Field object>, <pydal.objects.Field object>, <pydal.objects.Field object>, <pydal.objects.Field object>, ...], **attributes={})"
p216
sg97
S'select'
p217
sa(dp218
g74
S'C:\\Users\\Rafael Cisneros\\Desktop\\web2py\\web2py\\gluon\\packages\\dal\\pydal\\adapters\\base.py'
p219
sg76
(dp220
S'fields'
p221
S'[<pydal.objects.Field object>, <pydal.objects.Field object>, <pydal.objects.Field object>, <pydal.objects.Field object>, <pydal.objects.Field object>, <pydal.objects.Field object>, <pydal.objects.Field object>, <pydal.objects.Field object>, <pydal.objects.Field object>, <pydal.objects.Field object>, <pydal.objects.Field object>, <pydal.objects.Field object>, <pydal.objects.Field object>, <pydal.objects.Field object>, <pydal.objects.Field object>, <pydal.objects.Field object>, <pydal.objects.Field object>, <pydal.objects.Field object>, <pydal.objects.Field object>, <pydal.objects.Field object>, ...]'
p222
sS'self'
p223
S'<pydal.adapters.postgres.PostgreSQLAdapter object>'
p224
sS'attributes'
p225
g21
sS'self._select_aux'
p226
S'<bound method PostgreSQLAdapter._select_aux of <pydal.adapters.postgres.PostgreSQLAdapter object>>'
p227
sS'sql'
p228
S'"SELECT  estudiante.id, estudiante.ci, estudiante...OM estudiante WHERE (estudiante.ci = \'24759502\');"'
p229
ssg82
I1296
sg83
(dp230
I1291
S'            return cache_model('
p231
sI1292
S'                key,'
p232
sI1293
S'                lambda self=self,args=args:self._select_aux(*args),'
p233
sI1294
S'                time_expire)'
p234
sI1295
S'        else:'
p235
sI1296
S'            return self._select_aux(sql,fields,attributes)'
p236
sI1297
S''
sI1298
S'    def iterselect(self, query, fields, attributes):'
p237
sI1299
S'        sql = self._select(query, fields, attributes)'
p238
sI1300
S"        cacheable = attributes.get('cacheable', False)"
p239
ssg95
S"(self=<pydal.adapters.postgres.PostgreSQLAdapter object>, query=<Query (estudiante.ci = '24759502')>, fields=[<pydal.objects.Field object>, <pydal.objects.Field object>, <pydal.objects.Field object>, <pydal.objects.Field object>, <pydal.objects.Field object>, <pydal.objects.Field object>, <pydal.objects.Field object>, <pydal.objects.Field object>, <pydal.objects.Field object>, <pydal.objects.Field object>, <pydal.objects.Field object>, <pydal.objects.Field object>, <pydal.objects.Field object>, <pydal.objects.Field object>, <pydal.objects.Field object>, <pydal.objects.Field object>, <pydal.objects.Field object>, <pydal.objects.Field object>, <pydal.objects.Field object>, <pydal.objects.Field object>, ...], attributes={})"
p240
sg97
g217
sa(dp241
g74
S'C:\\Users\\Rafael Cisneros\\Desktop\\web2py\\web2py\\gluon\\packages\\dal\\pydal\\adapters\\base.py'
p242
sg76
(dp243
S'self'
p244
S'<pydal.adapters.postgres.PostgreSQLAdapter object>'
p245
sS'self.execute'
p246
S'<bound method PostgreSQLAdapter.execute of <pydal.adapters.postgres.PostgreSQLAdapter object>>'
p247
sS'sql'
p248
S'"SELECT  estudiante.id, estudiante.ci, estudiante...OM estudiante WHERE (estudiante.ci = \'24759502\');"'
p249
ssg82
I1253
sg83
(dp250
I1248
S''
sI1249
S'    def _select_aux(self, sql, fields, attributes):'
p251
sI1250
S'        args_get = attributes.get'
p252
sI1251
S"        cache = args_get('cache',None)"
p253
sI1252
S'        if not cache:'
p254
sI1253
S'            self.execute(sql)'
p255
sI1254
S'            rows = self._fetchall()'
p256
sI1255
S'        else:'
p257
sI1256
S'            if isinstance(cache, dict):'
p258
sI1257
S"                cache_model = cache['model']"
p259
ssg95
S'(self=<pydal.adapters.postgres.PostgreSQLAdapter object>, sql="SELECT  estudiante.id, estudiante.ci, estudiante...OM estudiante WHERE (estudiante.ci = \'24759502\');", fields=[<pydal.objects.Field object>, <pydal.objects.Field object>, <pydal.objects.Field object>, <pydal.objects.Field object>, <pydal.objects.Field object>, <pydal.objects.Field object>, <pydal.objects.Field object>, <pydal.objects.Field object>, <pydal.objects.Field object>, <pydal.objects.Field object>, <pydal.objects.Field object>, <pydal.objects.Field object>, <pydal.objects.Field object>, <pydal.objects.Field object>, <pydal.objects.Field object>, <pydal.objects.Field object>, <pydal.objects.Field object>, <pydal.objects.Field object>, <pydal.objects.Field object>, <pydal.objects.Field object>, ...], attributes={})'
p260
sg97
S'_select_aux'
p261
sa(dp262
g74
S'C:\\Users\\Rafael Cisneros\\Desktop\\web2py\\web2py\\gluon\\packages\\dal\\pydal\\adapters\\postgres.py'
p263
sg76
(dp264
S'a'
S'("SELECT  estudiante.id, estudiante.ci, estudiante...OM estudiante WHERE (estudiante.ci = \'24759502\');",)'
p265
sS'self'
p266
S'<pydal.adapters.postgres.PostgreSQLAdapter object>'
p267
sS'b'
g21
sS'BaseAdapter.execute'
p268
S'<unbound method BaseAdapter.execute>'
p269
sS'global BaseAdapter'
p270
S"<class 'pydal.adapters.base.BaseAdapter'>"
p271
ssg82
I362
sg83
(dp272
I357
S''
sI358
S'    def execute(self, *a, **b):'
p273
sI359
S'        if PY2 and self.driver_name == "pg8000":'
p274
sI360
S'            a = list(a)'
p275
sI361
S"            a[0] = a[0].decode('utf8')"
p276
sI362
S'        return BaseAdapter.execute(self, *a, **b)'
p277
sI363
S''
sI364
S''
sI365
S'class NewPostgreSQLAdapter(PostgreSQLAdapter):'
p278
sI366
S"    drivers = ('psycopg2','pg8000')"
p279
ssg95
S'(self=<pydal.adapters.postgres.PostgreSQLAdapter object>, *a=("SELECT  estudiante.id, estudiante.ci, estudiante...OM estudiante WHERE (estudiante.ci = \'24759502\');",), **b={})'
p280
sg97
S'execute'
p281
sa(dp282
g74
S'C:\\Users\\Rafael Cisneros\\Desktop\\web2py\\web2py\\gluon\\packages\\dal\\pydal\\adapters\\base.py'
p283
sg76
(dp284
S'a'
S'("SELECT  estudiante.id, estudiante.ci, estudiante...OM estudiante WHERE (estudiante.ci = \'24759502\');",)'
p285
sS'self'
p286
S'<pydal.adapters.postgres.PostgreSQLAdapter object>'
p287
sS'b'
g21
sS'self.log_execute'
p288
S'<bound method PostgreSQLAdapter.log_execute of <pydal.adapters.postgres.PostgreSQLAdapter object>>'
p289
ssg82
I1388
sg83
(dp290
I1383
S'        self.db._timings.append((command,time.time()-t0))'
p291
sI1384
S'        del self.db._timings[:-TIMINGSSIZE]'
p292
sI1385
S'        return ret'
p293
sI1386
S''
sI1387
S'    def execute(self, *a, **b):'
p294
sI1388
S'        return self.log_execute(*a, **b)'
p295
sI1389
S''
sI1390
S'    def execute_test_query(self):'
p296
sI1391
S'        return self.execute(self.test_query)'
p297
sI1392
S''
ssg95
S'(self=<pydal.adapters.postgres.PostgreSQLAdapter object>, *a=("SELECT  estudiante.id, estudiante.ci, estudiante...OM estudiante WHERE (estudiante.ci = \'24759502\');",), **b={})'
p298
sg97
g281
sa(dp299
g74
S'C:\\Users\\Rafael Cisneros\\Desktop\\web2py\\web2py\\gluon\\packages\\dal\\pydal\\adapters\\base.py'
p300
sg76
(dp301
S'a'
S'("SELECT  estudiante.id, estudiante.ci, estudiante...OM estudiante WHERE (estudiante.ci = \'24759502\');",)'
p302
sS'b'
g21
sS'self'
p303
S'<pydal.adapters.postgres.PostgreSQLAdapter object>'
p304
sS'ret'
p305
g116
sS'command'
p306
S'"SELECT  estudiante.id, estudiante.ci, estudiante...OM estudiante WHERE (estudiante.ci = \'24759502\');"'
p307
sS'self.get_cursor'
p308
S'<bound method PostgreSQLAdapter.get_cursor of <pydal.adapters.postgres.PostgreSQLAdapter object>>'
p309
sS').execute'
p310
g116
ssg82
I1382
sg83
(dp311
I1377
S'            command = self.filter_sql_command(command)'
p312
sI1378
S'        if self.db._debug:'
p313
sI1379
S"            self.db.logger.debug('SQL: %s' % command)"
p314
sI1380
S'        self.db._lastsql = command'
p315
sI1381
S'        t0 = time.time()'
p316
sI1382
S'        ret = self.get_cursor().execute(command, *a[1:], **b)'
p317
sI1383
S'        self.db._timings.append((command,time.time()-t0))'
p318
sI1384
S'        del self.db._timings[:-TIMINGSSIZE]'
p319
sI1385
S'        return ret'
p320
sI1386
S''
ssg95
S'(self=<pydal.adapters.postgres.PostgreSQLAdapter object>, *a=("SELECT  estudiante.id, estudiante.ci, estudiante...OM estudiante WHERE (estudiante.ci = \'24759502\');",), **b={})'
p321
sg97
S'log_execute'
p322
sasS'pyver'
p323
S'Python 2.7.9: C:\\Users\\Rafael Cisneros\\Desktop\\web2py\\web2py\\web2py.exe (prefix: C:\\Python27)'
p324
sS'session'
p325
g69
(S's\x87\t\x00\x00<div><table><tr><td style="font-weight:bold;vertical-align:top;">auth</td><td style="vertical-align:top;">:</td><td><div><table><tr><td style="font-weight:bold;vertical-align:top;">expiration</td><td style="vertical-align:top;">:</td><td><div>3600</div></td></tr><tr><td style="font-weight:bold;vertical-align:top;">hmac_key</td><td style="vertical-align:top;">:</td><td><div>d9e27ae7-061f-4d3a-a032-be3ad9ef3f11</div></td></tr><tr><td style="font-weight:bold;vertical-align:top;">last_visit</td><td style="vertical-align:top;">:</td><td><div>datetime.datetime(2017, 10, 21, 11, 21, 42, 840000)</div></td></tr><tr><td style="font-weight:bold;vertical-align:top;">remember_me</td><td style="vertical-align:top;">:</td><td><div>False</div></td></tr><tr><td style="font-weight:bold;vertical-align:top;">user</td><td style="vertical-align:top;">:</td><td><div><table><tr><td style="font-weight:bold;vertical-align:top;">email</td><td style="vertical-align:top;">:</td><td><div>rafucho_A_cisneros@hotmail.com</div></td></tr><tr><td style="font-weight:bold;vertical-align:top;">first_name</td><td style="vertical-align:top;">:</td><td><div>rafael</div></td></tr><tr><td style="font-weight:bold;vertical-align:top;">id</td><td style="vertical-align:top;">:</td><td><div>2L</div></td></tr><tr><td style="font-weight:bold;vertical-align:top;">last_name</td><td style="vertical-align:top;">:</td><td><div>cisneros</div></td></tr><tr><td style="font-weight:bold;vertical-align:top;">registration_id</td><td style="vertical-align:top;">:</td><td><div></div></td></tr><tr><td style="font-weight:bold;vertical-align:top;">registration_key</td><td style="vertical-align:top;">:</td><td><div></div></td></tr><tr><td style="font-weight:bold;vertical-align:top;">reset_password_key</td><td style="vertical-align:top;">:</td><td><div></div></td></tr><tr><td style="font-weight:bold;vertical-align:top;">username</td><td style="vertical-align:top;">:</td><td><div>24759502</div></td></tr></table></div></td></tr><tr><td style="font-weight:bold;vertical-align:top;">user_groups</td><td style="vertical-align:top;">:</td><td><div><table><tr><td style="font-weight:bold;vertical-align:top;">1</td><td style="vertical-align:top;">:</td><td><div>Estudiante</div></td></tr></table></div></td></tr></table></div></td></tr><tr><td style="font-weight:bold;vertical-align:top;">flash</td><td style="vertical-align:top;">:</td><td><div>None</div></td></tr></table></div>'
tRp326
sS'etype'
p327
S"<class 'psycopg2.ProgrammingError'>"
p328
sS'date'
p329
S'Sat Oct 21 11:21:44 2017'
p330
sS'response'
p331
g69
(S'sf@\x00\x00<div><table><tr><td style="font-weight:bold;vertical-align:top;">body</td><td style="vertical-align:top;">:</td><td><div>&lt;cStringIO.StringO object at 0x0413CA60&gt;</div></td></tr><tr><td style="font-weight:bold;vertical-align:top;">cookies</td><td style="vertical-align:top;">:</td><td><div><table><tr><td style="font-weight:bold;vertical-align:top;">session_id_sispiorafael2</td><td style="vertical-align:top;">:</td><td><div>127.0.0.1-1dc4d167-2449-4eae-86df-f51bd2c79663<table><tr><td style="font-weight:bold;vertical-align:top;">comment</td><td style="vertical-align:top;">:</td><td><div></div></td></tr><tr><td style="font-weight:bold;vertical-align:top;">domain</td><td style="vertical-align:top;">:</td><td><div></div></td></tr><tr><td style="font-weight:bold;vertical-align:top;">expires</td><td style="vertical-align:top;">:</td><td><div></div></td></tr><tr><td style="font-weight:bold;vertical-align:top;">httponly</td><td style="vertical-align:top;">:</td><td><div></div></td></tr><tr><td style="font-weight:bold;vertical-align:top;">max-age</td><td style="vertical-align:top;">:</td><td><div></div></td></tr><tr><td style="font-weight:bold;vertical-align:top;">path</td><td style="vertical-align:top;">:</td><td><div>/</div></td></tr><tr><td style="font-weight:bold;vertical-align:top;">secure</td><td style="vertical-align:top;">:</td><td><div></div></td></tr><tr><td style="font-weight:bold;vertical-align:top;">version</td><td style="vertical-align:top;">:</td><td><div></div></td></tr></table></div></td></tr></table></div></td></tr><tr><td style="font-weight:bold;vertical-align:top;">delimiters</td><td style="vertical-align:top;">:</td><td><div><table><tr><td><div>{{</div></td></tr><tr><td><div>}}</div></td></tr></table></div></td></tr><tr><td style="font-weight:bold;vertical-align:top;">files</td><td style="vertical-align:top;">:</td><td><div><table></table></div></td></tr><tr><td style="font-weight:bold;vertical-align:top;">flash</td><td style="vertical-align:top;">:</td><td><div></div></td></tr><tr><td style="font-weight:bold;vertical-align:top;">form_label_separator</td><td style="vertical-align:top;">:</td><td><div></div></td></tr><tr><td style="font-weight:bold;vertical-align:top;">formstyle</td><td style="vertical-align:top;">:</td><td><div>bootstrap3_inline</div></td></tr><tr><td style="font-weight:bold;vertical-align:top;">generic_patterns</td><td style="vertical-align:top;">:</td><td><div><table><tr><td><div>*</div></td></tr></table></div></td></tr><tr><td style="font-weight:bold;vertical-align:top;">google_analytics_id</td><td style="vertical-align:top;">:</td><td><div>None</div></td></tr><tr><td style="font-weight:bold;vertical-align:top;">headers</td><td style="vertical-align:top;">:</td><td><div><table><tr><td style="font-weight:bold;vertical-align:top;">X-Powered-By</td><td style="vertical-align:top;">:</td><td><div>web2py</div></td></tr></table></div></td></tr><tr><td style="font-weight:bold;vertical-align:top;">logo</td><td style="vertical-align:top;">:</td><td><div><a class="navbar-brand" href="http://www.web2py.com/" id="web2py-logo"><b>web<span>2</span>py</b>&trade;&nbsp;</a></div></td></tr><tr><td style="font-weight:bold;vertical-align:top;">menu</td><td style="vertical-align:top;">:</td><td><div><table><tr><td><div><table><tr><td><div>Inicio</div></td></tr><tr><td><div>False</div></td></tr><tr><td><div>/SisPIOrafael2/default/index</div></td></tr><tr><td><div><table></table></div></td></tr></table></div></td></tr><tr><td><div><table><tr><td><div>Mis Sitios</div></td></tr><tr><td><div>False</div></td></tr><tr><td><div>/admin/default/site</div></td></tr></table></div></td></tr><tr><td><div><table><tr><td><div>Esta Aplicaci\xc3\xb3n</div></td></tr><tr><td><div>False</div></td></tr><tr><td><div>#</div></td></tr><tr><td><div><table><tr><td><div><table><tr><td><div>Design</div></td></tr><tr><td><div>False</div></td></tr><tr><td><div>/admin/default/design/SisPIOrafael2</div></td></tr></table></div></td></tr><tr><td><div><li class="divider"></li></div></td></tr><tr><td><div><table><tr><td><div>Controlador</div></td></tr><tr><td><div>False</div></td></tr><tr><td><div>/admin/default/edit/SisPIOrafael2/controllers/default.py</div></td></tr></table></div></td></tr><tr><td><div><table><tr><td><div>Vista</div></td></tr><tr><td><div>False</div></td></tr><tr><td><div>/admin/default/edit/SisPIOrafael2/views/default/welcome.html</div></td></tr></table></div></td></tr><tr><td><div><table><tr><td><div>Modelo BDD</div></td></tr><tr><td><div>False</div></td></tr><tr><td><div>/admin/default/edit/SisPIOrafael2/models/db.py</div></td></tr></table></div></td></tr><tr><td><div><table><tr><td><div>Modelo "menu"</div></td></tr><tr><td><div>False</div></td></tr><tr><td><div>/admin/default/edit/SisPIOrafael2/models/menu.py</div></td></tr></table></div></td></tr><tr><td><div><table><tr><td><div>Config.ini</div></td></tr><tr><td><div>False</div></td></tr><tr><td><div>/admin/default/edit/SisPIOrafael2/private/appconfig.ini</div></td></tr></table></div></td></tr><tr><td><div><table><tr><td><div>Dise\xc3\xb1o de p\xc3\xa1gina</div></td></tr><tr><td><div>False</div></td></tr><tr><td><div>/admin/default/edit/SisPIOrafael2/views/layout.html</div></td></tr></table></div></td></tr><tr><td><div><table><tr><td><div>Hoja de estilo</div></td></tr><tr><td><div>False</div></td></tr><tr><td><div>/admin/default/edit/SisPIOrafael2/static/css/web2py-bootstrap3.css</div></td></tr></table></div></td></tr><tr><td><div><table><tr><td><div>Base de datos</div></td></tr><tr><td><div>False</div></td></tr><tr><td><div>/SisPIOrafael2/appadmin/index</div></td></tr></table></div></td></tr><tr><td><div><table><tr><td><div>Errores</div></td></tr><tr><td><div>False</div></td></tr><tr><td><div>/admin/default/errors/SisPIOrafael2</div></td></tr></table></div></td></tr><tr><td><div><table><tr><td><div>Acerca de</div></td></tr><tr><td><div>False</div></td></tr><tr><td><div>/admin/default/about/SisPIOrafael2</div></td></tr></table></div></td></tr></table></div></td></tr></table></div></td></tr><tr><td><div><table><tr><td><div>web2py.com</div></td></tr><tr><td><div>False</div></td></tr><tr><td><div>#</div></td></tr><tr><td><div><table><tr><td><div><table><tr><td><div>Descargas</div></td></tr><tr><td><div>False</div></td></tr><tr><td><div>http://www.web2py.com/examples/default/download</div></td></tr></table></div></td></tr><tr><td><div><table><tr><td><div>Soporte</div></td></tr><tr><td><div>False</div></td></tr><tr><td><div>http://www.web2py.com/examples/default/support</div></td></tr></table></div></td></tr><tr><td><div><table><tr><td><div>Demostraci\xc3\xb3n</div></td></tr><tr><td><div>False</div></td></tr><tr><td><div>http://web2py.com/demo_admin</div></td></tr></table></div></td></tr><tr><td><div><table><tr><td><div>Ejemplos R\xc3\xa1pidos</div></td></tr><tr><td><div>False</div></td></tr><tr><td><div>http://web2py.com/examples/default/examples</div></td></tr></table></div></td></tr><tr><td><div><table><tr><td><div>FAQ</div></td></tr><tr><td><div>False</div></td></tr><tr><td><div>http://web2py.com/AlterEgo</div></td></tr></table></div></td></tr><tr><td><div><table><tr><td><div>V\xc3\xaddeos</div></td></tr><tr><td><div>False</div></td></tr><tr><td><div>http://www.web2py.com/examples/default/videos/</div></td></tr></table></div></td></tr><tr><td><div><table><tr><td><div>Aplicaciones Libres</div></td></tr><tr><td><div>False</div></td></tr><tr><td><div>http://web2py.com/appliances</div></td></tr></table></div></td></tr><tr><td><div><table><tr><td><div>Plugins</div></td></tr><tr><td><div>False</div></td></tr><tr><td><div>http://web2py.com/plugins</div></td></tr></table></div></td></tr><tr><td><div><table><tr><td><div>Recetas</div></td></tr><tr><td><div>False</div></td></tr><tr><td><div>http://web2pyslices.com/</div></td></tr></table></div></td></tr></table></div></td></tr></table></div></td></tr><tr><td><div><table><tr><td><div>Documentaci\xc3\xb3n</div></td></tr><tr><td><div>False</div></td></tr><tr><td><div>#</div></td></tr><tr><td><div><table><tr><td><div><table><tr><td><div>Online book</div></td></tr><tr><td><div>False</div></td></tr><tr><td><div>http://www.web2py.com/book</div></td></tr></table></div></td></tr><tr><td><div><li class="divider"></li></div></td></tr><tr><td><div><table><tr><td><div>Prefacio</div></td></tr><tr><td><div>False</div></td></tr><tr><td><div>http://www.web2py.com/book/default/chapter/00</div></td></tr></table></div></td></tr><tr><td><div><table><tr><td><div>Introducci\xc3\xb3n</div></td></tr><tr><td><div>False</div></td></tr><tr><td><div>http://www.web2py.com/book/default/chapter/01</div></td></tr></table></div></td></tr><tr><td><div><table><tr><td><div>Python</div></td></tr><tr><td><div>False</div></td></tr><tr><td><div>http://www.web2py.com/book/default/chapter/02</div></td></tr></table></div></td></tr><tr><td><div><table><tr><td><div>Resumen</div></td></tr><tr><td><div>False</div></td></tr><tr><td><div>http://www.web2py.com/book/default/chapter/03</div></td></tr></table></div></td></tr><tr><td><div><table><tr><td><div>El N\xc3\xbacleo</div></td></tr><tr><td><div>False</div></td></tr><tr><td><div>http://www.web2py.com/book/default/chapter/04</div></td></tr></table></div></td></tr><tr><td><div><table><tr><td><div>Las Vistas</div></td></tr><tr><td><div>False</div></td></tr><tr><td><div>http://www.web2py.com/book/default/chapter/05</div></td></tr></table></div></td></tr><tr><td><div><table><tr><td><div>Base de datos</div></td></tr><tr><td><div>False</div></td></tr><tr><td><div>http://www.web2py.com/book/default/chapter/06</div></td></tr></table></div></td></tr><tr><td><div><table><tr><td><div>Formularios y validadores</div></td></tr><tr><td><div>False</div></td></tr><tr><td><div>http://www.web2py.com/book/default/chapter/07</div></td></tr></table></div></td></tr><tr><td><div><table><tr><td><div>Correo electr\xc3\xb3nico y SMS</div></td></tr><tr><td><div>False</div></td></tr><tr><td><div>http://www.web2py.com/book/default/chapter/08</div></td></tr></table></div></td></tr><tr><td><div><table><tr><td><div>Control de Acceso</div></td></tr><tr><td><div>False</div></td></tr><tr><td><div>http://www.web2py.com/book/default/chapter/09</div></td></tr></table></div></td></tr><tr><td><div><table><tr><td><div>Servicios</div></td></tr><tr><td><div>False</div></td></tr><tr><td><div>http://www.web2py.com/book/default/chapter/10</div></td></tr></table></div></td></tr><tr><td><div><table><tr><td><div>Recetas AJAX</div></td></tr><tr><td><div>False</div></td></tr><tr><td><div>http://www.web2py.com/book/default/chapter/11</div></td></tr></table></div></td></tr><tr><td><div><table><tr><td><div>Componentes y Plugins</div></td></tr><tr><td><div>False</div></td></tr><tr><td><div>http://www.web2py.com/book/default/chapter/12</div></td></tr></table></div></td></tr><tr><td><div><table><tr><td><div>Recetas de despliegue</div></td></tr><tr><td><div>False</div></td></tr><tr><td><div>http://www.web2py.com/book/default/chapter/13</div></td></tr></table></div></td></tr><tr><td><div><table><tr><td><div>Otras Recetas</div></td></tr><tr><td><div>False</div></td></tr><tr><td><div>http://www.web2py.com/book/default/chapter/14</div></td></tr></table></div></td></tr><tr><td><div><table><tr><td><div>Helping web2py</div></td></tr><tr><td><div>False</div></td></tr><tr><td><div>http://www.web2py.com/book/default/chapter/15</div></td></tr></table></div></td></tr><tr><td><div><table><tr><td><div>Buy web2py\'s book</div></td></tr><tr><td><div>False</div></td></tr><tr><td><div>http://stores.lulu.com/web2py</div></td></tr></table></div></td></tr></table></div></td></tr></table></div></td></tr><tr><td><div><table><tr><td><div>Comunidad</div></td></tr><tr><td><div>False</div></td></tr><tr><td><div>None</div></td></tr><tr><td><div><table><tr><td><div><table><tr><td><div>Grupos</div></td></tr><tr><td><div>False</div></td></tr><tr><td><div>http://www.web2py.com/examples/default/usergroups</div></td></tr></table></div></td></tr><tr><td><div><table><tr><td><div>Twitter</div></td></tr><tr><td><div>False</div></td></tr><tr><td><div>http://twitter.com/web2py</div></td></tr></table></div></td></tr><tr><td><div><table><tr><td><div>Chat en vivo</div></td></tr><tr><td><div>False</div></td></tr><tr><td><div>http://webchat.freenode.net/?channels=web2py</div></td></tr></table></div></td></tr></table></div></td></tr></table></div></td></tr></table></div></td></tr><tr><td style="font-weight:bold;vertical-align:top;">meta</td><td style="vertical-align:top;">:</td><td><div><table><tr><td style="font-weight:bold;vertical-align:top;">author</td><td style="vertical-align:top;">:</td><td><div>Your Name &lt;you@example.com&gt;</div></td></tr><tr><td style="font-weight:bold;vertical-align:top;">description</td><td style="vertical-align:top;">:</td><td><div>a cool new app</div></td></tr><tr><td style="font-weight:bold;vertical-align:top;">generator</td><td style="vertical-align:top;">:</td><td><div>Web2py Web Framework</div></td></tr><tr><td style="font-weight:bold;vertical-align:top;">keywords</td><td style="vertical-align:top;">:</td><td><div><table><tr><td><div>web2py</div></td></tr><tr><td><div>python</div></td></tr><tr><td><div>framework</div></td></tr></table></div></td></tr></table></div></td></tr><tr><td style="font-weight:bold;vertical-align:top;">models_to_run</td><td style="vertical-align:top;">:</td><td><div><table><tr><td><div>^\\w+\\.py$</div></td></tr><tr><td><div>^default/\\w+\\.py$</div></td></tr><tr><td><div>^default/welcome/\\w+\\.py$</div></td></tr></table></div></td></tr><tr><td style="font-weight:bold;vertical-align:top;">postprocessing</td><td style="vertical-align:top;">:</td><td><div><table></table></div></td></tr><tr><td style="font-weight:bold;vertical-align:top;">session_client</td><td style="vertical-align:top;">:</td><td><div>127.0.0.1</div></td></tr><tr><td style="font-weight:bold;vertical-align:top;">session_cookie_compression_level</td><td style="vertical-align:top;">:</td><td><div>None</div></td></tr><tr><td style="font-weight:bold;vertical-align:top;">session_cookie_expires</td><td style="vertical-align:top;">:</td><td><div>None</div></td></tr><tr><td style="font-weight:bold;vertical-align:top;">session_data_name</td><td style="vertical-align:top;">:</td><td><div>session_data_sispiorafael2</div></td></tr><tr><td style="font-weight:bold;vertical-align:top;">session_file</td><td style="vertical-align:top;">:</td><td><div>&lt;open file &#x27;C:\\\\Users\\\\Rafael Cisneros\\\\Desktop\\\\web2py\\\\web2py\\\\applications\\\\SisPIOrafael2\\\\sessions\\\\162\\\\0f0\\\\127.0.0.1-1dc4d167-2449-4eae-86df-f51bd2c79663&#x27;, mode &#x27;rb+&#x27; at 0x041B1F98&gt;</div></td></tr><tr><td style="font-weight:bold;vertical-align:top;">session_filename</td><td style="vertical-align:top;">:</td><td><div>C:\\Users\\Rafael Cisneros\\Desktop\\web2py\\web2py\\applications\\SisPIOrafael2\\sessions\\127.0.0.1-1dc4d167-2449-4eae-86df-f51bd2c79663</div></td></tr><tr><td style="font-weight:bold;vertical-align:top;">session_hash</td><td style="vertical-align:top;">:</td><td><div>f26c2720dd8faa794ccc1671ebbd35ad</div></td></tr><tr><td style="font-weight:bold;vertical-align:top;">session_id</td><td style="vertical-align:top;">:</td><td><div>127.0.0.1-1dc4d167-2449-4eae-86df-f51bd2c79663</div></td></tr><tr><td style="font-weight:bold;vertical-align:top;">session_id_name</td><td style="vertical-align:top;">:</td><td><div>session_id_sispiorafael2</div></td></tr><tr><td style="font-weight:bold;vertical-align:top;">session_locked</td><td style="vertical-align:top;">:</td><td><div>True</div></td></tr><tr><td style="font-weight:bold;vertical-align:top;">session_masterapp</td><td style="vertical-align:top;">:</td><td><div>SisPIOrafael2</div></td></tr><tr><td style="font-weight:bold;vertical-align:top;">session_new</td><td style="vertical-align:top;">:</td><td><div>False</div></td></tr><tr><td style="font-weight:bold;vertical-align:top;">session_storage_type</td><td style="vertical-align:top;">:</td><td><div>file</div></td></tr><tr><td style="font-weight:bold;vertical-align:top;">status</td><td style="vertical-align:top;">:</td><td><div>200</div></td></tr><tr><td style="font-weight:bold;vertical-align:top;">subtitle</td><td style="vertical-align:top;">:</td><td><div></div></td></tr><tr><td style="font-weight:bold;vertical-align:top;">title</td><td style="vertical-align:top;">:</td><td><div>Sispiorafael2</div></td></tr><tr><td style="font-weight:bold;vertical-align:top;">view</td><td style="vertical-align:top;">:</td><td><div>default/welcome.html</div></td></tr></table></div>'
tRp332
sS'locals'
p333
(dp334
S'a'
S'("SELECT  estudiante.id, estudiante.ci, estudiante...OM estudiante WHERE (estudiante.ci = \'24759502\');",)'
p335
sS'self'
p336
S'<pydal.adapters.postgres.PostgreSQLAdapter object>'
p337
sS'b'
g21
sS'command'
p338
S'"SELECT  estudiante.id, estudiante.ci, estudiante...OM estudiante WHERE (estudiante.ci = \'24759502\');"'
p339
sS't0'
p340
S'1508599303.83'
p341
sssS'traceback'
p342
S'Traceback (most recent call last):\n  File "C:\\Users\\Rafael Cisneros\\Desktop\\web2py\\web2py\\gluon\\restricted.py", line 227, in restricted\n    exec ccode in environment\n  File "C:\\Users\\Rafael Cisneros\\Desktop\\web2py\\web2py\\applications\\SisPIOrafael2\\controllers/default.py", line 421, in <module>\n  File "C:\\Users\\Rafael Cisneros\\Desktop\\web2py\\web2py\\gluon\\globals.py", line 417, in <lambda>\n    self._caller = lambda f: f()\n  File "C:\\Users\\Rafael Cisneros\\Desktop\\web2py\\web2py\\gluon\\tools.py", line 4241, in f\n    return action(*a, **b)\n  File "C:\\Users\\Rafael Cisneros\\Desktop\\web2py\\web2py\\gluon\\tools.py", line 4241, in f\n    return action(*a, **b)\n  File "C:\\Users\\Rafael Cisneros\\Desktop\\web2py\\web2py\\applications\\SisPIOrafael2\\controllers/default.py", line 309, in welcome\n    estudiante=db(db.estudiante.ci==username).select().first()\n  File "C:\\Users\\Rafael Cisneros\\Desktop\\web2py\\web2py\\gluon\\packages\\dal\\pydal\\objects.py", line 2020, in select\n    return adapter.select(self.query, fields, attributes)\n  File "C:\\Users\\Rafael Cisneros\\Desktop\\web2py\\web2py\\gluon\\packages\\dal\\pydal\\adapters\\base.py", line 1296, in select\n    return self._select_aux(sql,fields,attributes)\n  File "C:\\Users\\Rafael Cisneros\\Desktop\\web2py\\web2py\\gluon\\packages\\dal\\pydal\\adapters\\base.py", line 1253, in _select_aux\n    self.execute(sql)\n  File "C:\\Users\\Rafael Cisneros\\Desktop\\web2py\\web2py\\gluon\\packages\\dal\\pydal\\adapters\\postgres.py", line 362, in execute\n    return BaseAdapter.execute(self, *a, **b)\n  File "C:\\Users\\Rafael Cisneros\\Desktop\\web2py\\web2py\\gluon\\packages\\dal\\pydal\\adapters\\base.py", line 1388, in execute\n    return self.log_execute(*a, **b)\n  File "C:\\Users\\Rafael Cisneros\\Desktop\\web2py\\web2py\\gluon\\packages\\dal\\pydal\\adapters\\base.py", line 1382, in log_execute\n    ret = self.get_cursor().execute(command, *a[1:], **b)\nProgrammingError: column estudiante.telefono_habitacion does not exist\nLINE 1: ...te.ci, estudiante.promedio, estudiante.direccion, estudiante...\n                                                             ^\n\n'
p343
s.