(dp1
S'output'
p2
S"<type 'exceptions.AttributeError'> 'Table' object has no attribute 'ci'"
p3
sS'layer'
p4
S'C:\\Users\\capf9\\Desktop\\University\\web2py_win\\web2py\\applications\\SisPIO\\controllers/admin.py'
p5
sS'code'
p6
S'# -*- coding: utf-8 -*-\n# this file is released under public domain and you can use without limitations\n\n# -------------------------------------------------------------------------\n# This is a sample controller\n# - index is the default action of any application\n# - user is required for authentication and authorization\n# - download is for downloading files uploaded in the db (does streaming)\n# -------------------------------------------------------------------------\nimport os\nimport re\n@auth.requires_membership(\'Administrador\')\n@auth.requires_login()\ndef index():\n\n    ########################\n    ###Consula de datos\n    ########################\n    T.force(\'es\')\n    username = auth.user.username\n    usuario = db(db.usuario.username==username).select().first()\n\n    formAdministrador = SQLFORM.factory(\n        Field(\'first_name\' +  \'last_name\',\n            type=\'string\',\n            default=usuario.first_name + " " + usuario.last_name,\n            requires=db.usuario.first_name.requires and db.usuario.last_name.requires,\n            label=\'nombre\'\n            ),\n        Field(\'username\',\n            type=\'string\',\n            notnull = True,\n            default=usuario.username,\n            requires=db.usuario.username.requires,\n            label=\'ci\'\n            ),\n        Field(\'email\',\n            type=\'string\',\n            default=usuario.email,\n            requires=db.usuario.email.requires,\n            label=\'email\'),\n        readonly = True\n        )\n\n    if formAdministrador.process(session=None, formname=\'perfil del administrador\', keepvalues=True).accepted:\n        response.flash = \'El formulario fue aceptado exitosamente.\'\n\n    elif formAdministrador.errors:\n        #error = True\n        response.flash = \'Hay un error en un campo.\'\n    ############################\n    ###fin de Consula de datos\n    ############################\n\n    return dict(formAdministrador=formAdministrador)\n\n@auth.requires_membership(\'Administrador\')\n@auth.requires_login()\ndef agregarManual():\n    #################\n    # Agregar Manualmente Estudiante\n    #################\n\n\n    formularioAgregarManual = FORM()\n    cohorte = db(db.cohorte.status=="Activa").select()[0].identificador # Cohorte Actual\n\n    #SI ha pasado correctamente el formulario\n    if formularioAgregarManual.accepts(request.vars,formname="formularioAgregarManual"):\n        if request.vars.tipoUsuario == "estudiante":\n            if (not(db(db.usuario.username == request.vars.cedula).select()) and not(db(db.estudiante.ci == request.vars.cedula).select())):\n                if 0 <= int(request.vars.PromedioEntero) + float(request.vars.PromedioDecimal)/100 <= 20:\n                    if db(db.liceo.nombre == request.vars.liceo).select():\n                        if re.match(\'^[0-9]{1,8}$\', request.vars.cedula):\n                            usuario_nuevo = db.usuario.insert(\n                                            username=request.vars.cedula,\n                                            first_name=request.vars.nombres,\n                                            last_name=request.vars.apellidos,\n                                            email="",\n                                            password=db.usuario.password.validate(request.vars.cedula)[0],\n                                            registration_key = "",\n                                            reset_password_key = "",\n                                            registration_id = ""\n                            )\n                            db.auth_membership.insert(user_id = usuario_nuevo, group_id= 1) # Agregar permisos de estudiante\n\n                            db.estudiante.insert(\n                                            Nombre=request.vars.nombres,\n                                            Apellido=request.vars.apellidos,\n                                            ci=request.vars.cedula,\n                                            promedio=int(request.vars.PromedioEntero) + float(request.vars.PromedioDecimal)/100,\n                                            direccion="",\n                                            telefono_habitacion="",\n                                            telefono_otro="",\n                                            fecha_nacimiento="",\n                                            sexo="",\n                                            estatus="Pre-inscrito",\n                                            cohorte=cohorte,\n                                            ci_representante="",\n                                            nombre_representante="",\n                                            apellido_representante="",\n                                            sexo_representante="",\n                                            correo_representante="",\n                                            direccion_representante="",\n                                            nombre_liceo=request.vars.liceo,\n                                            telefono_representante_oficina="",\n                                            telefono_representante_otro="",\n                                            sufre_enfermedad="",\n                                            enfermedad="",\n                                            indicaciones_enfermedad="")\n\n                            response.flash = "Estudiante agregado exitosamente"\n                        else:\n                            response.flash = "El formato de la cedula no es el correcto"\n                    else:\n                        response.flash = "El liceo no se encuentra en la base de datos"\n                else:\n                    response.flash = "El promedio debe ser un valor comprendido entre 0 y 20"\n            else:\n                response.flash = "Ya existe un usuario con esa c\xc3\xa9dula"\n\n    #######################\n    # Agregar representante de liceo manualmente\n    #######################\n\n        elif request.vars.tipoUsuario == "representanteLiceo":\n            if (not(db(db.usuario.username == request.vars.cedula).select()) and not(db(db.representante_liceo.ci == request.vars.cedula).select())):\n                if db(db.liceo.nombre == request.vars.liceo).select():                # Verificamos que el liceo este en la base de datos\n                    if re.match(\'^[0-9]{1,8}$\', request.vars.cedula):\n                        id = db.usuario.insert(first_name = request.vars.nombres ,\n                                               last_name = request.vars.apellidos,\n                                               email = "",\n                                               username = request.vars.cedula,\n                                               password = db.usuario.password.validate(request.vars.cedula)[0],\n                                               registration_key = "",\n                                               reset_password_key = "",\n                                               registration_id = "" ) # Agregar el usuario\n\n                        db.auth_membership.insert(user_id = id, group_id=3) # Agregar permisos de representante liceo (group_id=3)\n\n                        db.representante_liceo.insert(\n                                                      Nombre=request.vars.nombres,\n                                                      Apellido=request.vars.apellidos,\n                                                      ci=request.vars.cedula,\n                                                      nombre_liceo=request.vars.liceo) # Agregar el representante de liceo\n                        response.flash = "Representante del liceo agregado exitosamente"\n                    else:\n                        response.flash = "El formato de la cedula no es el correcto"\n                else:\n                    response.flash = "El liceo no se encuentra en la base de datos"\n            else:\n                response.flash = "Ya existe un usuario con esa c\xc3\xa9dula"\n\n    #######################\n    # Agregar representante de sede manualmente\n    #######################\n\n        elif request.vars.tipoUsuario == "representanteSede":\n            if (not(db(db.usuario.username == request.vars.cedula).select()) and not(db(db.representante_sede.ci == request.vars.cedula).select())):\n                if request.vars.sede=="Sartenejas" or request.vars.sede=="Litoral" or request.vars.sede=="Higuerote" or request.vars.sede=="Guarenas":\n                    if re.match(\'^[0-9]{1,8}$\', request.vars.cedula):\n                        representante_nuevo = db.usuario.insert(first_name = request.vars.nombres,\n                                                                last_name = request.vars.apellidos,\n                                                                email = "",\n                                                                username = request.vars.cedula,\n                                                                password = db.usuario.password.validate(request.vars.cedula)[0],\n                                                                registration_key = "",\n                                                                reset_password_key = "",\n                                                                registration_id = "" ) # Agregar el usuario\n\n                        db.auth_membership.insert(user_id = representante_nuevo, group_id=4) # Agregar permisos de representante sede (group_id=4)\n\n                        db.representante_sede.insert(ci=request.vars.cedula,\n                                                    Nombre=request.vars.nombres,\n                                                    Apellido=request.vars.apellidos,\n                                                    sede=request.vars.sede) # Agregar el representante de sede\n                        response.flash = "Representante de sede agregado exitosamente"\n                    else:\n                        response.flash = "El formato de la cedula no es el correcto"\n                else:\n                    response.flash = "La sede no se encuentra en la base de datos"\n            else:\n                response.flash = "Ya existe un usuario con esa c\xc3\xa9dula"\n\n\n    #######################\n    # Agregar profesor manualmente\n    #######################\n\n        elif request.vars.tipoUsuario == "profesor":\n            if (not(db(db.usuario.username == request.vars.cedula).select())):\n                if re.match(\'^[0-9]{1,8}$\', request.vars.cedula):\n                    id = db.usuario.insert(first_name = request.vars.nombres,\n                                                    last_name = request.vars.apellidos,\n                                                    email = "",\n                                                    username = request.vars.cedula,\n                                                    password = db.usuario.password.validate(request.vars.cedula)[0],\n                                                    registration_key = "",\n                                                    reset_password_key = "",\n                                                    registration_id = "" ) # Agregar el usuario\n                    db.auth_membership.insert(user_id = id, group_id= 2) # Agregar permisos de profesor\n\n                    db.profesor.insert(Nombre = request.vars.nombres,\n                                        Apellido = request.vars.apellidos,\n                                        ci = request.vars.cedula,\n                                        correo = \'\')\n                    response.flash = \'Agregado profesor exitosamente\'\n\n                else:\n                    response.flash= "El formato de la cedula no es el correcto"\n            else:\n                response.flash = "Ya existe un usuario con esa cedula"\n    #####################################\n    # Agregar administradores manualmente\n    #####################################\n\n        elif request.vars.tipoUsuario == "admin":\n            if (not(db(db.usuario.username == request.vars.cedula).select())):\n                if re.match(\'^[0-9]{1,8}$\', request.vars.cedula):\n                    admin_nuevo = db.usuario.insert(first_name = request.vars.nombres,\n                                                    last_name = request.vars.apellidos,\n                                                    email = request.vars.email,\n                                                    username = request.vars.cedula,\n                                                    password = db.usuario.password.validate(request.vars.cedula)[0],\n                                                    registration_key = "",\n                                                    reset_password_key = "",\n                                                    registration_id = "" ) # Agregar el usuario\n\n                    db.auth_membership.insert(user_id = admin_nuevo, group_id= 5) # Agregar permisos de estudiantes\n                    response.flash = "Adminitrador agregado exitosamente"\n                else:\n                    response.flash= "El formato de la cedula no es el correcto"\n            else:\n                response.flash = "Ya existe un usuario con esa cedula"\n    elif formularioAgregarManual.errors:\n        response.flash = "Formulario no fue aceptado VERSION 1"\n\n\n\n    #######################\n    # Agregar liceo manualmente\n    #######################\n\n    #formularioLiceoManual = SQLFORM(db.liceo)\n    #if formularioLiceoManual.process().accepted:\n    #    response.flash = "Agregado Exitosamente"\n    #elif formularioLiceoManual.errors:\n    #    response.flash = "Hay Errores en el formulario"\n\n    #######################\n    # Para los desplegables\n    #######################\n\n    liceos = db(db.liceo.id>0).select()\n    sedes = db(db.sede.id>0).select()\n    profesores = db(db.profesor.id>0).select()\n    cohortes = db(db.cohorte.id>0).select()\n\n    ##########################\n    # Fin de los desplegables\n    ##########################\n\n    return dict(liceos=liceos, sedes=sedes, profesores=profesores, cohortes=cohortes)\n\n@auth.requires_membership(\'Administrador\')\n@auth.requires_login()\ndef agregarCohorte():\n    return dict()\n\n@auth.requires_membership(\'Administrador\')\n@auth.requires_login()\ndef cambioContrasena():\n    return dict()\n\n@auth.requires_membership(\'Administrador\')\n@auth.requires_login()\ndef cargarArchivo():\n    ##################\n    # Carga de archivo\n    ##################\n    erroresCarga = [] # Los errores en la carga van aqui\n    cargaExitosa = [] # Los usuarios agregados exitosamente van aqui\n    cohorte = db(db.cohorte.status=="Activa").select()[0].identificador # Cohorte Actual\n    formularioArchivo = FORM(\n                            INPUT(_name=\'tituloArchivo\', _type=\'text\'),\n                            INPUT(_name=\'archivo\', _type=\'file\')\n                            )\n    if formularioArchivo.accepts(request.vars,formname=\'formularioArchivo\'): # Chequeamos si hay un archivo cargado\n        archivo =request.vars.fileToUpload.filename.split(".")  # Separamos el nombre del archivo de la extension\n        nombreArchivo, extension = archivo[0], archivo[1]\n        if extension == "csv":          # Chequeamos la extension del archivo\n            ######################\n            # Cargando Estudiantes\n            ######################\n            if request.vars.optradio == "estudiante":   # Chequeamos el tipo de usuario a agregar\n                f = request.vars.fileToUpload.file      # Archivo cargado\n                texto = f.read().splitlines()           # Leer el archivo\n                cabecera = texto[0].split(";")          # Extraemos la cabecera\n                liceo = texto[1].split(";")             # Extraemos la linea que contiene el nombre del liceo\n                texto.remove(texto[1])                  # Eliminamos del texto la linea del liceo para no iterar sobre ella\n                texto.remove(texto[0])                  # Eliminamos del texto la cabecera para no iterar sobre ella\n                if ((cabecera[0]=="C.I." and cabecera[1]==\'Nombres\' and\n                cabecera[2]==\'Apellidos\' and cabecera[3]==\'Promedio (00.00)\') and\n                (liceo[0] == "Nombre del Liceo:") and liceo[1] == "" and liceo[2] != ""): # Verificamos que la cabecera y la linea del liceo tenga el formato correcto\n                    liceo = liceo[2]                    # Seleccionamos el nombre del liceo\n                    datos = []                          # Los usuarios a agregar van aqui\n                    for i in texto:\n                        if i != ";;;;":\n                            dato = i.split(";")         # Separamos los datos del usuario\n                            datos.append(dato)          # Agregamos el usuario a la lista de usuarios por agregar\n\n                    for i in datos:\n                        if (not(db(db.usuario.username == i[0]).select()) and\n                           not(db(db.estudiante.ci == i[0]).select())):         # Verificar que no existe un usuario para esa cedula\n                            if 0 <= float(i[3]) <= 20:                          # Verificamos que el indice sea correcto\n                                if db(db.liceo.nombre == liceo).select():       # Verificamos que el liceo este en la base de datos\n                                    if re.match(\'^[0-9]{1,8}$\', i[0]):          # Verificamos que la cedula cumpla la expresion regular\n                                        id = db.usuario.insert(first_name = i[1],last_name = i[2], email = "", username = i[0],\n                                                      password = db.usuario.password.validate(i[0])[0], registration_key = "",\n                                                      reset_password_key = "", registration_id = "" )       # Agregar el usuario\n                                        db.auth_membership.insert(user_id = id, group_id= 1)                # Agregar permisos de estudiante (group_id=1)\n                                        db.estudiante.insert(Nombre=i[1], Apellido=i[2], ci=i[0], promedio=float(i[3]), direccion="", telefono_habitacion="",\n                                                        telefono_otro="", fecha_nacimiento="", sexo="", estatus="Pre-inscrito",\n                                                        cohorte=cohorte, ci_representante="", nombre_representante="",\n                                                        apellido_representante="", sexo_representante="", correo_representante="",\n                                                        direccion_representante="", nombre_liceo=liceo, telefono_representante_oficina="",\n                                                        telefono_representante_otro="", sufre_enfermedad="", enfermedad="",\n                                                        indicaciones_enfermedad="")\n                                        cargaExitosa.append(i)                          # Agregarlo a los estudiantes cargados exitosamente\n                                    else:\n                                        erroresCarga.append([i,"Cedula incorrecta"])                                            # Error de Carga\n                                else:\n                                    erroresCarga.append([i,"Su liceo no esta en la base de datos. Contacte al administrador"])  # Error de Carga\n                            else:\n                                erroresCarga.append([i,"El promedio debe ser un numero entre 0 y 20"])                          # Error de Carga\n                        else:\n                            erroresCarga.append([i,"Ya existe un usuario en el sistema con esta cedula"])                       # Error de Carga\n\n                else:\n                    response.flash = "Formato de los datos del archivo invalido. Consulte el manual"                            # Error de Carga\n            #################################\n            # Cargando Representantes de sede\n            #################################\n            elif request.vars.optradio == "sede":\n                f = request.vars.fileToUpload.file      # Archivo cargado\n                texto = f.read().splitlines()           # Leer el archivo\n                cabecera = texto[0].split(";")          # Extraemos la cabecera\n                texto.remove(texto[0])                  # Eliminamos del texto la cabecera para no iterar sobre ella\n                if (cabecera[0]=="C.I." and cabecera[1]==\'Nombres\' and\n                    cabecera[2]==\'Apellidos\' and cabecera[3]==\'Sede\'): # Verificamos que la cabecera tenga el formato correcto\n                    datos = []                          # Los usuarios a agregar van aqui\n                    for i in texto:\n                        if i != ";;;;":\n                            dato = i.split(";")         # Separamos los datos del usuario\n                            datos.append(dato)          # Agregamos el usuario a la lista de usuarios por agregar\n\n                    for i in datos:\n                        if (not(db(db.usuario.username == i[0]).select()) and\n                            not(db(db.representante_sede.ci == i[0]).select())):    # Verificar que no existe un usuario para esa cedula\n                            if db(db.sede.zona == i[3]).select():                # Verificamos que la sede este en la base de datos\n                                if re.match(\'^[0-9]{1,8}$\', i[0]):                      # Verificamos que la cedula cumpla la expresion regular\n                                    id = db.usuario.insert(first_name = i[1],last_name = i[2], email = "", username = i[0],\n                                                  password = db.usuario.password.validate(i[0])[0], registration_key = "",\n                                                  reset_password_key = "", registration_id = "" ) # Agregar el usuario\n                                    db.auth_membership.insert(user_id = id, group_id=4) # Agregar permisos de representante sede (group_id=4)\n                                    db.representante_sede.insert(Nombre=i[1], Apellido=i[2], ci=i[0], sede=i[3]) # Agregar el representante de sede\n                                    cargaExitosa.append(i) # Agregarlo a los usuarios cargados exitosamente\n                                else:\n                                    erroresCarga.append([i,"Cedula incorrecta"])                                                # Error de Carga\n                            else:\n                                erroresCarga.append([i,"Su sede no esta en la base de datos. Contacte al administrador"])  # Error de Carga\n                        else:\n                            erroresCarga.append([i,"Ya existe un usuario en el sistema con esta cedula"])                   # Error de Carga\n                else: #Error\n                    response.flash = "Formato de los datos del archivo invalido. Consulte el manual"                       # Error de Carga\n            ##################################\n            # Cargando Representante de liceos\n            ##################################\n            elif request.vars.optradio == "liceo":\n                f = request.vars.fileToUpload.file      # Archivo cargado\n                texto = f.read().splitlines()           # Leer el archivo\n                cabecera = texto[0].split(";")          # Extraemos la cabecera\n                texto.remove(texto[0])                  # Eliminamos del texto la cabecera para no iterar sobre ella\n                if (cabecera[0]=="C.I." and cabecera[1]==\'Nombres\' and\n                cabecera[2]==\'Apellidos\' and cabecera[3]==\'Liceo\'): # Verificamos que la cabecera tenga el formato correcto\n                    datos = []                          # Los usuarios a agregar van aqui\n                    for i in texto:\n                        if i != ";;;;":\n                            dato = i.split(";")         # Separamos los datos del usuario\n                            datos.append(dato)          # Agregamos el usuario a la lista de usuarios por agregar\n\n                    for i in datos:\n                        if (not(db(db.usuario.username == i[0]).select()) and\n                            not(db(db.representante_liceo.ci == i[0]).select())):    # Verificar que no existe un usuario para esa cedula\n                            if db(db.liceo.nombre == i[3]).select():                # Verificamos que el liceo este en la base de datos\n                                if re.match(\'^[0-9]{1,8}$\', i[0]):      # Verificamos que la cedula cumpla la expresion regular\n                                    id = db.usuario.insert(first_name = i[1],last_name = i[2], email = "", username = i[0],\n                                                  password = db.usuario.password.validate(i[0])[0], registration_key = "",\n                                                  reset_password_key = "", registration_id = "" ) # Agregar el usuario\n                                    db.auth_membership.insert(user_id = id, group_id=3) # Agregar permisos de representante liceo (group_id=3)\n                                    db.representante_liceo.insert(Nombre=i[1], Apellido=i[2], ci=i[0], nombre_liceo=i[3]) # Agregar el representante de liceo\n                                    cargaExitosa.append(i) # Agregarlo a los usuarios cargados exitosamente\n                                else:\n                                    erroresCarga.append([i,"Cedula incorrecta"])                                            # Error de Carga\n                            else:\n                                erroresCarga.append([i,"Su liceo no esta en la base de datos. Contacte al administrador"])  # Error de Carga\n                        else:\n                            erroresCarga.append([i,"Ya existe un usuario en el sistema con esta cedula"])                   # Error de Carga\n                else: #Error\n                    response.flash= "Formato de los datos del archivo invalido. Consulte el manual"                          # Error de Carga\n            #####################\n            # Cargando Profesores\n            #####################\n            elif request.vars.optradio == "profesor":\n                f = request.vars.fileToUpload.file      # Archivo cargado\n                texto = f.read().splitlines()           # Leer el archivo\n                cabecera = texto[0].split(";")          # Extraemos la cabecera\n                chequeo = texto[1].split(";")             # Extraemos la linea que contiene el nombre del liceo\n                texto.remove(texto[1])                  # Eliminamos del texto la linea del liceo para no iterar sobre ella\n                texto.remove(texto[0])\n                if (cabecera[0]=="C.I." and cabecera[1]==\'Nombres\' and\n                    cabecera[2]==\'Apellidos\' and cabecera[3]==\'Materia\' and\n                    chequeo[0] == "A continuacion ingrese los profesores" and\n                    chequeo[1] == "" and chequeo[2] == ""):\n\n                    datos = []                          # Los usuarios a agregar van aqui\n                    for i in texto:\n                        if i != ";;;;":\n                            dato = i.split(";")         # Separamos los datos del usuario\n                            datos.append(dato)\n\n                    for i in datos:\n                        if (not(db(db.usuario.username == i[0]).select()) and\n                            not(db(db.profesor.ci == i[0]).select())):    # Verificar que no existe un usuario para esa cedula\n                            if re.match(\'^[0-9]{1,8}$\', i[0]):      # Verificamos que la cedula cumpla la expresion regular\n                                id = db.usuario.insert(first_name = i[1],last_name = i[2], email = "", username = i[0],\n                                              password = db.usuario.password.validate(i[0])[0], registration_key = "",\n                                              reset_password_key = "", registration_id = "" ) # Agregar el usuario\n                                db.auth_membership.insert(user_id = id, group_id=2) # Agregar permisos de profesor(group_id=2)\n                                db.profesor.insert(Nombre=i[1], Apellido=i[2], ci=i[0]) # Agregar el profesor FALTA LA MATERIA EN LA BD\n                                cargaExitosa.append(i) # Agregarlo a los usuarios cargados exitosamente\n                            else:\n                                erroresCarga.append([i,"Cedula incorrecta"])                                            # Error de Carga\n                        else:\n                            erroresCarga.append([i,"Ya existe un usuario en el sistema con esta cedula"])                   # Error de Carga\n                else: #Error\n                    response.flash= "Formato de los datos del archivo invalido. Consulte el manual"\n            #####################\n            # Cargando Liceos\n            #####################\n            elif request.vars.optradio == "liceos":\n                f = request.vars.fileToUpload.file      # Archivo cargado\n                texto = f.read().splitlines()           # Leer el archivo\n                cabecera = texto[0].split(";")          # Extraemos la cabecera\n                texto.remove(texto[0])                  # Eliminamos del texto la cabecera para no iterar sobre ella\n                if (cabecera[0]=="Nombre del Liceo" and cabecera[2]==\'Tipo del Liceo\' and\n                cabecera[4]==\'Sede\'):                   # Verificamos que la cabecera tenga el formato correcto\n                    datos = []                          # Los liceos a agregar van aqui\n                    for i in texto:\n                        if i != ";;;;":\n                            dato = i.split(";")         # Separamos los datos del usuario\n                            datos.append(dato)          # Agregamos el usuario a la lista de usuarios por agregar\n\n                    for i in datos:\n                        if not(db(db.liceo.nombre == i[0]).select()):               # Verificar que no existe un liceo con ese nombre\n                            db.liceo.insert(nombre = i[0], tipo = i[2], sede = i[4]) # Agregar el liceos\n                            cargaExitosa.append(i) # Agregarlo a los liceos cargados exitosamente\n                        else:\n                            erroresCarga.append([i,"Ya existe un liceo en el sistema con ese nombre"])                      # Error de Carga\n                else: #Error\n                    erroresCarga.append("Formato de los datos del archivo invalido. Consulte el manual")                    # Error de Carga\n            if erroresCarga:\n                response.flash = \'Procesado archivo exitosamente, hubo problemas con algunos datos\'\n            else:\n                response.flash = \'Procesado archivo exitosamente\'\n        else: #Error\n            response.flash = "El formato del archivo debe ser \\".csv\\". Consulte el manual de usuario"\n    else:\n        pass\n\n    return dict(erroresCarga=erroresCarga, cargaExitosa=cargaExitosa)\n\n@auth.requires_membership(\'Administrador\')\n@auth.requires_login()\ndef cargarInstitucionManual():\n\n    if request.vars:\n        if not(db(db.liceo.nombre == request.vars.Nombre).select()):\n            db.liceo.insert(nombre = request.vars.Nombre,\n                            tipo = request.vars.tipoInst,\n                            sede = request.vars.sede)\n            response.flash = "Agregado liceo exitosamente"\n        else:\n            response.flash = "Ya existe en el sistema un liceo con ese nombre"\n\n    #######################\n    # Para los desplegables\n    #######################\n\n    liceos = db(db.liceo.id>0).select()\n    sedes = db(db.sede.id>0).select()\n    profesores = db(db.profesor.id>0).select()\n    cohortes = db(db.cohorte.id>0).select()\n\n    ##########################\n    # Fin de los desplegables\n    ##########################\n    return dict(liceos=liceos, sedes=sedes,profesores=profesores,\n                cohortes=cohortes)\n\n@auth.requires_membership(\'Administrador\')\n@auth.requires_login()\ndef consultar():\n    #############\n    # Consulta\n    #############\n    consulta = None\n    formularioConsulta = FORM()\n    consultarTodo = FORM()\n\n    if consultarTodo.accepts(request.vars,formname="consultarTodo"):\n        consulta = db(db.usuario.id>0).select()\n\n    if formularioConsulta.accepts(request.vars,formname="formularioConsulta"):\n        pass\n\n    ###############\n    # Fin Consulta\n    ###############\n    return dict(consulta=consulta)\n\n@auth.requires_membership(\'Administrador\')\n@auth.requires_login()\ndef modificarInstitucion():\n    #######################\n    # Para los desplegables\n    #######################\n\n    liceos = db(db.liceo.id>0).select()\n    sedes = db(db.sede.id>0).select()\n    profesores = db(db.profesor.id>0).select()\n    cohortes = db(db.cohorte.id>0).select()\n\n    ##########################\n    # Fin de los desplegables\n    ##########################\n    return dict(liceos=liceos, sedes=sedes,profesores=profesores,\n                cohortes=cohortes)\n\n@auth.requires_membership(\'Administrador\')\n@auth.requires_login()\ndef enviarEmail():\n    return dict()\n\n@auth.requires_membership(\'Administrador\')\n@auth.requires_login()\ndef modificarUsuario():\n    modificando = None\n    formularioModificar = None\n    cedulaModificar = FORM()\n    if cedulaModificar.accepts(request.vars,formname="cedulaModificar"):    # Verificamos que se haya introducido una cedula\n        if db(db.estudiante.ci==request.vars.ci).select():\n            session.tipo = "Estudiante"\n            session.cedula = request.vars.ci\n            redirect(URL(\'modificarEstudiante\'))\n        elif db(db.representante_sede.ci==request.vars.ci).select():\n            session.tipo = "Representante de sede"\n            session.cedula = request.vars.ci\n            redirect(URL(\'modificarRepresentanteSede\'))\n        elif db(db.representante_liceo.ci==request.vars.ci).select():\n            session.tipo = "Representante de liceo"\n            session.cedula = request.vars.ci\n            redirect(URL(\'modificarRepresentanteLiceo\'))\n        elif db(db.profesor.ci==request.vars.ci).select():\n            session.tipo = "Profesor"\n            session.cedula = request.vars.ci\n            redirect(URL(\'modificarProfesor\'))\n        elif db(db.usuario.username==request.vars.ci).select():\n            idAdmin = db(db.usuario.username==request.vars.ci).select()[0].id\n            membership = db(db.auth_membership.user_id==idAdmin).select()[0].group_id\n            if membership == 5:\n                session.tipo = "Administrador"\n                session.cedula = request.vars.ci\n                redirect(URL(\'modificarAdmin\'))\n\n        else:\n            response.flash = \'No hay un usuario para esta cedula\'\n\n    return dict(modificando=modificando,\n                formularioModificar=formularioModificar)\n\ndef modificarEstudiante():\n    usuario = db(db.estudiante.ci==session.cedula).select()[0]\n    errorPromedio = False\n\n    if request.vars:\n        # Si cambia la cedula, actualizamos el estudiante, el username del usuario y restablecemos la contrase\xc3\xb1a\n        if db(db.estudiante.ci==session.cedula).select()[0].ci != request.vars.cedula:\n            db(db.estudiante.ci==session.cedula).update(ci=request.vars.cedula)\n            db(db.usuario.username==session.cedula).update(username=request.vars.cedula)\n            db(db.usuario.username==session.cedula).update(password=db.usuario.password.validate(request.vars.cedula)[0])\n            session.cedula = request.vars.cedula\n        # Si cambia el nombre, actualizamos el usuario y el estudiante\n        if db(db.estudiante.ci==session.cedula).select()[0].Nombre != request.vars.nombres:\n            db(db.estudiante.ci==session.cedula).update(Nombre=request.vars.nombres)\n            db(db.usuario.username==session.cedula).update(first_name=request.vars.nombres)\n        # Si cambia el apellido, actualizamos el usuario y el estudiante\n        if db(db.estudiante.ci==session.cedula).select()[0].Apellido != request.vars.apellidos:\n            db(db.estudiante.ci==session.cedula).update(Apellido=request.vars.apellidos)\n            db(db.usuario.username==session.cedula).update(last_name=request.vars.apellidos)\n\n        promedio = float(request.vars.PromedioEntero)+float(request.vars.PromedioDecimal)\n        # Chequeamos que el promedio sea valido\n        if 0 <= promedio <= 20:\n            db(db.estudiante.ci==session.cedula).update(promedio=promedio)\n        else:\n            errorPromedio = True\n        # Si cambia el correo, actualizamos el usuario y el estudiante\n        if db(db.estudiante.ci==session.cedula).select()[0].correo != request.vars.email:\n            db(db.estudiante.ci==session.cedula).update(correo=request.vars.email)\n            db(db.usuario.username==session.cedula).update(email=request.vars.email)\n\n        db(db.estudiante.ci==session.cedula).update(direccion=request.vars.direccion)\n        db(db.estudiante.ci==session.cedula).update(telefono_habitacion=request.vars.telefonoHabitacionE)\n        db(db.estudiante.ci==session.cedula).update(telefono_otro=request.vars.telefonoOtroE)\n        db(db.estudiante.ci==session.cedula).update(fecha_nacimiento=request.vars.fecha)\n        db(db.estudiante.ci==session.cedula).update(sexo=request.vars.sexo)\n        db(db.estudiante.ci==session.cedula).update(nombre_liceo=request.vars.liceo)\n        db(db.estudiante.ci==session.cedula).update(estatus=request.vars.estatus)\n        db(db.estudiante.ci==session.cedula).update(cohorte=request.vars.cohorte)\n        db(db.estudiante.ci==session.cedula).update(ci_representante=request.vars.cedulaRepresentante)\n        db(db.estudiante.ci==session.cedula).update(nombre_representante=request.vars.nombresRepresentante)\n        db(db.estudiante.ci==session.cedula).update(apellido_representante=request.vars.apellidosRepresentante)\n        db(db.estudiante.ci==session.cedula).update(sexo_representante=request.vars.sexoRepresentante)\n        db(db.estudiante.ci==session.cedula).update(correo_representante=request.vars.emailRepresentante)\n        db(db.estudiante.ci==session.cedula).update(direccion_representante=request.vars.direccionRepresentante)\n        db(db.estudiante.ci==session.cedula).update(telefono_representante_oficina=request.vars.telefonoHabitacionRepresentanteE)\n        db(db.estudiante.ci==session.cedula).update(telefono_representante_otro=request.vars.telefonoOtroRepresentanteE)\n        db(db.estudiante.ci==session.cedula).update(sufre_enfermedad=request.vars.enfermedad)\n        db(db.estudiante.ci==session.cedula).update(enfermedad=request.vars.informacionEnfermedad)\n        db(db.estudiante.ci==session.cedula).update(indicaciones_enfermedad=request.vars.indicacionEnfermedad)\n\n        if errorPromedio:\n            response.flash = "Modificado con exito. Hubo un error en el Promedio"\n        else:\n            response.flash = "Modificado con Exito"\n    return dict(usuario=usuario)\n\ndef modificarRepresentanteSede():\n    usuario = db(db.representante_sede.ci==session.cedula).select()[0]\n    sedes = db(db.sede.id>0).select()\n    return dict(usuario=usuario,sedes=sedes)\n\ndef modificarRepresentanteLiceo():\n    usuario = db(db.representante_liceo.ci==session.cedula).select()[0]\n    liceos = db(db.liceo.id>0).select()\n    return dict(usuario=usuario,liceos=liceos)\n\ndef modificarAdmin():\n    usuario = db(db.usuario.ci==session.cedula).select()[0]\n    return dict(usuario=usuario)\n\ndef modificarProfesor():\n    usuario = db(db.profesor.ci==session.cedula).select()[0]\n    return dict(usuario=usuario)\n\n@auth.requires_membership(\'Administrador\')\n@auth.requires_login()\ndef noticias():\n    return dict()\n\n@auth.requires_membership(\'Administrador\')\n@auth.requires_login()\ndef perfil():\n    return dict()\n\n@auth.requires_membership(\'Administrador\')\n@auth.requires_login()\ndef reporte():\n    return dict()\n\nresponse._vars=response._caller(modificarAdmin)\n'
p7
sS'snapshot'
p8
(dp9
S'exception'
p10
(dp11
S'__hash__'
p12
S"<method-wrapper '__hash__' of exceptions.AttributeError object>"
p13
sS'__setattr__'
p14
S"<method-wrapper '__setattr__' of exceptions.AttributeError object>"
p15
sS'__reduce_ex__'
p16
S'<built-in method __reduce_ex__ of exceptions.AttributeError object>'
p17
sS'__getslice__'
p18
S"<method-wrapper '__getslice__' of exceptions.AttributeError object>"
p19
sS'__getitem__'
p20
S"<method-wrapper '__getitem__' of exceptions.AttributeError object>"
p21
sS'__setstate__'
p22
S'<built-in method __setstate__ of exceptions.AttributeError object>'
p23
sS'__reduce__'
p24
S'<built-in method __reduce__ of exceptions.AttributeError object>'
p25
sS'__str__'
p26
S"<method-wrapper '__str__' of exceptions.AttributeError object>"
p27
sS'__format__'
p28
S'<built-in method __format__ of exceptions.AttributeError object>'
p29
sS'__getattribute__'
p30
S"<method-wrapper '__getattribute__' of exceptions.AttributeError object>"
p31
sS'__class__'
p32
S"<type 'exceptions.AttributeError'>"
p33
sS'__unicode__'
p34
S'<built-in method __unicode__ of exceptions.AttributeError object>'
p35
sS'__delattr__'
p36
S"<method-wrapper '__delattr__' of exceptions.AttributeError object>"
p37
sS'__subclasshook__'
p38
S'<built-in method __subclasshook__ of type object>'
p39
sS'__repr__'
p40
S"<method-wrapper '__repr__' of exceptions.AttributeError object>"
p41
sS'args'
p42
S'("\'Table\' object has no attribute \'ci\'",)'
p43
sS'__dict__'
p44
S'{}'
p45
sS'__sizeof__'
p46
S'<built-in method __sizeof__ of exceptions.AttributeError object>'
p47
sS'__doc__'
p48
S"'Attribute not found.'"
p49
sS'__init__'
p50
S"<method-wrapper '__init__' of exceptions.AttributeError object>"
p51
sS'__new__'
p52
S'<built-in method __new__ of type object>'
p53
ssS'evalue'
p54
S"'Table' object has no attribute 'ci'"
p55
sS'request'
p56
cgluon.html
XML_unpickle
p57
(S'sRj\x00\x00<div><table><tr><td style="font-weight:bold;vertical-align:top;">ajax</td><td style="vertical-align:top;">:</td><td><div>False</div></td></tr><tr><td style="font-weight:bold;vertical-align:top;">application</td><td style="vertical-align:top;">:</td><td><div>SisPIO</div></td></tr><tr><td style="font-weight:bold;vertical-align:top;">args</td><td style="vertical-align:top;">:</td><td><div><table></table></div></td></tr><tr><td style="font-weight:bold;vertical-align:top;">cid</td><td style="vertical-align:top;">:</td><td><div>None</div></td></tr><tr><td style="font-weight:bold;vertical-align:top;">client</td><td style="vertical-align:top;">:</td><td><div>127.0.0.1</div></td></tr><tr><td style="font-weight:bold;vertical-align:top;">controller</td><td style="vertical-align:top;">:</td><td><div>admin</div></td></tr><tr><td style="font-weight:bold;vertical-align:top;">cookies</td><td style="vertical-align:top;">:</td><td><div><table><tr><td style="font-weight:bold;vertical-align:top;">csrftoken</td><td style="vertical-align:top;">:</td><td><div>bAvrbJoJOHwdYd0Nhgcf7V7XLRCS3LThhnaIkAjMzM90R1ZK6PwGseUwcePnaB0I<table><tr><td style="font-weight:bold;vertical-align:top;">comment</td><td style="vertical-align:top;">:</td><td><div></div></td></tr><tr><td style="font-weight:bold;vertical-align:top;">domain</td><td style="vertical-align:top;">:</td><td><div></div></td></tr><tr><td style="font-weight:bold;vertical-align:top;">expires</td><td style="vertical-align:top;">:</td><td><div></div></td></tr><tr><td style="font-weight:bold;vertical-align:top;">httponly</td><td style="vertical-align:top;">:</td><td><div></div></td></tr><tr><td style="font-weight:bold;vertical-align:top;">max-age</td><td style="vertical-align:top;">:</td><td><div></div></td></tr><tr><td style="font-weight:bold;vertical-align:top;">path</td><td style="vertical-align:top;">:</td><td><div></div></td></tr><tr><td style="font-weight:bold;vertical-align:top;">secure</td><td style="vertical-align:top;">:</td><td><div></div></td></tr><tr><td style="font-weight:bold;vertical-align:top;">version</td><td style="vertical-align:top;">:</td><td><div></div></td></tr></table></div></td></tr><tr><td style="font-weight:bold;vertical-align:top;">session_id_admin</td><td style="vertical-align:top;">:</td><td><div>127.0.0.1-592f158c-c7bb-4cc0-841c-65b1202bd061<table><tr><td style="font-weight:bold;vertical-align:top;">comment</td><td style="vertical-align:top;">:</td><td><div></div></td></tr><tr><td style="font-weight:bold;vertical-align:top;">domain</td><td style="vertical-align:top;">:</td><td><div></div></td></tr><tr><td style="font-weight:bold;vertical-align:top;">expires</td><td style="vertical-align:top;">:</td><td><div></div></td></tr><tr><td style="font-weight:bold;vertical-align:top;">httponly</td><td style="vertical-align:top;">:</td><td><div></div></td></tr><tr><td style="font-weight:bold;vertical-align:top;">max-age</td><td style="vertical-align:top;">:</td><td><div></div></td></tr><tr><td style="font-weight:bold;vertical-align:top;">path</td><td style="vertical-align:top;">:</td><td><div></div></td></tr><tr><td style="font-weight:bold;vertical-align:top;">secure</td><td style="vertical-align:top;">:</td><td><div></div></td></tr><tr><td style="font-weight:bold;vertical-align:top;">version</td><td style="vertical-align:top;">:</td><td><div></div></td></tr></table></div></td></tr><tr><td style="font-weight:bold;vertical-align:top;">session_id_sispio</td><td style="vertical-align:top;">:</td><td><div>127.0.0.1-5d760c14-3db0-49e3-8ee9-a930ce3d7915<table><tr><td style="font-weight:bold;vertical-align:top;">comment</td><td style="vertical-align:top;">:</td><td><div></div></td></tr><tr><td style="font-weight:bold;vertical-align:top;">domain</td><td style="vertical-align:top;">:</td><td><div></div></td></tr><tr><td style="font-weight:bold;vertical-align:top;">expires</td><td style="vertical-align:top;">:</td><td><div></div></td></tr><tr><td style="font-weight:bold;vertical-align:top;">httponly</td><td style="vertical-align:top;">:</td><td><div></div></td></tr><tr><td style="font-weight:bold;vertical-align:top;">max-age</td><td style="vertical-align:top;">:</td><td><div></div></td></tr><tr><td style="font-weight:bold;vertical-align:top;">path</td><td style="vertical-align:top;">:</td><td><div></div></td></tr><tr><td style="font-weight:bold;vertical-align:top;">secure</td><td style="vertical-align:top;">:</td><td><div></div></td></tr><tr><td style="font-weight:bold;vertical-align:top;">version</td><td style="vertical-align:top;">:</td><td><div></div></td></tr></table></div></td></tr><tr><td style="font-weight:bold;vertical-align:top;">session_id_welcome</td><td style="vertical-align:top;">:</td><td><div>127.0.0.1-28170384-65b0-4392-9fce-f7170658b8b2<table><tr><td style="font-weight:bold;vertical-align:top;">comment</td><td style="vertical-align:top;">:</td><td><div></div></td></tr><tr><td style="font-weight:bold;vertical-align:top;">domain</td><td style="vertical-align:top;">:</td><td><div></div></td></tr><tr><td style="font-weight:bold;vertical-align:top;">expires</td><td style="vertical-align:top;">:</td><td><div></div></td></tr><tr><td style="font-weight:bold;vertical-align:top;">httponly</td><td style="vertical-align:top;">:</td><td><div></div></td></tr><tr><td style="font-weight:bold;vertical-align:top;">max-age</td><td style="vertical-align:top;">:</td><td><div></div></td></tr><tr><td style="font-weight:bold;vertical-align:top;">path</td><td style="vertical-align:top;">:</td><td><div></div></td></tr><tr><td style="font-weight:bold;vertical-align:top;">secure</td><td style="vertical-align:top;">:</td><td><div></div></td></tr><tr><td style="font-weight:bold;vertical-align:top;">version</td><td style="vertical-align:top;">:</td><td><div></div></td></tr></table></div></td></tr><tr><td style="font-weight:bold;vertical-align:top;">sessionid</td><td style="vertical-align:top;">:</td><td><div>qxgksagtp8gt8s5gevxtxdk9c79rxz7l<table><tr><td style="font-weight:bold;vertical-align:top;">comment</td><td style="vertical-align:top;">:</td><td><div></div></td></tr><tr><td style="font-weight:bold;vertical-align:top;">domain</td><td style="vertical-align:top;">:</td><td><div></div></td></tr><tr><td style="font-weight:bold;vertical-align:top;">expires</td><td style="vertical-align:top;">:</td><td><div></div></td></tr><tr><td style="font-weight:bold;vertical-align:top;">httponly</td><td style="vertical-align:top;">:</td><td><div></div></td></tr><tr><td style="font-weight:bold;vertical-align:top;">max-age</td><td style="vertical-align:top;">:</td><td><div></div></td></tr><tr><td style="font-weight:bold;vertical-align:top;">path</td><td style="vertical-align:top;">:</td><td><div></div></td></tr><tr><td style="font-weight:bold;vertical-align:top;">secure</td><td style="vertical-align:top;">:</td><td><div></div></td></tr><tr><td style="font-weight:bold;vertical-align:top;">version</td><td style="vertical-align:top;">:</td><td><div></div></td></tr></table></div></td></tr></table></div></td></tr><tr><td style="font-weight:bold;vertical-align:top;">env</td><td style="vertical-align:top;">:</td><td><div><table><tr><td style="font-weight:bold;vertical-align:top;">HTTP_ACCEPT</td><td style="vertical-align:top;">:</td><td><div>text/html,application/xhtml+xml,application/xml;q=0.9,image/webp,image/apng,*/*;q=0.8</div></td></tr><tr><td style="font-weight:bold;vertical-align:top;">HTTP_ACCEPT_ENCODING</td><td style="vertical-align:top;">:</td><td><div>gzip, deflate, br</div></td></tr><tr><td style="font-weight:bold;vertical-align:top;">HTTP_ACCEPT_LANGUAGE</td><td style="vertical-align:top;">:</td><td><div>en-US,en;q=0.8,es;q=0.6</div></td></tr><tr><td style="font-weight:bold;vertical-align:top;">HTTP_CACHE_CONTROL</td><td style="vertical-align:top;">:</td><td><div>max-age=0</div></td></tr><tr><td style="font-weight:bold;vertical-align:top;">HTTP_CONNECTION</td><td style="vertical-align:top;">:</td><td><div>keep-alive</div></td></tr><tr><td style="font-weight:bold;vertical-align:top;">HTTP_COOKIE</td><td style="vertical-align:top;">:</td><td><div>sessionid=qxgksagtp8gt8s5gevxtxdk9c79rxz7l; csrftoken=bAvrbJoJOHwdYd0Nhgcf7V7XLRCS3LThhnaIkAjMzM90R1ZK6PwGseUwcePnaB0I; session_id_welcome=127.0.0.1-28170384-65b0-4392-9fce-f7170658b8b2; session_id_admin=127.0.0.1-592f158c-c7bb-4cc0-841c-65b1202bd061; session_id_sispio=127.0.0.1-5d760c14-3db0-49e3-8ee9-a930ce3d7915</div></td></tr><tr><td style="font-weight:bold;vertical-align:top;">HTTP_HOST</td><td style="vertical-align:top;">:</td><td><div>127.0.0.1:8000</div></td></tr><tr><td style="font-weight:bold;vertical-align:top;">HTTP_REFERER</td><td style="vertical-align:top;">:</td><td><div>http://127.0.0.1:8000/SisPIO/admin/modificarUsuario</div></td></tr><tr><td style="font-weight:bold;vertical-align:top;">HTTP_UPGRADE_INSECURE_REQUESTS</td><td style="vertical-align:top;">:</td><td><div>1</div></td></tr><tr><td style="font-weight:bold;vertical-align:top;">HTTP_USER_AGENT</td><td style="vertical-align:top;">:</td><td><div>Mozilla/5.0 (Windows NT 10.0; Win64; x64) AppleWebKit/537.36 (KHTML, like Gecko) Chrome/61.0.3163.100 Safari/537.36</div></td></tr><tr><td style="font-weight:bold;vertical-align:top;">PATH_INFO</td><td style="vertical-align:top;">:</td><td><div>/SisPIO/admin/modificarAdmin</div></td></tr><tr><td style="font-weight:bold;vertical-align:top;">QUERY_STRING</td><td style="vertical-align:top;">:</td><td><div></div></td></tr><tr><td style="font-weight:bold;vertical-align:top;">REMOTE_ADDR</td><td style="vertical-align:top;">:</td><td><div>127.0.0.1</div></td></tr><tr><td style="font-weight:bold;vertical-align:top;">REMOTE_PORT</td><td style="vertical-align:top;">:</td><td><div>52298</div></td></tr><tr><td style="font-weight:bold;vertical-align:top;">REQUEST_METHOD</td><td style="vertical-align:top;">:</td><td><div>GET</div></td></tr><tr><td style="font-weight:bold;vertical-align:top;">SCRIPT_NAME</td><td style="vertical-align:top;">:</td><td><div></div></td></tr><tr><td style="font-weight:bold;vertical-align:top;">SERVER_NAME</td><td style="vertical-align:top;">:</td><td><div>DESKTOP-FLGPCSQ</div></td></tr><tr><td style="font-weight:bold;vertical-align:top;">SERVER_PORT</td><td style="vertical-align:top;">:</td><td><div>8000</div></td></tr><tr><td style="font-weight:bold;vertical-align:top;">SERVER_PROTOCOL</td><td style="vertical-align:top;">:</td><td><div>HTTP/1.1</div></td></tr><tr><td style="font-weight:bold;vertical-align:top;">SERVER_SOFTWARE</td><td style="vertical-align:top;">:</td><td><div>Rocket 1.2.6</div></td></tr><tr><td style="font-weight:bold;vertical-align:top;">app_folders</td><td style="vertical-align:top;">:</td><td><div>set([&#x27;C:\\\\Users\\\\capf9\\\\Desktop\\\\University\\\\web2py_win\\\\web2py\\\\applications\\\\welcome\\\\&#x27;, &#x27;C:\\\\Users\\\\capf9\\\\Desktop\\\\University\\\\web2py_win\\\\web2py\\\\applications\\\\admin\\\\&#x27;, &#x27;C:\\\\Users\\\\capf9\\\\Desktop\\\\University\\\\web2py_win\\\\web2py\\\\applications\\\\SisPIO\\\\&#x27;])</div></td></tr><tr><td style="font-weight:bold;vertical-align:top;">applications_parent</td><td style="vertical-align:top;">:</td><td><div>C:\\Users\\capf9\\Desktop\\University\\web2py_win\\web2py</div></td></tr><tr><td style="font-weight:bold;vertical-align:top;">cmd_args</td><td style="vertical-align:top;">:</td><td><div><table></table></div></td></tr><tr><td style="font-weight:bold;vertical-align:top;">cmd_options</td><td style="vertical-align:top;">:</td><td><div>&lt;Values at 0x39bbd78: {&#x27;verbose&#x27;: False, &#x27;ip&#x27;: &#x27;127.0.0.1&#x27;, &#x27;debuglevel&#x27;: 30, &#x27;with_scheduler&#x27;: False, &#x27;shutdown_timeout&#x27;: 5, &#x27;taskbar&#x27;: False, &#x27;with_coverage&#x27;: False, &#x27;pid_filename&#x27;: &#x27;httpserver.pid&#x27;, &#x27;maxthreads&#x27;: None, &#x27;softcron&#x27;: False, &#x27;server_name&#x27;: &#x27;DESKTOP-FLGPCSQ&#x27;, &#x27;bpython&#x27;: False, &#x27;nogui&#x27;: False, &#x27;port&#x27;: 8000, &#x27;print_errors&#x27;: False, &#x27;extcron&#x27;: False, &#x27;runcron&#x27;: False, &#x27;run_system_tests&#x27;: False, &#x27;test&#x27;: None, &#x27;folder&#x27;: &#x27;C:\\\\Users\\\\capf9\\\\Desktop\\\\University\\\\web2py_win\\\\web2py&#x27;, &#x27;config&#x27;: &#x27;&#x27;, &#x27;minthreads&#x27;: None, &#x27;shell&#x27;: None, &#x27;run&#x27;: &#x27;&#x27;, &#x27;log_filename&#x27;: &#x27;httpserver.log&#x27;, &#x27;profiler_dir&#x27;: None, &#x27;args&#x27;: [&#x27;&#x27;], &#x27;socket_timeout&#x27;: 5, &#x27;ssl_ca_certificate&#x27;: None, &#x27;scheduler&#x27;: None, &#x27;interfaces&#x27;: None, &#x27;ssl_private_key&#x27;: &#x27;&#x27;, &#x27;gae&#x27;: None, &#x27;password&#x27;: &#x27;******&#x27;, &#x27;request_queue_size&#x27;: 5, &#x27;ssl_certificate&#x27;: &#x27;&#x27;, &#x27;cronjob&#x27;: False, &#x27;numthreads&#x27;: None, &#x27;quiet&#x27;: False, &#x27;import_models&#x27;: False, &#x27;timeout&#x27;: 10, &#x27;plain&#x27;: False, &#x27;nobanner&#x27;: False}&gt;</div></td></tr><tr><td style="font-weight:bold;vertical-align:top;">db_sessions</td><td style="vertical-align:top;">:</td><td><div>set([])</div></td></tr><tr><td style="font-weight:bold;vertical-align:top;">debugging</td><td style="vertical-align:top;">:</td><td><div>False</div></td></tr><tr><td style="font-weight:bold;vertical-align:top;">gluon_parent</td><td style="vertical-align:top;">:</td><td><div>C:\\Users\\capf9\\Desktop\\University\\web2py_win\\web2py</div></td></tr><tr><td style="font-weight:bold;vertical-align:top;">http_accept</td><td style="vertical-align:top;">:</td><td><div>text/html,application/xhtml+xml,application/xml;q=0.9,image/webp,image/apng,*/*;q=0.8</div></td></tr><tr><td style="font-weight:bold;vertical-align:top;">http_accept_encoding</td><td style="vertical-align:top;">:</td><td><div>gzip, deflate, br</div></td></tr><tr><td style="font-weight:bold;vertical-align:top;">http_accept_language</td><td style="vertical-align:top;">:</td><td><div>en-US,en;q=0.8,es;q=0.6</div></td></tr><tr><td style="font-weight:bold;vertical-align:top;">http_cache_control</td><td style="vertical-align:top;">:</td><td><div>max-age=0</div></td></tr><tr><td style="font-weight:bold;vertical-align:top;">http_connection</td><td style="vertical-align:top;">:</td><td><div>keep-alive</div></td></tr><tr><td style="font-weight:bold;vertical-align:top;">http_cookie</td><td style="vertical-align:top;">:</td><td><div>sessionid=qxgksagtp8gt8s5gevxtxdk9c79rxz7l; csrftoken=bAvrbJoJOHwdYd0Nhgcf7V7XLRCS3LThhnaIkAjMzM90R1ZK6PwGseUwcePnaB0I; session_id_welcome=127.0.0.1-28170384-65b0-4392-9fce-f7170658b8b2; session_id_admin=127.0.0.1-592f158c-c7bb-4cc0-841c-65b1202bd061; session_id_sispio=127.0.0.1-5d760c14-3db0-49e3-8ee9-a930ce3d7915</div></td></tr><tr><td style="font-weight:bold;vertical-align:top;">http_host</td><td style="vertical-align:top;">:</td><td><div>127.0.0.1:8000</div></td></tr><tr><td style="font-weight:bold;vertical-align:top;">http_referer</td><td style="vertical-align:top;">:</td><td><div>http://127.0.0.1:8000/SisPIO/admin/modificarUsuario</div></td></tr><tr><td style="font-weight:bold;vertical-align:top;">http_upgrade_insecure_requests</td><td style="vertical-align:top;">:</td><td><div>1</div></td></tr><tr><td style="font-weight:bold;vertical-align:top;">http_user_agent</td><td style="vertical-align:top;">:</td><td><div>Mozilla/5.0 (Windows NT 10.0; Win64; x64) AppleWebKit/537.36 (KHTML, like Gecko) Chrome/61.0.3163.100 Safari/537.36</div></td></tr><tr><td style="font-weight:bold;vertical-align:top;">is_jython</td><td style="vertical-align:top;">:</td><td><div>False</div></td></tr><tr><td style="font-weight:bold;vertical-align:top;">is_pypy</td><td style="vertical-align:top;">:</td><td><div>False</div></td></tr><tr><td style="font-weight:bold;vertical-align:top;">is_source</td><td style="vertical-align:top;">:</td><td><div>False</div></td></tr><tr><td style="font-weight:bold;vertical-align:top;">local_hosts</td><td style="vertical-align:top;">:</td><td><div><table><tr><td><div>2001:0:9d38:953c:c22:88c:41db:1a82</div></td></tr><tr><td><div>fe80::c22:88c:41db:1a82%11</div></td></tr><tr><td><div>::ffff:127.0.0.1</div></td></tr><tr><td><div>::1</div></td></tr><tr><td><div>192.168.1.3</div></td></tr><tr><td><div>127.0.0.1</div></td></tr><tr><td><div>DESKTOP-FLGPCSQ</div></td></tr><tr><td><div>fe80::31f0:99b4:d6f4:33e6%9</div></td></tr></table></div></td></tr><tr><td style="font-weight:bold;vertical-align:top;">path_info</td><td style="vertical-align:top;">:</td><td><div>/SisPIO/admin/modificarAdmin</div></td></tr><tr><td style="font-weight:bold;vertical-align:top;">query_string</td><td style="vertical-align:top;">:</td><td><div></div></td></tr><tr><td style="font-weight:bold;vertical-align:top;">remote_addr</td><td style="vertical-align:top;">:</td><td><div>127.0.0.1</div></td></tr><tr><td style="font-weight:bold;vertical-align:top;">remote_port</td><td style="vertical-align:top;">:</td><td><div>52298</div></td></tr><tr><td style="font-weight:bold;vertical-align:top;">request_method</td><td style="vertical-align:top;">:</td><td><div>GET</div></td></tr><tr><td style="font-weight:bold;vertical-align:top;">request_uri</td><td style="vertical-align:top;">:</td><td><div>/SisPIO/admin/modificarAdmin</div></td></tr><tr><td style="font-weight:bold;vertical-align:top;">script_name</td><td style="vertical-align:top;">:</td><td><div></div></td></tr><tr><td style="font-weight:bold;vertical-align:top;">server_name</td><td style="vertical-align:top;">:</td><td><div>DESKTOP-FLGPCSQ</div></td></tr><tr><td style="font-weight:bold;vertical-align:top;">server_port</td><td style="vertical-align:top;">:</td><td><div>8000</div></td></tr><tr><td style="font-weight:bold;vertical-align:top;">server_protocol</td><td style="vertical-align:top;">:</td><td><div>HTTP/1.1</div></td></tr><tr><td style="font-weight:bold;vertical-align:top;">server_software</td><td style="vertical-align:top;">:</td><td><div>Rocket 1.2.6</div></td></tr><tr><td style="font-weight:bold;vertical-align:top;">web2py_path</td><td style="vertical-align:top;">:</td><td><div>C:\\Users\\capf9\\Desktop\\University\\web2py_win\\web2py</div></td></tr><tr><td style="font-weight:bold;vertical-align:top;">web2py_version</td><td style="vertical-align:top;">:</td><td><div>2.14.6-stable+timestamp.2016.05.10.00.21.47</div></td></tr><tr><td style="font-weight:bold;vertical-align:top;">wsgi.errors</td><td style="vertical-align:top;">:</td><td><div>&lt;open file &#x27;&lt;stderr&gt;&#x27;, mode &#x27;w&#x27; at 0x01F6D0D0&gt;</div></td></tr><tr><td style="font-weight:bold;vertical-align:top;">wsgi.file_wrapper</td><td style="vertical-align:top;">:</td><td><div>&lt;class wsgiref.util.FileWrapper at 0x03979110&gt;</div></td></tr><tr><td style="font-weight:bold;vertical-align:top;">wsgi.input</td><td style="vertical-align:top;">:</td><td><div>&lt;socket._fileobject object at 0x03D91570&gt;</div></td></tr><tr><td style="font-weight:bold;vertical-align:top;">wsgi.multiprocess</td><td style="vertical-align:top;">:</td><td><div>False</div></td></tr><tr><td style="font-weight:bold;vertical-align:top;">wsgi.multithread</td><td style="vertical-align:top;">:</td><td><div>True</div></td></tr><tr><td style="font-weight:bold;vertical-align:top;">wsgi.run_once</td><td style="vertical-align:top;">:</td><td><div>False</div></td></tr><tr><td style="font-weight:bold;vertical-align:top;">wsgi.url_scheme</td><td style="vertical-align:top;">:</td><td><div>http</div></td></tr><tr><td style="font-weight:bold;vertical-align:top;">wsgi.version</td><td style="vertical-align:top;">:</td><td><div><table><tr><td><div>1</div></td></tr><tr><td><div>0</div></td></tr></table></div></td></tr><tr><td style="font-weight:bold;vertical-align:top;">wsgi_errors</td><td style="vertical-align:top;">:</td><td><div>&lt;open file &#x27;&lt;stderr&gt;&#x27;, mode &#x27;w&#x27; at 0x01F6D0D0&gt;</div></td></tr><tr><td style="font-weight:bold;vertical-align:top;">wsgi_file_wrapper</td><td style="vertical-align:top;">:</td><td><div>&lt;class wsgiref.util.FileWrapper at 0x03979110&gt;</div></td></tr><tr><td style="font-weight:bold;vertical-align:top;">wsgi_input</td><td style="vertical-align:top;">:</td><td><div>&lt;socket._fileobject object at 0x03D91570&gt;</div></td></tr><tr><td style="font-weight:bold;vertical-align:top;">wsgi_multiprocess</td><td style="vertical-align:top;">:</td><td><div>False</div></td></tr><tr><td style="font-weight:bold;vertical-align:top;">wsgi_multithread</td><td style="vertical-align:top;">:</td><td><div>True</div></td></tr><tr><td style="font-weight:bold;vertical-align:top;">wsgi_run_once</td><td style="vertical-align:top;">:</td><td><div>False</div></td></tr><tr><td style="font-weight:bold;vertical-align:top;">wsgi_url_scheme</td><td style="vertical-align:top;">:</td><td><div>http</div></td></tr><tr><td style="font-weight:bold;vertical-align:top;">wsgi_version</td><td style="vertical-align:top;">:</td><td><div><table><tr><td><div>1</div></td></tr><tr><td><div>0</div></td></tr></table></div></td></tr></table></div></td></tr><tr><td style="font-weight:bold;vertical-align:top;">extension</td><td style="vertical-align:top;">:</td><td><div>html</div></td></tr><tr><td style="font-weight:bold;vertical-align:top;">folder</td><td style="vertical-align:top;">:</td><td><div>C:\\Users\\capf9\\Desktop\\University\\web2py_win\\web2py\\applications\\SisPIO\\</div></td></tr><tr><td style="font-weight:bold;vertical-align:top;">function</td><td style="vertical-align:top;">:</td><td><div>modificarAdmin</div></td></tr><tr><td style="font-weight:bold;vertical-align:top;">global_settings</td><td style="vertical-align:top;">:</td><td><div><table><tr><td style="font-weight:bold;vertical-align:top;">app_folders</td><td style="vertical-align:top;">:</td><td><div>set([&#x27;C:\\\\Users\\\\capf9\\\\Desktop\\\\University\\\\web2py_win\\\\web2py\\\\applications\\\\welcome\\\\&#x27;, &#x27;C:\\\\Users\\\\capf9\\\\Desktop\\\\University\\\\web2py_win\\\\web2py\\\\applications\\\\admin\\\\&#x27;, &#x27;C:\\\\Users\\\\capf9\\\\Desktop\\\\University\\\\web2py_win\\\\web2py\\\\applications\\\\SisPIO\\\\&#x27;])</div></td></tr><tr><td style="font-weight:bold;vertical-align:top;">applications_parent</td><td style="vertical-align:top;">:</td><td><div>C:\\Users\\capf9\\Desktop\\University\\web2py_win\\web2py</div></td></tr><tr><td style="font-weight:bold;vertical-align:top;">cmd_args</td><td style="vertical-align:top;">:</td><td><div><table></table></div></td></tr><tr><td style="font-weight:bold;vertical-align:top;">cmd_options</td><td style="vertical-align:top;">:</td><td><div>&lt;Values at 0x39bbd78: {&#x27;verbose&#x27;: False, &#x27;ip&#x27;: &#x27;127.0.0.1&#x27;, &#x27;debuglevel&#x27;: 30, &#x27;with_scheduler&#x27;: False, &#x27;shutdown_timeout&#x27;: 5, &#x27;taskbar&#x27;: False, &#x27;with_coverage&#x27;: False, &#x27;pid_filename&#x27;: &#x27;httpserver.pid&#x27;, &#x27;maxthreads&#x27;: None, &#x27;softcron&#x27;: False, &#x27;server_name&#x27;: &#x27;DESKTOP-FLGPCSQ&#x27;, &#x27;bpython&#x27;: False, &#x27;nogui&#x27;: False, &#x27;port&#x27;: 8000, &#x27;print_errors&#x27;: False, &#x27;extcron&#x27;: False, &#x27;runcron&#x27;: False, &#x27;run_system_tests&#x27;: False, &#x27;test&#x27;: None, &#x27;folder&#x27;: &#x27;C:\\\\Users\\\\capf9\\\\Desktop\\\\University\\\\web2py_win\\\\web2py&#x27;, &#x27;config&#x27;: &#x27;&#x27;, &#x27;minthreads&#x27;: None, &#x27;shell&#x27;: None, &#x27;run&#x27;: &#x27;&#x27;, &#x27;log_filename&#x27;: &#x27;httpserver.log&#x27;, &#x27;profiler_dir&#x27;: None, &#x27;args&#x27;: [&#x27;&#x27;], &#x27;socket_timeout&#x27;: 5, &#x27;ssl_ca_certificate&#x27;: None, &#x27;scheduler&#x27;: None, &#x27;interfaces&#x27;: None, &#x27;ssl_private_key&#x27;: &#x27;&#x27;, &#x27;gae&#x27;: None, &#x27;password&#x27;: &#x27;******&#x27;, &#x27;request_queue_size&#x27;: 5, &#x27;ssl_certificate&#x27;: &#x27;&#x27;, &#x27;cronjob&#x27;: False, &#x27;numthreads&#x27;: None, &#x27;quiet&#x27;: False, &#x27;import_models&#x27;: False, &#x27;timeout&#x27;: 10, &#x27;plain&#x27;: False, &#x27;nobanner&#x27;: False}&gt;</div></td></tr><tr><td style="font-weight:bold;vertical-align:top;">db_sessions</td><td style="vertical-align:top;">:</td><td><div>set([])</div></td></tr><tr><td style="font-weight:bold;vertical-align:top;">debugging</td><td style="vertical-align:top;">:</td><td><div>False</div></td></tr><tr><td style="font-weight:bold;vertical-align:top;">gluon_parent</td><td style="vertical-align:top;">:</td><td><div>C:\\Users\\capf9\\Desktop\\University\\web2py_win\\web2py</div></td></tr><tr><td style="font-weight:bold;vertical-align:top;">is_jython</td><td style="vertical-align:top;">:</td><td><div>False</div></td></tr><tr><td style="font-weight:bold;vertical-align:top;">is_pypy</td><td style="vertical-align:top;">:</td><td><div>False</div></td></tr><tr><td style="font-weight:bold;vertical-align:top;">is_source</td><td style="vertical-align:top;">:</td><td><div>False</div></td></tr><tr><td style="font-weight:bold;vertical-align:top;">local_hosts</td><td style="vertical-align:top;">:</td><td><div><table><tr><td><div>2001:0:9d38:953c:c22:88c:41db:1a82</div></td></tr><tr><td><div>fe80::c22:88c:41db:1a82%11</div></td></tr><tr><td><div>::ffff:127.0.0.1</div></td></tr><tr><td><div>::1</div></td></tr><tr><td><div>192.168.1.3</div></td></tr><tr><td><div>127.0.0.1</div></td></tr><tr><td><div>DESKTOP-FLGPCSQ</div></td></tr><tr><td><div>fe80::31f0:99b4:d6f4:33e6%9</div></td></tr></table></div></td></tr><tr><td style="font-weight:bold;vertical-align:top;">web2py_version</td><td style="vertical-align:top;">:</td><td><div>2.14.6-stable+timestamp.2016.05.10.00.21.47</div></td></tr></table></div></td></tr><tr><td style="font-weight:bold;vertical-align:top;">is_https</td><td style="vertical-align:top;">:</td><td><div>False</div></td></tr><tr><td style="font-weight:bold;vertical-align:top;">is_local</td><td style="vertical-align:top;">:</td><td><div>True</div></td></tr><tr><td style="font-weight:bold;vertical-align:top;">is_restful</td><td style="vertical-align:top;">:</td><td><div>False</div></td></tr><tr><td style="font-weight:bold;vertical-align:top;">is_scheduler</td><td style="vertical-align:top;">:</td><td><div>False</div></td></tr><tr><td style="font-weight:bold;vertical-align:top;">is_shell</td><td style="vertical-align:top;">:</td><td><div>False</div></td></tr><tr><td style="font-weight:bold;vertical-align:top;">now</td><td style="vertical-align:top;">:</td><td><div>datetime.datetime(2017, 11, 12, 20, 58, 43, 902000)</div></td></tr><tr><td style="font-weight:bold;vertical-align:top;">raw_args</td><td style="vertical-align:top;">:</td><td><div></div></td></tr><tr><td style="font-weight:bold;vertical-align:top;">raw_extension</td><td style="vertical-align:top;">:</td><td><div>None</div></td></tr><tr><td style="font-weight:bold;vertical-align:top;">url</td><td style="vertical-align:top;">:</td><td><div>/SisPIO/admin/modificarAdmin</div></td></tr><tr><td style="font-weight:bold;vertical-align:top;">utcnow</td><td style="vertical-align:top;">:</td><td><div>datetime.datetime(2017, 11, 13, 0, 58, 43, 902000)</div></td></tr><tr><td style="font-weight:bold;vertical-align:top;">wsgi</td><td style="vertical-align:top;">:</td><td><div>&lt;gluon.main.LazyWSGI object at 0x03C03A70&gt;</div></td></tr></table></div>'
tRp58
sS'frames'
p59
(lp60
(dp61
S'file'
p62
S'C:\\Users\\capf9\\Desktop\\University\\web2py_win\\web2py\\gluon\\restricted.py'
p63
sS'dump'
p64
(dp65
S'environment'
p66
S"{'A': <class 'gluon.html.A'>, 'ANY_OF': <class 'gluon.validators.ANY_OF'>, 'ASSIGNJS': <function ASSIGNJS>, 'AppConfig': <function AppConfig>, 'Auth': <class 'gluon.tools.Auth'>, 'B': <class 'gluon.html.B'>, 'BEAUTIFY': <class 'gluon.html.BEAUTIFY'>, 'BODY': <class 'gluon.html.BODY'>, 'BR': <class 'gluon.html.BR'>, 'BUTTON': <class 'gluon.html.BUTTON'>, ...}"
p67
sS'ccode'
p68
S'<code object <module> at 03C21380, file "C:\\User...plications\\SisPIO\\controllers/admin.py", line 10>'
p69
ssS'lnum'
p70
I227
sS'lines'
p71
(dp72
I224
S'            ccode = code'
p73
sI225
S'        else:'
p74
sI226
S'            ccode = compile2(code, layer)'
p75
sI227
S'        exec ccode in environment'
p76
sI228
S'    except HTTP:'
p77
sI229
S'        raise'
p78
sI230
S'    except RestrictedError:'
p79
sI231
S'        # do not encapsulate (obfuscate) the original RestrictedError'
p80
sI222
S'    try:'
p81
sI223
S'        if isinstance(code, types.CodeType):'
p82
ssS'call'
p83
S"(code='# -*- coding: utf-8 -*-\\n# this file is released ...\\nresponse._vars=response._caller(modificarAdmin)\\n', environment={'A': <class 'gluon.html.A'>, 'ANY_OF': <class 'gluon.validators.ANY_OF'>, 'ASSIGNJS': <function ASSIGNJS>, 'AppConfig': <function AppConfig>, 'Auth': <class 'gluon.tools.Auth'>, 'B': <class 'gluon.html.B'>, 'BEAUTIFY': <class 'gluon.html.BEAUTIFY'>, 'BODY': <class 'gluon.html.BODY'>, 'BR': <class 'gluon.html.BR'>, 'BUTTON': <class 'gluon.html.BUTTON'>, ...}, layer=r'C:\\Users\\capf9\\Desktop\\University\\web2py_win\\web2py\\applications\\SisPIO\\controllers/admin.py')"
p84
sS'func'
p85
S'restricted'
p86
sa(dp87
g62
S'C:\\Users\\capf9\\Desktop\\University\\web2py_win\\web2py\\applications\\SisPIO\\controllers\\admin.py'
p88
sg64
(dp89
sg70
I682
sg71
(dp90
I672
S"@auth.requires_membership('Administrador')"
p91
sI673
S'@auth.requires_login()'
p92
sI674
S'def perfil():'
p93
sI675
S'    return dict()'
p94
sI676
S''
sI677
S"@auth.requires_membership('Administrador')"
p95
sI678
S'@auth.requires_login()'
p96
sI679
S'def reporte():'
p97
sI680
S'    return dict()'
p98
sI671
S''
ssg83
S'()'
p99
sg85
S'<module>'
p100
sa(dp101
g62
S'C:\\Users\\capf9\\Desktop\\University\\web2py_win\\web2py\\gluon\\globals.py'
p102
sg64
(dp103
S'self'
p104
S'undefined'
p105
sS'f'
S'<function modificarAdmin>'
p106
ssg70
I417
sg71
(dp107
I416
S'        self._vars = None'
p108
sI417
S'        self._caller = lambda f: f()'
p109
sI418
S'        self._view_environment = None'
p110
sI419
S'        self._custom_commit = None'
p111
sI420
S'        self._custom_rollback = None'
p112
sI421
S"        self.generic_patterns = ['*']"
p113
sI412
S"        self.flash = ''            # used by the default view layout"
p114
sI413
S'        self.meta = Storage()      # used by web2py_ajax.html'
p115
sI414
S'        self.menu = []             # used by the default view layout'
p116
sI415
S'        self.files = []            # used by web2py_ajax.html'
p117
ssg83
S'(f=<function modificarAdmin>)'
p118
sg85
S'<lambda>'
p119
sa(dp120
g62
S'C:\\Users\\capf9\\Desktop\\University\\web2py_win\\web2py\\applications\\SisPIO\\controllers\\admin.py'
p121
sg64
(dp122
S'global session'
p123
S"<Storage {'_formkey[login]': ['34d78b9b-110c-420...ps': {5L: 'Administrador'}}>, 'cedula': 'admin'}>"
p124
sS'usuario'
p125
g105
sS'session.cedula'
p126
S"'admin'"
p127
sS'db.usuario.ci'
p128
g105
sS').select'
p129
g105
sS'db.usuario'
p130
S'<Table usuario (id, first_name, last_name, email...ration_key, reset_password_key, registration_id)>'
p131
sS'global db'
p132
S'<DAL uri="postgres:******@localhost/SisPIO">'
p133
ssg70
I660
sg71
(dp134
I655
S'    usuario = db(db.representante_liceo.ci==session.cedula).select()[0]'
p135
sI656
S'    liceos = db(db.liceo.id>0).select()'
p136
sI657
S'    return dict(usuario=usuario,liceos=liceos)'
p137
sI658
S''
sI659
S'def modificarAdmin():'
p138
sI660
S'    usuario = db(db.usuario.ci==session.cedula).select()[0]'
p139
sI661
S'    return dict(usuario=usuario)'
p140
sI662
S''
sI663
S'def modificarProfesor():'
p141
sI664
S'    usuario = db(db.profesor.ci==session.cedula).select()[0]'
p142
ssg83
S'()'
p143
sg85
S'modificarAdmin'
p144
sasS'pyver'
p145
S'Python 2.7.9: C:\\Users\\capf9\\Desktop\\University\\web2py_win\\web2py\\web2py.exe (prefix: )'
p146
sS'session'
p147
g57
(S's\x80\n\x00\x00<div><table><tr><td style="font-weight:bold;vertical-align:top;">auth</td><td style="vertical-align:top;">:</td><td><div><table><tr><td style="font-weight:bold;vertical-align:top;">expiration</td><td style="vertical-align:top;">:</td><td><div>3600</div></td></tr><tr><td style="font-weight:bold;vertical-align:top;">hmac_key</td><td style="vertical-align:top;">:</td><td><div>0b7b8e1c-e399-4ba0-bc19-ba67ef4750b7</div></td></tr><tr><td style="font-weight:bold;vertical-align:top;">last_visit</td><td style="vertical-align:top;">:</td><td><div>datetime.datetime(2017, 11, 12, 20, 58, 37, 388000)</div></td></tr><tr><td style="font-weight:bold;vertical-align:top;">remember_me</td><td style="vertical-align:top;">:</td><td><div>False</div></td></tr><tr><td style="font-weight:bold;vertical-align:top;">user</td><td style="vertical-align:top;">:</td><td><div><table><tr><td style="font-weight:bold;vertical-align:top;">email</td><td style="vertical-align:top;">:</td><td><div>admin@usb.ve</div></td></tr><tr><td style="font-weight:bold;vertical-align:top;">first_name</td><td style="vertical-align:top;">:</td><td><div>SisPIO</div></td></tr><tr><td style="font-weight:bold;vertical-align:top;">id</td><td style="vertical-align:top;">:</td><td><div>1L</div></td></tr><tr><td style="font-weight:bold;vertical-align:top;">last_name</td><td style="vertical-align:top;">:</td><td><div>Admin</div></td></tr><tr><td style="font-weight:bold;vertical-align:top;">registration_id</td><td style="vertical-align:top;">:</td><td><div></div></td></tr><tr><td style="font-weight:bold;vertical-align:top;">registration_key</td><td style="vertical-align:top;">:</td><td><div></div></td></tr><tr><td style="font-weight:bold;vertical-align:top;">reset_password_key</td><td style="vertical-align:top;">:</td><td><div></div></td></tr><tr><td style="font-weight:bold;vertical-align:top;">username</td><td style="vertical-align:top;">:</td><td><div>admin</div></td></tr></table></div></td></tr><tr><td style="font-weight:bold;vertical-align:top;">user_groups</td><td style="vertical-align:top;">:</td><td><div><table><tr><td style="font-weight:bold;vertical-align:top;">5</td><td style="vertical-align:top;">:</td><td><div>Administrador</div></td></tr></table></div></td></tr></table></div></td></tr><tr><td style="font-weight:bold;vertical-align:top;">cedula</td><td style="vertical-align:top;">:</td><td><div>admin</div></td></tr><tr><td style="font-weight:bold;vertical-align:top;">flash</td><td style="vertical-align:top;">:</td><td><div>None</div></td></tr><tr><td style="font-weight:bold;vertical-align:top;">tipo</td><td style="vertical-align:top;">:</td><td><div>Administrador</div></td></tr></table></div>'
tRp148
sS'etype'
p149
S"<type 'exceptions.AttributeError'>"
p150
sS'date'
p151
S'Sun Nov 12 20:58:43 2017'
p152
sS'response'
p153
g57
(S's\x96?\x00\x00<div><table><tr><td style="font-weight:bold;vertical-align:top;">body</td><td style="vertical-align:top;">:</td><td><div>&lt;cStringIO.StringO object at 0x03BF0640&gt;</div></td></tr><tr><td style="font-weight:bold;vertical-align:top;">cookies</td><td style="vertical-align:top;">:</td><td><div><table><tr><td style="font-weight:bold;vertical-align:top;">session_id_sispio</td><td style="vertical-align:top;">:</td><td><div>127.0.0.1-5d760c14-3db0-49e3-8ee9-a930ce3d7915<table><tr><td style="font-weight:bold;vertical-align:top;">comment</td><td style="vertical-align:top;">:</td><td><div></div></td></tr><tr><td style="font-weight:bold;vertical-align:top;">domain</td><td style="vertical-align:top;">:</td><td><div></div></td></tr><tr><td style="font-weight:bold;vertical-align:top;">expires</td><td style="vertical-align:top;">:</td><td><div></div></td></tr><tr><td style="font-weight:bold;vertical-align:top;">httponly</td><td style="vertical-align:top;">:</td><td><div></div></td></tr><tr><td style="font-weight:bold;vertical-align:top;">max-age</td><td style="vertical-align:top;">:</td><td><div></div></td></tr><tr><td style="font-weight:bold;vertical-align:top;">path</td><td style="vertical-align:top;">:</td><td><div>/</div></td></tr><tr><td style="font-weight:bold;vertical-align:top;">secure</td><td style="vertical-align:top;">:</td><td><div></div></td></tr><tr><td style="font-weight:bold;vertical-align:top;">version</td><td style="vertical-align:top;">:</td><td><div></div></td></tr></table></div></td></tr></table></div></td></tr><tr><td style="font-weight:bold;vertical-align:top;">delimiters</td><td style="vertical-align:top;">:</td><td><div><table><tr><td><div>{{</div></td></tr><tr><td><div>}}</div></td></tr></table></div></td></tr><tr><td style="font-weight:bold;vertical-align:top;">files</td><td style="vertical-align:top;">:</td><td><div><table></table></div></td></tr><tr><td style="font-weight:bold;vertical-align:top;">flash</td><td style="vertical-align:top;">:</td><td><div></div></td></tr><tr><td style="font-weight:bold;vertical-align:top;">form_label_separator</td><td style="vertical-align:top;">:</td><td><div></div></td></tr><tr><td style="font-weight:bold;vertical-align:top;">formstyle</td><td style="vertical-align:top;">:</td><td><div>bootstrap3_inline</div></td></tr><tr><td style="font-weight:bold;vertical-align:top;">generic_patterns</td><td style="vertical-align:top;">:</td><td><div><table><tr><td><div>*</div></td></tr></table></div></td></tr><tr><td style="font-weight:bold;vertical-align:top;">google_analytics_id</td><td style="vertical-align:top;">:</td><td><div>None</div></td></tr><tr><td style="font-weight:bold;vertical-align:top;">headers</td><td style="vertical-align:top;">:</td><td><div><table><tr><td style="font-weight:bold;vertical-align:top;">X-Powered-By</td><td style="vertical-align:top;">:</td><td><div>web2py</div></td></tr></table></div></td></tr><tr><td style="font-weight:bold;vertical-align:top;">logo</td><td style="vertical-align:top;">:</td><td><div><a class="navbar-brand" href="http://www.web2py.com/" id="web2py-logo"><b>web<span>2</span>py</b>&trade;&nbsp;</a></div></td></tr><tr><td style="font-weight:bold;vertical-align:top;">menu</td><td style="vertical-align:top;">:</td><td><div><table><tr><td><div><table><tr><td><div>Home</div></td></tr><tr><td><div>False</div></td></tr><tr><td><div>/SisPIO/default/index</div></td></tr><tr><td><div><table></table></div></td></tr></table></div></td></tr><tr><td><div><table><tr><td><div>My Sites</div></td></tr><tr><td><div>False</div></td></tr><tr><td><div>/admin/default/site</div></td></tr></table></div></td></tr><tr><td><div><table><tr><td><div>This App</div></td></tr><tr><td><div>False</div></td></tr><tr><td><div>#</div></td></tr><tr><td><div><table><tr><td><div><table><tr><td><div>Design</div></td></tr><tr><td><div>False</div></td></tr><tr><td><div>/admin/default/design/SisPIO</div></td></tr></table></div></td></tr><tr><td><div><li class="divider"></li></div></td></tr><tr><td><div><table><tr><td><div>Controller</div></td></tr><tr><td><div>False</div></td></tr><tr><td><div>/admin/default/edit/SisPIO/controllers/admin.py</div></td></tr></table></div></td></tr><tr><td><div><table><tr><td><div>View</div></td></tr><tr><td><div>False</div></td></tr><tr><td><div>/admin/default/edit/SisPIO/views/admin/modificarAdmin.html</div></td></tr></table></div></td></tr><tr><td><div><table><tr><td><div>DB Model</div></td></tr><tr><td><div>False</div></td></tr><tr><td><div>/admin/default/edit/SisPIO/models/db.py</div></td></tr></table></div></td></tr><tr><td><div><table><tr><td><div>Menu Model</div></td></tr><tr><td><div>False</div></td></tr><tr><td><div>/admin/default/edit/SisPIO/models/menu.py</div></td></tr></table></div></td></tr><tr><td><div><table><tr><td><div>Config.ini</div></td></tr><tr><td><div>False</div></td></tr><tr><td><div>/admin/default/edit/SisPIO/private/appconfig.ini</div></td></tr></table></div></td></tr><tr><td><div><table><tr><td><div>Layout</div></td></tr><tr><td><div>False</div></td></tr><tr><td><div>/admin/default/edit/SisPIO/views/layout.html</div></td></tr></table></div></td></tr><tr><td><div><table><tr><td><div>Stylesheet</div></td></tr><tr><td><div>False</div></td></tr><tr><td><div>/admin/default/edit/SisPIO/static/css/web2py-bootstrap3.css</div></td></tr></table></div></td></tr><tr><td><div><table><tr><td><div>Database</div></td></tr><tr><td><div>False</div></td></tr><tr><td><div>/SisPIO/appadmin/index</div></td></tr></table></div></td></tr><tr><td><div><table><tr><td><div>Errors</div></td></tr><tr><td><div>False</div></td></tr><tr><td><div>/admin/default/errors/SisPIO</div></td></tr></table></div></td></tr><tr><td><div><table><tr><td><div>About</div></td></tr><tr><td><div>False</div></td></tr><tr><td><div>/admin/default/about/SisPIO</div></td></tr></table></div></td></tr></table></div></td></tr></table></div></td></tr><tr><td><div><table><tr><td><div>web2py.com</div></td></tr><tr><td><div>False</div></td></tr><tr><td><div>#</div></td></tr><tr><td><div><table><tr><td><div><table><tr><td><div>Download</div></td></tr><tr><td><div>False</div></td></tr><tr><td><div>http://www.web2py.com/examples/default/download</div></td></tr></table></div></td></tr><tr><td><div><table><tr><td><div>Support</div></td></tr><tr><td><div>False</div></td></tr><tr><td><div>http://www.web2py.com/examples/default/support</div></td></tr></table></div></td></tr><tr><td><div><table><tr><td><div>Demo</div></td></tr><tr><td><div>False</div></td></tr><tr><td><div>http://web2py.com/demo_admin</div></td></tr></table></div></td></tr><tr><td><div><table><tr><td><div>Quick Examples</div></td></tr><tr><td><div>False</div></td></tr><tr><td><div>http://web2py.com/examples/default/examples</div></td></tr></table></div></td></tr><tr><td><div><table><tr><td><div>FAQ</div></td></tr><tr><td><div>False</div></td></tr><tr><td><div>http://web2py.com/AlterEgo</div></td></tr></table></div></td></tr><tr><td><div><table><tr><td><div>Videos</div></td></tr><tr><td><div>False</div></td></tr><tr><td><div>http://www.web2py.com/examples/default/videos/</div></td></tr></table></div></td></tr><tr><td><div><table><tr><td><div>Free Applications</div></td></tr><tr><td><div>False</div></td></tr><tr><td><div>http://web2py.com/appliances</div></td></tr></table></div></td></tr><tr><td><div><table><tr><td><div>Plugins</div></td></tr><tr><td><div>False</div></td></tr><tr><td><div>http://web2py.com/plugins</div></td></tr></table></div></td></tr><tr><td><div><table><tr><td><div>Recipes</div></td></tr><tr><td><div>False</div></td></tr><tr><td><div>http://web2pyslices.com/</div></td></tr></table></div></td></tr></table></div></td></tr></table></div></td></tr><tr><td><div><table><tr><td><div>Documentation</div></td></tr><tr><td><div>False</div></td></tr><tr><td><div>#</div></td></tr><tr><td><div><table><tr><td><div><table><tr><td><div>Online book</div></td></tr><tr><td><div>False</div></td></tr><tr><td><div>http://www.web2py.com/book</div></td></tr></table></div></td></tr><tr><td><div><li class="divider"></li></div></td></tr><tr><td><div><table><tr><td><div>Preface</div></td></tr><tr><td><div>False</div></td></tr><tr><td><div>http://www.web2py.com/book/default/chapter/00</div></td></tr></table></div></td></tr><tr><td><div><table><tr><td><div>Introduction</div></td></tr><tr><td><div>False</div></td></tr><tr><td><div>http://www.web2py.com/book/default/chapter/01</div></td></tr></table></div></td></tr><tr><td><div><table><tr><td><div>Python</div></td></tr><tr><td><div>False</div></td></tr><tr><td><div>http://www.web2py.com/book/default/chapter/02</div></td></tr></table></div></td></tr><tr><td><div><table><tr><td><div>Overview</div></td></tr><tr><td><div>False</div></td></tr><tr><td><div>http://www.web2py.com/book/default/chapter/03</div></td></tr></table></div></td></tr><tr><td><div><table><tr><td><div>The Core</div></td></tr><tr><td><div>False</div></td></tr><tr><td><div>http://www.web2py.com/book/default/chapter/04</div></td></tr></table></div></td></tr><tr><td><div><table><tr><td><div>The Views</div></td></tr><tr><td><div>False</div></td></tr><tr><td><div>http://www.web2py.com/book/default/chapter/05</div></td></tr></table></div></td></tr><tr><td><div><table><tr><td><div>Database</div></td></tr><tr><td><div>False</div></td></tr><tr><td><div>http://www.web2py.com/book/default/chapter/06</div></td></tr></table></div></td></tr><tr><td><div><table><tr><td><div>Forms and Validators</div></td></tr><tr><td><div>False</div></td></tr><tr><td><div>http://www.web2py.com/book/default/chapter/07</div></td></tr></table></div></td></tr><tr><td><div><table><tr><td><div>Email and SMS</div></td></tr><tr><td><div>False</div></td></tr><tr><td><div>http://www.web2py.com/book/default/chapter/08</div></td></tr></table></div></td></tr><tr><td><div><table><tr><td><div>Access Control</div></td></tr><tr><td><div>False</div></td></tr><tr><td><div>http://www.web2py.com/book/default/chapter/09</div></td></tr></table></div></td></tr><tr><td><div><table><tr><td><div>Services</div></td></tr><tr><td><div>False</div></td></tr><tr><td><div>http://www.web2py.com/book/default/chapter/10</div></td></tr></table></div></td></tr><tr><td><div><table><tr><td><div>Ajax Recipes</div></td></tr><tr><td><div>False</div></td></tr><tr><td><div>http://www.web2py.com/book/default/chapter/11</div></td></tr></table></div></td></tr><tr><td><div><table><tr><td><div>Components and Plugins</div></td></tr><tr><td><div>False</div></td></tr><tr><td><div>http://www.web2py.com/book/default/chapter/12</div></td></tr></table></div></td></tr><tr><td><div><table><tr><td><div>Deployment Recipes</div></td></tr><tr><td><div>False</div></td></tr><tr><td><div>http://www.web2py.com/book/default/chapter/13</div></td></tr></table></div></td></tr><tr><td><div><table><tr><td><div>Other Recipes</div></td></tr><tr><td><div>False</div></td></tr><tr><td><div>http://www.web2py.com/book/default/chapter/14</div></td></tr></table></div></td></tr><tr><td><div><table><tr><td><div>Helping web2py</div></td></tr><tr><td><div>False</div></td></tr><tr><td><div>http://www.web2py.com/book/default/chapter/15</div></td></tr></table></div></td></tr><tr><td><div><table><tr><td><div>Buy web2py\'s book</div></td></tr><tr><td><div>False</div></td></tr><tr><td><div>http://stores.lulu.com/web2py</div></td></tr></table></div></td></tr></table></div></td></tr></table></div></td></tr><tr><td><div><table><tr><td><div>Community</div></td></tr><tr><td><div>False</div></td></tr><tr><td><div>None</div></td></tr><tr><td><div><table><tr><td><div><table><tr><td><div>Groups</div></td></tr><tr><td><div>False</div></td></tr><tr><td><div>http://www.web2py.com/examples/default/usergroups</div></td></tr></table></div></td></tr><tr><td><div><table><tr><td><div>Twitter</div></td></tr><tr><td><div>False</div></td></tr><tr><td><div>http://twitter.com/web2py</div></td></tr></table></div></td></tr><tr><td><div><table><tr><td><div>Live Chat</div></td></tr><tr><td><div>False</div></td></tr><tr><td><div>http://webchat.freenode.net/?channels=web2py</div></td></tr></table></div></td></tr></table></div></td></tr></table></div></td></tr></table></div></td></tr><tr><td style="font-weight:bold;vertical-align:top;">meta</td><td style="vertical-align:top;">:</td><td><div><table><tr><td style="font-weight:bold;vertical-align:top;">author</td><td style="vertical-align:top;">:</td><td><div>Your Name &lt;you@example.com&gt;</div></td></tr><tr><td style="font-weight:bold;vertical-align:top;">description</td><td style="vertical-align:top;">:</td><td><div>a cool new app</div></td></tr><tr><td style="font-weight:bold;vertical-align:top;">generator</td><td style="vertical-align:top;">:</td><td><div>Web2py Web Framework</div></td></tr><tr><td style="font-weight:bold;vertical-align:top;">keywords</td><td style="vertical-align:top;">:</td><td><div><table><tr><td><div>web2py</div></td></tr><tr><td><div>python</div></td></tr><tr><td><div>framework</div></td></tr></table></div></td></tr></table></div></td></tr><tr><td style="font-weight:bold;vertical-align:top;">models_to_run</td><td style="vertical-align:top;">:</td><td><div><table><tr><td><div>^\\w+\\.py$</div></td></tr><tr><td><div>^admin/\\w+\\.py$</div></td></tr><tr><td><div>^admin/modificarAdmin/\\w+\\.py$</div></td></tr></table></div></td></tr><tr><td style="font-weight:bold;vertical-align:top;">postprocessing</td><td style="vertical-align:top;">:</td><td><div><table></table></div></td></tr><tr><td style="font-weight:bold;vertical-align:top;">session_client</td><td style="vertical-align:top;">:</td><td><div>127.0.0.1</div></td></tr><tr><td style="font-weight:bold;vertical-align:top;">session_cookie_compression_level</td><td style="vertical-align:top;">:</td><td><div>None</div></td></tr><tr><td style="font-weight:bold;vertical-align:top;">session_cookie_expires</td><td style="vertical-align:top;">:</td><td><div>None</div></td></tr><tr><td style="font-weight:bold;vertical-align:top;">session_data_name</td><td style="vertical-align:top;">:</td><td><div>session_data_sispio</div></td></tr><tr><td style="font-weight:bold;vertical-align:top;">session_file</td><td style="vertical-align:top;">:</td><td><div>&lt;open file &#x27;C:\\\\Users\\\\capf9\\\\Desktop\\\\University\\\\web2py_win\\\\web2py\\\\applications\\\\SisPIO\\\\sessions\\\\061\\\\08f\\\\127.0.0.1-5d760c14-3db0-49e3-8ee9-a930ce3d7915&#x27;, mode &#x27;rb+&#x27; at 0x03EC5F98&gt;</div></td></tr><tr><td style="font-weight:bold;vertical-align:top;">session_filename</td><td style="vertical-align:top;">:</td><td><div>C:\\Users\\capf9\\Desktop\\University\\web2py_win\\web2py\\applications\\SisPIO\\sessions\\127.0.0.1-5d760c14-3db0-49e3-8ee9-a930ce3d7915</div></td></tr><tr><td style="font-weight:bold;vertical-align:top;">session_hash</td><td style="vertical-align:top;">:</td><td><div>f69d7cd24fc04d6caded9fafc2653486</div></td></tr><tr><td style="font-weight:bold;vertical-align:top;">session_id</td><td style="vertical-align:top;">:</td><td><div>127.0.0.1-5d760c14-3db0-49e3-8ee9-a930ce3d7915</div></td></tr><tr><td style="font-weight:bold;vertical-align:top;">session_id_name</td><td style="vertical-align:top;">:</td><td><div>session_id_sispio</div></td></tr><tr><td style="font-weight:bold;vertical-align:top;">session_locked</td><td style="vertical-align:top;">:</td><td><div>True</div></td></tr><tr><td style="font-weight:bold;vertical-align:top;">session_masterapp</td><td style="vertical-align:top;">:</td><td><div>SisPIO</div></td></tr><tr><td style="font-weight:bold;vertical-align:top;">session_new</td><td style="vertical-align:top;">:</td><td><div>False</div></td></tr><tr><td style="font-weight:bold;vertical-align:top;">session_storage_type</td><td style="vertical-align:top;">:</td><td><div>file</div></td></tr><tr><td style="font-weight:bold;vertical-align:top;">status</td><td style="vertical-align:top;">:</td><td><div>200</div></td></tr><tr><td style="font-weight:bold;vertical-align:top;">subtitle</td><td style="vertical-align:top;">:</td><td><div></div></td></tr><tr><td style="font-weight:bold;vertical-align:top;">title</td><td style="vertical-align:top;">:</td><td><div>Sispio</div></td></tr><tr><td style="font-weight:bold;vertical-align:top;">view</td><td style="vertical-align:top;">:</td><td><div>admin/modificarAdmin.html</div></td></tr></table></div>'
tRp154
sS'locals'
p155
(dp156
ssS'traceback'
p157
S'Traceback (most recent call last):\n  File "C:\\Users\\capf9\\Desktop\\University\\web2py_win\\web2py\\gluon\\restricted.py", line 227, in restricted\n    exec ccode in environment\n  File "C:\\Users\\capf9\\Desktop\\University\\web2py_win\\web2py\\applications\\SisPIO\\controllers/admin.py", line 682, in <module>\n  File "C:\\Users\\capf9\\Desktop\\University\\web2py_win\\web2py\\gluon\\globals.py", line 417, in <lambda>\n    self._caller = lambda f: f()\n  File "C:\\Users\\capf9\\Desktop\\University\\web2py_win\\web2py\\applications\\SisPIO\\controllers/admin.py", line 660, in modificarAdmin\n    usuario = db(db.usuario.ci==session.cedula).select()[0]\nAttributeError: \'Table\' object has no attribute \'ci\'\n'
p158
s.