(dp1
S'output'
p2
S"<class 'psycopg2.ProgrammingError'> no existe la relaci\xc3\xb3n \xc2\xabauth_group\xc2\xbb\nLINE 1: INSERT INTO auth_group(role,description) VALUES ('Estudiante...\n                    ^\n"
p3
sS'layer'
p4
S'C:\\Users\\Mike\\Desktop\\web2py\\applications\\SisPIO\\models\\db.py'
p5
sS'code'
p6
S'# -*- coding: utf-8 -*-\n\n# -------------------------------------------------------------------------\n# This scaffolding model makes your app work on Google App Engine too\n# File is released under public domain and you can use without limitations\n# -------------------------------------------------------------------------\n\nif request.global_settings.web2py_version < "2.14.1":\n    raise HTTP(500, "Requires web2py 2.13.3 or newer")\n\n# -------------------------------------------------------------------------\n# if SSL/HTTPS is properly configured and you want all HTTP requests to\n# be redirected to HTTPS, uncomment the line below:\n# -------------------------------------------------------------------------\n# request.requires_https()\n\n# -------------------------------------------------------------------------\n# app configuration made easy. Look inside private/appconfig.ini\n# -------------------------------------------------------------------------\nfrom gluon.contrib.appconfig import AppConfig\n\n# -------------------------------------------------------------------------\n# once in production, remove reload=True to gain full speed\n# -------------------------------------------------------------------------\nmyconf = AppConfig(reload=True)\n\nif not request.env.web2py_runtime_gae:\n    # ---------------------------------------------------------------------\n    # if NOT running on Google App Engine use SQLite or other DB\n    # ---------------------------------------------------------------------\n    db = DAL(\'postgres://SisPIO:SisPIO@localhost/SisPIO\')\nelse:\n    # ---------------------------------------------------------------------\n    # connect to Google BigTable (optional \'google:datastore://namespace\')\n    # ---------------------------------------------------------------------\n    db = DAL(\'google:datastore+ndb\')\n    # ---------------------------------------------------------------------\n    # store sessions and tickets there\n    # ---------------------------------------------------------------------\n    session.connect(request, response, db=db)\n    # ---------------------------------------------------------------------\n    # or store session in Memcache, Redis, etc.\n    # from gluon.contrib.memdb import MEMDB\n    # from google.appengine.api.memcache import Client\n    # session.connect(request, response, db = MEMDB(Client()))\n    # ---------------------------------------------------------------------\n\n# -------------------------------------------------------------------------\n# by default give a view/generic.extension to all actions from localhost\n# none otherwise. a pattern can be \'controller/function.extension\'\n# -------------------------------------------------------------------------\nresponse.generic_patterns = [\'*\'] if request.is_local else []\n# -------------------------------------------------------------------------\n# choose a style for forms\n# -------------------------------------------------------------------------\nresponse.formstyle = myconf.get(\'forms.formstyle\')  # or \'bootstrap3_stacked\' or \'bootstrap2\' or other\nresponse.form_label_separator = myconf.get(\'forms.separator\') or \'\'\n\n# -------------------------------------------------------------------------\n# (optional) optimize handling of static files\n# -------------------------------------------------------------------------\n# response.optimize_css = \'concat,minify,inline\'\n# response.optimize_js = \'concat,minify,inline\'\n\n# -------------------------------------------------------------------------\n# (optional) static assets folder versioning\n# -------------------------------------------------------------------------\n# response.static_version = \'0.0.0\'\n\n# -------------------------------------------------------------------------\n# Here is sample code if you need for\n# - email capabilities\n# - authentication (registration, login, logout, ... )\n# - authorization (role based authorization)\n# - services (xml, csv, json, xmlrpc, jsonrpc, amf, rss)\n# - old style crud actions\n# (more options discussed in gluon/tools.py)\n# -------------------------------------------------------------------------\n\nfrom gluon.tools import Auth, Service, PluginManager\n\n# host names must be a list of allowed host names (glob syntax allowed)\nauth = Auth(db, host_names=myconf.get(\'host.names\'))\nservice = Service()\nplugins = PluginManager()\n\n# -------------------------------------------------------------------------\n# create all tables needed by auth if not custom tables\n# -------------------------------------------------------------------------\nauth.settings.table_user_name = \'usuario\'\n\ndb.define_table(\n    auth.settings.table_user_name,\n    Field(\'nombre\', length=128, default=\'\'),\n    Field(\'apellido\', length=128, default=\'\'),\n    Field(\'email\', length=128, default=\'\'),\n    Field(\'username\', length=8, default=\'\', unique=True, notnull=True),  # Requerido\n    Field(\'password\', type=\'password\', length=512,            # Requerido\n          readable=False, label=\'Clave\'),\n    Field(\'registration_key\', length=512,                # Requerido\n          writable=False, readable=False, default=\'\'),\n    Field(\'reset_password_key\', length=512,              # Requerido\n          writable=False, readable=False, default=\'\'),\n    Field(\'registration_id\', length=512,                 # Requerido\n          writable=False, readable=False, default=\'\'),\n   \n    primarykey=[\'username\']\n    )\n\n## Validadores\nnuevaTablaUsuario = db[auth.settings.table_user_name] \nnuevaTablaUsuario.nombre.requires =   IS_NOT_EMPTY(error_message="Falto nombre de usuario")\nnuevaTablaUsuario.apellido.requires =   IS_NOT_EMPTY(error_message="Falta apellido de usuario")\nnuevaTablaUsuario.password.requires = [CRYPT()]\nnuevaTablaUsuario.email.requires = [IS_EMAIL(error_message=auth.messages.invalid_email)]\nnuevaTablaUsuario.username.requires = [IS_NOT_IN_DB(db, nuevaTablaUsuario.username)]\n\nauth.settings.table_user = nuevaTablaUsuario \nauth.define_tables(username = True, signature = False, migrate=\'db.usuario\')\n\nauth.settings.create_user_groups = None\n\n# -------------------------------------------------------------------------\n# configure email\n# -------------------------------------------------------------------------\nmail = auth.settings.mailer\nmail.settings.server = \'logging\' if request.is_local else myconf.get(\'smtp.server\')\nmail.settings.sender = \'proppio@usb.ve\'\nmail.settings.login = myconf.get(\'smtp.login\')\nmail.settings.tls = myconf.get(\'smtp.tls\') or False\nmail.settings.ssl = myconf.get(\'smtp.ssl\') or False\n\n# -------------------------------------------------------------------------\n# configure auth policy\n# -------------------------------------------------------------------------\nauth.settings.registration_requires_verification = False\nauth.settings.registration_requires_approval = False\nauth.settings.reset_password_requires_verification = True\n\n# -------------------------------------------------------------------------\n# Define your tables below (or better in another model file) for example\n#\n# >>> db.define_table(\'mytable\', Field(\'myfield\', \'string\'))\n#\n# Fields can be \'string\',\'text\',\'password\',\'integer\',\'double\',\'boolean\'\n#       \'date\',\'time\',\'datetime\',\'blob\',\'upload\', \'reference TABLENAME\'\n# There is an implicit \'id integer autoincrement\' field\n# Consult manual for more options, validators, etc.\n#\n# More API examples for controllers:\n#\n# >>> db.mytable.insert(myfield=\'value\')\n# >>> rows = db(db.mytable.myfield == \'value\').select(db.mytable.ALL)\n# >>> for row in rows: print row.id, row.myfield\n# -------------------------------------------------------------------------\n\n# -------------------------------------------------------------------------\n# after defining tables, uncomment below to enable auditing\n# -------------------------------------------------------------------------\n# auth.enable_record_versioning(db)\n\ndb.define_table(\n    \'liceo\',\n    Field(\'id\', type=\'integer\', unique=True, notnull=True),\n    Field(\'nombre\', type=\'string\', notnull=True),\n    Field(\'tipo\', type=\'string\', notnull=True, requires=[IS_IN_SET([\'publico\', \'subsidiado\'])]),\n    \n    primarykey=[\'id\'],\n    migrate=\'db.liceo\'\n    )\n\ndb.define_table(\n    \'estudiante\',\n    Field(\'ci\', length=8, type=\'reference usuario.username\', notnull=True, unique=True),\n    Field(\'promedio\', type=\'integer\', notnull=True),\n    Field(\'direccion\', type=\'string\', default=\'\'),\n    Field(\'fecha_nacimiento\', type=\'date\', requires=IS_EMPTY_OR(IS_DATE(format=T(\'%d/%m/%Y\'), error_message=\'Debe ser del siguiente formato: dd/mm/yyyy\'))),\n    Field(\'sexo\', type=\'string\', length=1),\n    Field(\'estatus\', type=\'string\', default=\'pre-inscrito\', requires=IS_IN_SET([\'pre-inscrito\', \'seleccionado\', \'activo\', \'inactivo\', \'finalizado\'])),\n    Field(\'cohorte\', type=\'string\', default=\'\'),\n    Field(\'ci_representante\', type=\'string\', length=8, default=\'\'),\n    Field(\'nombre_representante\', type=\'string\', default=\'\'),\n    Field(\'apellido_representante\', type=\'string\', default=\'\'),\n    Field(\'correo_representante\', type=\'string\', length=128, required=True, default=\'\', requires=IS_EMPTY_OR(IS_EMAIL(error_message=\'Debe tener un formato v\xc3\xa1lido. EJ: example@org.com\'))),\n    Field(\'direccion_representante\', type=\'string\', default=\'\'),\n    Field(\'id_liceo\', type=\'reference liceo.id\', required=True),\n\n    primarykey=[\'ci\'],\n    migrate="db.estudiante"\n    )\n\ndb.define_table(\n    \'profesor\',\n    Field(\'ci\', length=8, type=\'reference usuario.username\', notnull=True, unique=True),\n\n    primarykey=[\'ci\'],\n    migrate="db.profesor"\n    )\n\ndb.define_table(\n    \'representante_sede\',\n    Field(\'ci\', length=8, type=\'reference usuario.username\', notnull=True, unique=True),\n    Field(\'sede\', \'string\'),\n    primarykey=[\'ci\'],\n    migrate="db.representante_sede"\n    )\n\ndb.define_table(\n    \'representante_liceo\',\n    Field(\'ci\', length=8, type=\'reference usuario.username\', notnull=True, unique=True),\n    Field(\'id_liceo\', type=\'reference liceo\', required=True),\n\n    primarykey=[\'ci\'],\n    migrate="db.representante_liceo"\n    )\n\n\ndb.define_table(\n    \'materia\',\n    Field(\'id\', type=\'integer\', length=128, unique=True, notnull=True),\n    Field(\'nombre\', type=\'string\', notnull=True),\n    Field(\'ci_profesor\', type=\'reference usuario.username\', requires=[IS_IN_DB(db, db.profesor.ci)]),\n    \n    primarykey=[\'id\'],\n    migrate=\'db.materia\'\n    )\n\ndb.define_table(\n    \'cursa\',\n    Field(\'ci_estudiante\', type=\'reference usuario.username\', requires=[IS_IN_DB(db, db.estudiante.ci)]),\n    Field(\'id_materia\', type=\'reference materia.id\'),\n    Field(\'notas\', type=\'list:integer\'),\n\n    primarykey=[\'ci_estudiante\',\'id_materia\'],\n    migrate=\'db.cursa\'\n    )\n\ndb.define_table(\n    \'asistencia\',\n    Field(\'ci_estudiante\', type=\'reference usuario.username\', requires=[IS_IN_DB(db, db.estudiante.ci)]),\n    Field(\'id_materia\', type=\'reference materia.id\'),\n    Field(\'fecha_clase\', type=\'date\'),\n\n    primarykey=[\'ci_estudiante\',\'id_materia\',\'fecha_clase\'],\n    migrate=\'db.asistencia\'\n    )\n\ndb.define_table(\n    \'carrera\',\n    Field(\'id\', type=\'integer\', unique=True, notnull=True),\n    Field(\'nombre\', type=\'string\'),\n\n    primarykey=[\'id\'],\n    migrate=\'db.carrera\'\n    )\n\ndb.define_table(\n    \'exime\',\n    Field(\'ci_estudiante\', type=\'reference usuario.username\', length=8, notnull=True, requires=[IS_IN_DB(db, db.estudiante.ci)]),\n    Field(\'ci_representante_liceo\', type=\'reference usuario.username\', length=8, notnull=True, requires=[IS_IN_DB(db, db.representante_liceo.ci)]),\n    Field(\'cohorte\', type=\'string\', notnull=True),\n\n    primarykey=[\'ci_estudiante\', \'ci_representante_liceo\'],\n    migrate=\'db.exime\'\n    )\n\ndb.define_table(\n    \'periodos\',\n    Field(\'nombre\', type=\'string\'),\n    Field(\'fecha_inicio\', type=\'date\', requires=[IS_DATE(format=T(\'%d/%m/%Y\'), error_message=\'Debe ser del siguiente formato: dd/mm/yyyy\')]),\n    Field(\'fecha_fin\', type=\'date\', requires=[IS_DATE(format=T(\'%d/%m/%Y\'), error_message=\'Debe ser del siguiente formato: dd/mm/yyyy\')]),\n\n    primarykey=[\'nombre\'],\n    migrate=\'db.periodos\'\n    )\n\ndb.auth_group.requires = IS_IN_DB(db, db.auth_group.role, error_message=\'Ya existe ese grupo\')\n\n# db.define_table(\n#     \'cohorte\',\n#     Field(\'id\', type=\'string\'),\n#     Field(\'estado\', type=\'boolean\')\n    \n#     primarykey=[\'id\'],\n#     migrate=\'db.cohorte\'\n#     )\n    \n\n\n\nestudiante = auth.add_group(role=\'Estudiante\', description=\'description\')\nprofesor = auth.add_group(role=\'Profesor\', description=\'description\')\nrepresentante_liceo = auth.add_group(role=\'Representante_liceo\', description=\'description\')\nrepresentante_sede = auth.add_group(role=\'Representante_sede\', description=\'description\')\nadmin = auth.add_group(role=\'Administrador\', description=\'description\')\n\nauth.add_permission(estudiante, \'Estudiante\')\n\nauth.add_permission(profesor, \'Estudiante\')\nauth.add_permission(profesor, \'Profesor\')\n\nauth.add_permission(representante_liceo, \'Estudiante\')\nauth.add_permission(representante_liceo, \'Representante_liceo\')\n\nauth.add_permission(representante_sede, \'Estudiante\')\nauth.add_permission(representante_sede, \'Representante_sede\')\n\nauth.add_permission(admin, \'Estudiante\')\nauth.add_permission(admin, \'Representante_liceo\')\nauth.add_permission(admin, \'Profesor\')\nauth.add_permission(admin, \'Representante_sede\')\nauth.add_permission(admin, \'Administrador\')\n\n\n'
p7
sS'snapshot'
p8
(dp9
S'exception'
p10
(dp11
S'__module__'
p12
S"'psycopg2'"
p13
sS'__getslice__'
p14
S"<method-wrapper '__getslice__' of ProgrammingError object>"
p15
sS'__str__'
p16
S"<method-wrapper '__str__' of ProgrammingError object>"
p17
sS'__reduce__'
p18
S'<built-in method __reduce__ of ProgrammingError object>'
p19
sS'__dict__'
p20
S'{}'
p21
sS'__sizeof__'
p22
S'<built-in method __sizeof__ of ProgrammingError object>'
p23
sS'__weakref__'
p24
S'None'
p25
sS'__init__'
p26
S"<method-wrapper '__init__' of ProgrammingError object>"
p27
sS'__setattr__'
p28
S"<method-wrapper '__setattr__' of ProgrammingError object>"
p29
sS'__reduce_ex__'
p30
S'<built-in method __reduce_ex__ of ProgrammingError object>'
p31
sS'__new__'
p32
S'<built-in method __new__ of type object>'
p33
sS'diag'
p34
S'<psycopg2._psycopg.Diagnostics object>'
p35
sS'__format__'
p36
S'<built-in method __format__ of ProgrammingError object>'
p37
sS'__class__'
p38
S"<class 'psycopg2.ProgrammingError'>"
p39
sS'pgerror'
p40
S'"ERROR:  no existe la relaci\\xc3\\xb3n \\xc2\\xabauth_group\\xc2\\xbb\\nLI...on) VALUES (\'Estudiante...\\n                    ^\\n"'
p41
sS'__doc__'
p42
S"'Error related to database programming (SQL error, table not found etc).'"
p43
sS'__getitem__'
p44
S"<method-wrapper '__getitem__' of ProgrammingError object>"
p45
sS'__setstate__'
p46
S'<built-in method __setstate__ of ProgrammingError object>'
p47
sS'__getattribute__'
p48
S"<method-wrapper '__getattribute__' of ProgrammingError object>"
p49
sS'args'
p50
S'("no existe la relaci\\xc3\\xb3n \\xc2\\xabauth_group\\xc2\\xbb\\nLINE 1: IN...on) VALUES (\'Estudiante...\\n                    ^\\n",)'
p51
sS'__subclasshook__'
p52
S'<built-in method __subclasshook__ of type object>'
p53
sS'pgcode'
p54
S"'42P01'"
p55
sS'__unicode__'
p56
S'<built-in method __unicode__ of ProgrammingError object>'
p57
sS'cursor'
p58
S'<cursor object at 0x089122B0; closed: 0>'
p59
sS'__delattr__'
p60
S"<method-wrapper '__delattr__' of ProgrammingError object>"
p61
sS'__repr__'
p62
S"<method-wrapper '__repr__' of ProgrammingError object>"
p63
sS'__hash__'
p64
S"<method-wrapper '__hash__' of ProgrammingError object>"
p65
ssS'evalue'
p66
S"no existe la relaci\xc3\xb3n \xc2\xabauth_group\xc2\xbb\nLINE 1: INSERT INTO auth_group(role,description) VALUES ('Estudiante...\n                    ^\n"
p67
sS'request'
p68
cgluon.html
XML_unpickle
p69
(S'sy\\\x00\x00<div><table><tr><td style="font-weight:bold;vertical-align:top;">ajax</td><td style="vertical-align:top;">:</td><td><div>False</div></td></tr><tr><td style="font-weight:bold;vertical-align:top;">application</td><td style="vertical-align:top;">:</td><td><div>SisPIO</div></td></tr><tr><td style="font-weight:bold;vertical-align:top;">args</td><td style="vertical-align:top;">:</td><td><div><table></table></div></td></tr><tr><td style="font-weight:bold;vertical-align:top;">cid</td><td style="vertical-align:top;">:</td><td><div>None</div></td></tr><tr><td style="font-weight:bold;vertical-align:top;">client</td><td style="vertical-align:top;">:</td><td><div>127.0.0.1</div></td></tr><tr><td style="font-weight:bold;vertical-align:top;">controller</td><td style="vertical-align:top;">:</td><td><div>appadmin</div></td></tr><tr><td style="font-weight:bold;vertical-align:top;">cookies</td><td style="vertical-align:top;">:</td><td><div><table><tr><td style="font-weight:bold;vertical-align:top;">session_id_admin</td><td style="vertical-align:top;">:</td><td><div>127.0.0.1-bdeb6bc8-6846-4893-bce1-068533370ec8<table><tr><td style="font-weight:bold;vertical-align:top;">comment</td><td style="vertical-align:top;">:</td><td><div></div></td></tr><tr><td style="font-weight:bold;vertical-align:top;">domain</td><td style="vertical-align:top;">:</td><td><div></div></td></tr><tr><td style="font-weight:bold;vertical-align:top;">expires</td><td style="vertical-align:top;">:</td><td><div></div></td></tr><tr><td style="font-weight:bold;vertical-align:top;">httponly</td><td style="vertical-align:top;">:</td><td><div></div></td></tr><tr><td style="font-weight:bold;vertical-align:top;">max-age</td><td style="vertical-align:top;">:</td><td><div></div></td></tr><tr><td style="font-weight:bold;vertical-align:top;">path</td><td style="vertical-align:top;">:</td><td><div></div></td></tr><tr><td style="font-weight:bold;vertical-align:top;">secure</td><td style="vertical-align:top;">:</td><td><div></div></td></tr><tr><td style="font-weight:bold;vertical-align:top;">version</td><td style="vertical-align:top;">:</td><td><div></div></td></tr></table></div></td></tr><tr><td style="font-weight:bold;vertical-align:top;">session_id_sispio</td><td style="vertical-align:top;">:</td><td><div>127.0.0.1-b4f9e627-37f1-4448-8fee-52f067258fdf<table><tr><td style="font-weight:bold;vertical-align:top;">comment</td><td style="vertical-align:top;">:</td><td><div></div></td></tr><tr><td style="font-weight:bold;vertical-align:top;">domain</td><td style="vertical-align:top;">:</td><td><div></div></td></tr><tr><td style="font-weight:bold;vertical-align:top;">expires</td><td style="vertical-align:top;">:</td><td><div></div></td></tr><tr><td style="font-weight:bold;vertical-align:top;">httponly</td><td style="vertical-align:top;">:</td><td><div></div></td></tr><tr><td style="font-weight:bold;vertical-align:top;">max-age</td><td style="vertical-align:top;">:</td><td><div></div></td></tr><tr><td style="font-weight:bold;vertical-align:top;">path</td><td style="vertical-align:top;">:</td><td><div></div></td></tr><tr><td style="font-weight:bold;vertical-align:top;">secure</td><td style="vertical-align:top;">:</td><td><div></div></td></tr><tr><td style="font-weight:bold;vertical-align:top;">version</td><td style="vertical-align:top;">:</td><td><div></div></td></tr></table></div></td></tr><tr><td style="font-weight:bold;vertical-align:top;">session_id_welcome</td><td style="vertical-align:top;">:</td><td><div>127.0.0.1-1e594ad2-481e-4fba-97a9-c77ef329f69b<table><tr><td style="font-weight:bold;vertical-align:top;">comment</td><td style="vertical-align:top;">:</td><td><div></div></td></tr><tr><td style="font-weight:bold;vertical-align:top;">domain</td><td style="vertical-align:top;">:</td><td><div></div></td></tr><tr><td style="font-weight:bold;vertical-align:top;">expires</td><td style="vertical-align:top;">:</td><td><div></div></td></tr><tr><td style="font-weight:bold;vertical-align:top;">httponly</td><td style="vertical-align:top;">:</td><td><div></div></td></tr><tr><td style="font-weight:bold;vertical-align:top;">max-age</td><td style="vertical-align:top;">:</td><td><div></div></td></tr><tr><td style="font-weight:bold;vertical-align:top;">path</td><td style="vertical-align:top;">:</td><td><div></div></td></tr><tr><td style="font-weight:bold;vertical-align:top;">secure</td><td style="vertical-align:top;">:</td><td><div></div></td></tr><tr><td style="font-weight:bold;vertical-align:top;">version</td><td style="vertical-align:top;">:</td><td><div></div></td></tr></table></div></td></tr></table></div></td></tr><tr><td style="font-weight:bold;vertical-align:top;">env</td><td style="vertical-align:top;">:</td><td><div><table><tr><td style="font-weight:bold;vertical-align:top;">HTTP_ACCEPT</td><td style="vertical-align:top;">:</td><td><div>text/html,application/xhtml+xml,application/xml;q=0.9,image/webp,image/apng,*/*;q=0.8</div></td></tr><tr><td style="font-weight:bold;vertical-align:top;">HTTP_ACCEPT_ENCODING</td><td style="vertical-align:top;">:</td><td><div>gzip, deflate, br</div></td></tr><tr><td style="font-weight:bold;vertical-align:top;">HTTP_ACCEPT_LANGUAGE</td><td style="vertical-align:top;">:</td><td><div>es-ES,es;q=0.8,en;q=0.6</div></td></tr><tr><td style="font-weight:bold;vertical-align:top;">HTTP_CONNECTION</td><td style="vertical-align:top;">:</td><td><div>keep-alive</div></td></tr><tr><td style="font-weight:bold;vertical-align:top;">HTTP_COOKIE</td><td style="vertical-align:top;">:</td><td><div>session_id_welcome=127.0.0.1-1e594ad2-481e-4fba-97a9-c77ef329f69b; session_id_admin=127.0.0.1-bdeb6bc8-6846-4893-bce1-068533370ec8; session_id_sispio=127.0.0.1-b4f9e627-37f1-4448-8fee-52f067258fdf</div></td></tr><tr><td style="font-weight:bold;vertical-align:top;">HTTP_HOST</td><td style="vertical-align:top;">:</td><td><div>127.0.0.1:8000</div></td></tr><tr><td style="font-weight:bold;vertical-align:top;">HTTP_UPGRADE_INSECURE_REQUESTS</td><td style="vertical-align:top;">:</td><td><div>1</div></td></tr><tr><td style="font-weight:bold;vertical-align:top;">HTTP_USER_AGENT</td><td style="vertical-align:top;">:</td><td><div>Mozilla/5.0 (Windows NT 10.0; Win64; x64) AppleWebKit/537.36 (KHTML, like Gecko) Chrome/61.0.3163.100 Safari/537.36</div></td></tr><tr><td style="font-weight:bold;vertical-align:top;">PATH_INFO</td><td style="vertical-align:top;">:</td><td><div>/SisPIO/appadmin/index</div></td></tr><tr><td style="font-weight:bold;vertical-align:top;">QUERY_STRING</td><td style="vertical-align:top;">:</td><td><div></div></td></tr><tr><td style="font-weight:bold;vertical-align:top;">REMOTE_ADDR</td><td style="vertical-align:top;">:</td><td><div>127.0.0.1</div></td></tr><tr><td style="font-weight:bold;vertical-align:top;">REMOTE_PORT</td><td style="vertical-align:top;">:</td><td><div>56368</div></td></tr><tr><td style="font-weight:bold;vertical-align:top;">REQUEST_METHOD</td><td style="vertical-align:top;">:</td><td><div>GET</div></td></tr><tr><td style="font-weight:bold;vertical-align:top;">SCRIPT_NAME</td><td style="vertical-align:top;">:</td><td><div></div></td></tr><tr><td style="font-weight:bold;vertical-align:top;">SERVER_NAME</td><td style="vertical-align:top;">:</td><td><div>Miguel</div></td></tr><tr><td style="font-weight:bold;vertical-align:top;">SERVER_PORT</td><td style="vertical-align:top;">:</td><td><div>8000</div></td></tr><tr><td style="font-weight:bold;vertical-align:top;">SERVER_PROTOCOL</td><td style="vertical-align:top;">:</td><td><div>HTTP/1.1</div></td></tr><tr><td style="font-weight:bold;vertical-align:top;">SERVER_SOFTWARE</td><td style="vertical-align:top;">:</td><td><div>Rocket 1.2.6</div></td></tr><tr><td style="font-weight:bold;vertical-align:top;">app_folders</td><td style="vertical-align:top;">:</td><td><div>set([&#x27;C:\\\\Users\\\\Mike\\\\Desktop\\\\web2py\\\\applications\\\\admin\\\\&#x27;, &#x27;C:\\\\Users\\\\Mike\\\\Desktop\\\\web2py\\\\applications\\\\welcome\\\\&#x27;, &#x27;C:\\\\Users\\\\Mike\\\\Desktop\\\\web2py\\\\applications\\\\SisPIO\\\\&#x27;])</div></td></tr><tr><td style="font-weight:bold;vertical-align:top;">applications_parent</td><td style="vertical-align:top;">:</td><td><div>C:\\Users\\Mike\\Desktop\\web2py</div></td></tr><tr><td style="font-weight:bold;vertical-align:top;">cmd_args</td><td style="vertical-align:top;">:</td><td><div><table></table></div></td></tr><tr><td style="font-weight:bold;vertical-align:top;">cmd_options</td><td style="vertical-align:top;">:</td><td><div>&lt;Values at 0x2e34da0: {&#x27;verbose&#x27;: False, &#x27;ip&#x27;: &#x27;127.0.0.1&#x27;, &#x27;debuglevel&#x27;: 30, &#x27;with_scheduler&#x27;: False, &#x27;shutdown_timeout&#x27;: 5, &#x27;taskbar&#x27;: False, &#x27;with_coverage&#x27;: False, &#x27;pid_filename&#x27;: &#x27;httpserver.pid&#x27;, &#x27;maxthreads&#x27;: None, &#x27;softcron&#x27;: False, &#x27;server_name&#x27;: &#x27;Miguel&#x27;, &#x27;bpython&#x27;: False, &#x27;nogui&#x27;: False, &#x27;port&#x27;: 8000, &#x27;print_errors&#x27;: False, &#x27;extcron&#x27;: False, &#x27;runcron&#x27;: False, &#x27;run_system_tests&#x27;: False, &#x27;test&#x27;: None, &#x27;folder&#x27;: &#x27;C:\\\\Users\\\\Mike\\\\Desktop\\\\web2py&#x27;, &#x27;config&#x27;: &#x27;&#x27;, &#x27;minthreads&#x27;: None, &#x27;shell&#x27;: None, &#x27;run&#x27;: &#x27;&#x27;, &#x27;log_filename&#x27;: &#x27;httpserver.log&#x27;, &#x27;profiler_dir&#x27;: None, &#x27;args&#x27;: [&#x27;&#x27;], &#x27;socket_timeout&#x27;: 5, &#x27;ssl_ca_certificate&#x27;: None, &#x27;scheduler&#x27;: None, &#x27;interfaces&#x27;: None, &#x27;ssl_private_key&#x27;: &#x27;&#x27;, &#x27;gae&#x27;: None, &#x27;password&#x27;: &#x27;******&#x27;, &#x27;request_queue_size&#x27;: 5, &#x27;ssl_certificate&#x27;: &#x27;&#x27;, &#x27;cronjob&#x27;: False, &#x27;numthreads&#x27;: None, &#x27;quiet&#x27;: False, &#x27;import_models&#x27;: False, &#x27;timeout&#x27;: 10, &#x27;plain&#x27;: False, &#x27;nobanner&#x27;: False}&gt;</div></td></tr><tr><td style="font-weight:bold;vertical-align:top;">db_sessions</td><td style="vertical-align:top;">:</td><td><div>set([])</div></td></tr><tr><td style="font-weight:bold;vertical-align:top;">debugging</td><td style="vertical-align:top;">:</td><td><div>True</div></td></tr><tr><td style="font-weight:bold;vertical-align:top;">gluon_parent</td><td style="vertical-align:top;">:</td><td><div>C:\\Users\\Mike\\Desktop\\web2py</div></td></tr><tr><td style="font-weight:bold;vertical-align:top;">http_accept</td><td style="vertical-align:top;">:</td><td><div>text/html,application/xhtml+xml,application/xml;q=0.9,image/webp,image/apng,*/*;q=0.8</div></td></tr><tr><td style="font-weight:bold;vertical-align:top;">http_accept_encoding</td><td style="vertical-align:top;">:</td><td><div>gzip, deflate, br</div></td></tr><tr><td style="font-weight:bold;vertical-align:top;">http_accept_language</td><td style="vertical-align:top;">:</td><td><div>es-ES,es;q=0.8,en;q=0.6</div></td></tr><tr><td style="font-weight:bold;vertical-align:top;">http_connection</td><td style="vertical-align:top;">:</td><td><div>keep-alive</div></td></tr><tr><td style="font-weight:bold;vertical-align:top;">http_cookie</td><td style="vertical-align:top;">:</td><td><div>session_id_welcome=127.0.0.1-1e594ad2-481e-4fba-97a9-c77ef329f69b; session_id_admin=127.0.0.1-bdeb6bc8-6846-4893-bce1-068533370ec8; session_id_sispio=127.0.0.1-b4f9e627-37f1-4448-8fee-52f067258fdf</div></td></tr><tr><td style="font-weight:bold;vertical-align:top;">http_host</td><td style="vertical-align:top;">:</td><td><div>127.0.0.1:8000</div></td></tr><tr><td style="font-weight:bold;vertical-align:top;">http_upgrade_insecure_requests</td><td style="vertical-align:top;">:</td><td><div>1</div></td></tr><tr><td style="font-weight:bold;vertical-align:top;">http_user_agent</td><td style="vertical-align:top;">:</td><td><div>Mozilla/5.0 (Windows NT 10.0; Win64; x64) AppleWebKit/537.36 (KHTML, like Gecko) Chrome/61.0.3163.100 Safari/537.36</div></td></tr><tr><td style="font-weight:bold;vertical-align:top;">is_jython</td><td style="vertical-align:top;">:</td><td><div>False</div></td></tr><tr><td style="font-weight:bold;vertical-align:top;">is_pypy</td><td style="vertical-align:top;">:</td><td><div>False</div></td></tr><tr><td style="font-weight:bold;vertical-align:top;">is_source</td><td style="vertical-align:top;">:</td><td><div>False</div></td></tr><tr><td style="font-weight:bold;vertical-align:top;">local_hosts</td><td style="vertical-align:top;">:</td><td><div><table><tr><td><div>fe80::1168:f4db:1c26:2537%18</div></td></tr><tr><td><div>fe80::1488:183f:41db:aca6%11</div></td></tr><tr><td><div>2001:0:9d38:6ab8:1488:183f:41db:aca6</div></td></tr><tr><td><div>::ffff:127.0.0.1</div></td></tr><tr><td><div>::1</div></td></tr><tr><td><div>192.168.1.105</div></td></tr><tr><td><div>Miguel</div></td></tr><tr><td><div>fe80::dd7b:201a:ab4d:8eaf%13</div></td></tr><tr><td><div>127.0.0.1</div></td></tr><tr><td><div>192.168.56.1</div></td></tr></table></div></td></tr><tr><td style="font-weight:bold;vertical-align:top;">path_info</td><td style="vertical-align:top;">:</td><td><div>/SisPIO/appadmin/index</div></td></tr><tr><td style="font-weight:bold;vertical-align:top;">query_string</td><td style="vertical-align:top;">:</td><td><div></div></td></tr><tr><td style="font-weight:bold;vertical-align:top;">remote_addr</td><td style="vertical-align:top;">:</td><td><div>127.0.0.1</div></td></tr><tr><td style="font-weight:bold;vertical-align:top;">remote_port</td><td style="vertical-align:top;">:</td><td><div>56368</div></td></tr><tr><td style="font-weight:bold;vertical-align:top;">request_method</td><td style="vertical-align:top;">:</td><td><div>GET</div></td></tr><tr><td style="font-weight:bold;vertical-align:top;">request_uri</td><td style="vertical-align:top;">:</td><td><div>/SisPIO/appadmin/index</div></td></tr><tr><td style="font-weight:bold;vertical-align:top;">script_name</td><td style="vertical-align:top;">:</td><td><div></div></td></tr><tr><td style="font-weight:bold;vertical-align:top;">server_name</td><td style="vertical-align:top;">:</td><td><div>Miguel</div></td></tr><tr><td style="font-weight:bold;vertical-align:top;">server_port</td><td style="vertical-align:top;">:</td><td><div>8000</div></td></tr><tr><td style="font-weight:bold;vertical-align:top;">server_protocol</td><td style="vertical-align:top;">:</td><td><div>HTTP/1.1</div></td></tr><tr><td style="font-weight:bold;vertical-align:top;">server_software</td><td style="vertical-align:top;">:</td><td><div>Rocket 1.2.6</div></td></tr><tr><td style="font-weight:bold;vertical-align:top;">web2py_path</td><td style="vertical-align:top;">:</td><td><div>C:\\Users\\Mike\\Desktop\\web2py</div></td></tr><tr><td style="font-weight:bold;vertical-align:top;">web2py_version</td><td style="vertical-align:top;">:</td><td><div>2.14.6-stable+timestamp.2016.05.10.00.21.47</div></td></tr><tr><td style="font-weight:bold;vertical-align:top;">wsgi.errors</td><td style="vertical-align:top;">:</td><td><div>&lt;open file &#x27;&lt;stderr&gt;&#x27;, mode &#x27;w&#x27; at 0x021BD0D0&gt;</div></td></tr><tr><td style="font-weight:bold;vertical-align:top;">wsgi.file_wrapper</td><td style="vertical-align:top;">:</td><td><div>&lt;class wsgiref.util.FileWrapper at 0x03244308&gt;</div></td></tr><tr><td style="font-weight:bold;vertical-align:top;">wsgi.input</td><td style="vertical-align:top;">:</td><td><div>&lt;socket._fileobject object at 0x08F31830&gt;</div></td></tr><tr><td style="font-weight:bold;vertical-align:top;">wsgi.multiprocess</td><td style="vertical-align:top;">:</td><td><div>False</div></td></tr><tr><td style="font-weight:bold;vertical-align:top;">wsgi.multithread</td><td style="vertical-align:top;">:</td><td><div>True</div></td></tr><tr><td style="font-weight:bold;vertical-align:top;">wsgi.run_once</td><td style="vertical-align:top;">:</td><td><div>False</div></td></tr><tr><td style="font-weight:bold;vertical-align:top;">wsgi.url_scheme</td><td style="vertical-align:top;">:</td><td><div>http</div></td></tr><tr><td style="font-weight:bold;vertical-align:top;">wsgi.version</td><td style="vertical-align:top;">:</td><td><div><table><tr><td><div>1</div></td></tr><tr><td><div>0</div></td></tr></table></div></td></tr><tr><td style="font-weight:bold;vertical-align:top;">wsgi_errors</td><td style="vertical-align:top;">:</td><td><div>&lt;open file &#x27;&lt;stderr&gt;&#x27;, mode &#x27;w&#x27; at 0x021BD0D0&gt;</div></td></tr><tr><td style="font-weight:bold;vertical-align:top;">wsgi_file_wrapper</td><td style="vertical-align:top;">:</td><td><div>&lt;class wsgiref.util.FileWrapper at 0x03244308&gt;</div></td></tr><tr><td style="font-weight:bold;vertical-align:top;">wsgi_input</td><td style="vertical-align:top;">:</td><td><div>&lt;socket._fileobject object at 0x08F31830&gt;</div></td></tr><tr><td style="font-weight:bold;vertical-align:top;">wsgi_multiprocess</td><td style="vertical-align:top;">:</td><td><div>False</div></td></tr><tr><td style="font-weight:bold;vertical-align:top;">wsgi_multithread</td><td style="vertical-align:top;">:</td><td><div>True</div></td></tr><tr><td style="font-weight:bold;vertical-align:top;">wsgi_run_once</td><td style="vertical-align:top;">:</td><td><div>False</div></td></tr><tr><td style="font-weight:bold;vertical-align:top;">wsgi_url_scheme</td><td style="vertical-align:top;">:</td><td><div>http</div></td></tr><tr><td style="font-weight:bold;vertical-align:top;">wsgi_version</td><td style="vertical-align:top;">:</td><td><div><table><tr><td><div>1</div></td></tr><tr><td><div>0</div></td></tr></table></div></td></tr></table></div></td></tr><tr><td style="font-weight:bold;vertical-align:top;">extension</td><td style="vertical-align:top;">:</td><td><div>html</div></td></tr><tr><td style="font-weight:bold;vertical-align:top;">folder</td><td style="vertical-align:top;">:</td><td><div>C:\\Users\\Mike\\Desktop\\web2py\\applications\\SisPIO\\</div></td></tr><tr><td style="font-weight:bold;vertical-align:top;">function</td><td style="vertical-align:top;">:</td><td><div>index</div></td></tr><tr><td style="font-weight:bold;vertical-align:top;">global_settings</td><td style="vertical-align:top;">:</td><td><div><table><tr><td style="font-weight:bold;vertical-align:top;">app_folders</td><td style="vertical-align:top;">:</td><td><div>set([&#x27;C:\\\\Users\\\\Mike\\\\Desktop\\\\web2py\\\\applications\\\\admin\\\\&#x27;, &#x27;C:\\\\Users\\\\Mike\\\\Desktop\\\\web2py\\\\applications\\\\welcome\\\\&#x27;, &#x27;C:\\\\Users\\\\Mike\\\\Desktop\\\\web2py\\\\applications\\\\SisPIO\\\\&#x27;])</div></td></tr><tr><td style="font-weight:bold;vertical-align:top;">applications_parent</td><td style="vertical-align:top;">:</td><td><div>C:\\Users\\Mike\\Desktop\\web2py</div></td></tr><tr><td style="font-weight:bold;vertical-align:top;">cmd_args</td><td style="vertical-align:top;">:</td><td><div><table></table></div></td></tr><tr><td style="font-weight:bold;vertical-align:top;">cmd_options</td><td style="vertical-align:top;">:</td><td><div>&lt;Values at 0x2e34da0: {&#x27;verbose&#x27;: False, &#x27;ip&#x27;: &#x27;127.0.0.1&#x27;, &#x27;debuglevel&#x27;: 30, &#x27;with_scheduler&#x27;: False, &#x27;shutdown_timeout&#x27;: 5, &#x27;taskbar&#x27;: False, &#x27;with_coverage&#x27;: False, &#x27;pid_filename&#x27;: &#x27;httpserver.pid&#x27;, &#x27;maxthreads&#x27;: None, &#x27;softcron&#x27;: False, &#x27;server_name&#x27;: &#x27;Miguel&#x27;, &#x27;bpython&#x27;: False, &#x27;nogui&#x27;: False, &#x27;port&#x27;: 8000, &#x27;print_errors&#x27;: False, &#x27;extcron&#x27;: False, &#x27;runcron&#x27;: False, &#x27;run_system_tests&#x27;: False, &#x27;test&#x27;: None, &#x27;folder&#x27;: &#x27;C:\\\\Users\\\\Mike\\\\Desktop\\\\web2py&#x27;, &#x27;config&#x27;: &#x27;&#x27;, &#x27;minthreads&#x27;: None, &#x27;shell&#x27;: None, &#x27;run&#x27;: &#x27;&#x27;, &#x27;log_filename&#x27;: &#x27;httpserver.log&#x27;, &#x27;profiler_dir&#x27;: None, &#x27;args&#x27;: [&#x27;&#x27;], &#x27;socket_timeout&#x27;: 5, &#x27;ssl_ca_certificate&#x27;: None, &#x27;scheduler&#x27;: None, &#x27;interfaces&#x27;: None, &#x27;ssl_private_key&#x27;: &#x27;&#x27;, &#x27;gae&#x27;: None, &#x27;password&#x27;: &#x27;******&#x27;, &#x27;request_queue_size&#x27;: 5, &#x27;ssl_certificate&#x27;: &#x27;&#x27;, &#x27;cronjob&#x27;: False, &#x27;numthreads&#x27;: None, &#x27;quiet&#x27;: False, &#x27;import_models&#x27;: False, &#x27;timeout&#x27;: 10, &#x27;plain&#x27;: False, &#x27;nobanner&#x27;: False}&gt;</div></td></tr><tr><td style="font-weight:bold;vertical-align:top;">db_sessions</td><td style="vertical-align:top;">:</td><td><div>set([])</div></td></tr><tr><td style="font-weight:bold;vertical-align:top;">debugging</td><td style="vertical-align:top;">:</td><td><div>True</div></td></tr><tr><td style="font-weight:bold;vertical-align:top;">gluon_parent</td><td style="vertical-align:top;">:</td><td><div>C:\\Users\\Mike\\Desktop\\web2py</div></td></tr><tr><td style="font-weight:bold;vertical-align:top;">is_jython</td><td style="vertical-align:top;">:</td><td><div>False</div></td></tr><tr><td style="font-weight:bold;vertical-align:top;">is_pypy</td><td style="vertical-align:top;">:</td><td><div>False</div></td></tr><tr><td style="font-weight:bold;vertical-align:top;">is_source</td><td style="vertical-align:top;">:</td><td><div>False</div></td></tr><tr><td style="font-weight:bold;vertical-align:top;">local_hosts</td><td style="vertical-align:top;">:</td><td><div><table><tr><td><div>fe80::1168:f4db:1c26:2537%18</div></td></tr><tr><td><div>fe80::1488:183f:41db:aca6%11</div></td></tr><tr><td><div>2001:0:9d38:6ab8:1488:183f:41db:aca6</div></td></tr><tr><td><div>::ffff:127.0.0.1</div></td></tr><tr><td><div>::1</div></td></tr><tr><td><div>192.168.1.105</div></td></tr><tr><td><div>Miguel</div></td></tr><tr><td><div>fe80::dd7b:201a:ab4d:8eaf%13</div></td></tr><tr><td><div>127.0.0.1</div></td></tr><tr><td><div>192.168.56.1</div></td></tr></table></div></td></tr><tr><td style="font-weight:bold;vertical-align:top;">web2py_version</td><td style="vertical-align:top;">:</td><td><div>2.14.6-stable+timestamp.2016.05.10.00.21.47</div></td></tr></table></div></td></tr><tr><td style="font-weight:bold;vertical-align:top;">is_https</td><td style="vertical-align:top;">:</td><td><div>False</div></td></tr><tr><td style="font-weight:bold;vertical-align:top;">is_local</td><td style="vertical-align:top;">:</td><td><div>True</div></td></tr><tr><td style="font-weight:bold;vertical-align:top;">is_restful</td><td style="vertical-align:top;">:</td><td><div>False</div></td></tr><tr><td style="font-weight:bold;vertical-align:top;">is_scheduler</td><td style="vertical-align:top;">:</td><td><div>False</div></td></tr><tr><td style="font-weight:bold;vertical-align:top;">is_shell</td><td style="vertical-align:top;">:</td><td><div>False</div></td></tr><tr><td style="font-weight:bold;vertical-align:top;">now</td><td style="vertical-align:top;">:</td><td><div>datetime.datetime(2017, 10, 9, 22, 52, 25, 951000)</div></td></tr><tr><td style="font-weight:bold;vertical-align:top;">raw_args</td><td style="vertical-align:top;">:</td><td><div></div></td></tr><tr><td style="font-weight:bold;vertical-align:top;">raw_extension</td><td style="vertical-align:top;">:</td><td><div>None</div></td></tr><tr><td style="font-weight:bold;vertical-align:top;">url</td><td style="vertical-align:top;">:</td><td><div>/SisPIO/appadmin/index</div></td></tr><tr><td style="font-weight:bold;vertical-align:top;">utcnow</td><td style="vertical-align:top;">:</td><td><div>datetime.datetime(2017, 10, 10, 2, 52, 25, 951000)</div></td></tr><tr><td style="font-weight:bold;vertical-align:top;">wsgi</td><td style="vertical-align:top;">:</td><td><div>&lt;gluon.main.LazyWSGI object at 0x09980C50&gt;</div></td></tr></table></div>'
tRp70
sS'frames'
p71
(lp72
(dp73
S'file'
p74
S'C:\\Users\\Mike\\Desktop\\web2py\\gluon\\restricted.py'
p75
sS'dump'
p76
(dp77
S'environment'
p78
S"{'A': <class 'gluon.html.A'>, 'ANY_OF': <class 'gluon.validators.ANY_OF'>, 'ASSIGNJS': <function ASSIGNJS>, 'AppConfig': <function AppConfig>, 'Auth': <class 'gluon.tools.Auth'>, 'B': <class 'gluon.html.B'>, 'BEAUTIFY': <class 'gluon.html.BEAUTIFY'>, 'BODY': <class 'gluon.html.BODY'>, 'BR': <class 'gluon.html.BR'>, 'BUTTON': <class 'gluon.html.BUTTON'>, ...}"
p79
sS'ccode'
p80
S'<code object <module> at 09272DE8, file "C:\\User...web2py\\applications\\SisPIO\\models\\db.py", line 8>'
p81
ssS'lnum'
p82
I227
sS'lines'
p83
(dp84
I224
S'            ccode = code'
p85
sI225
S'        else:'
p86
sI226
S'            ccode = compile2(code, layer)'
p87
sI227
S'        exec ccode in environment'
p88
sI228
S'    except HTTP:'
p89
sI229
S'        raise'
p90
sI230
S'    except RestrictedError:'
p91
sI231
S'        # do not encapsulate (obfuscate) the original RestrictedError'
p92
sI222
S'    try:'
p93
sI223
S'        if isinstance(code, types.CodeType):'
p94
ssS'call'
p95
S'(code="# -*- coding: utf-8 -*-\\n\\n# ---------------------...\')\\nauth.add_permission(admin, \'Administrador\')\\n\\n\\n", environment={\'A\': <class \'gluon.html.A\'>, \'ANY_OF\': <class \'gluon.validators.ANY_OF\'>, \'ASSIGNJS\': <function ASSIGNJS>, \'AppConfig\': <function AppConfig>, \'Auth\': <class \'gluon.tools.Auth\'>, \'B\': <class \'gluon.html.B\'>, \'BEAUTIFY\': <class \'gluon.html.BEAUTIFY\'>, \'BODY\': <class \'gluon.html.BODY\'>, \'BR\': <class \'gluon.html.BR\'>, \'BUTTON\': <class \'gluon.html.BUTTON\'>, ...}, layer=r\'C:\\Users\\Mike\\Desktop\\web2py\\applications\\SisPIO\\models\\db.py\')'
p96
sS'func'
p97
S'restricted'
p98
sa(dp99
g74
S'C:\\Users\\Mike\\Desktop\\web2py\\applications\\SisPIO\\models\\db.py'
p100
sg76
(dp101
S'auth.add_group'
p102
S'<bound method Auth.add_group of <gluon.tools.Auth object>>'
p103
sS'role'
p104
S'undefined'
p105
sS'auth'
p106
S'<gluon.tools.Auth object>'
p107
sS'estudiante'
p108
g105
sS'description'
p109
g105
ssg82
I291
sg83
(dp110
I288
S''
sI289
S''
sI290
S''
sI291
S"estudiante = auth.add_group(role='Estudiante', description='description')"
p111
sI292
S"profesor = auth.add_group(role='Profesor', description='description')"
p112
sI293
S"representante_liceo = auth.add_group(role='Representante_liceo', description='description')"
p113
sI294
S"representante_sede = auth.add_group(role='Representante_sede', description='description')"
p114
sI295
S"admin = auth.add_group(role='Administrador', description='description')"
p115
sI286
S'#     )'
p116
sI287
S''
ssg95
S'()'
p117
sg97
S'<module>'
p118
sa(dp119
g74
S'C:\\Users\\Mike\\Desktop\\web2py\\gluon\\tools.py'
p120
sg76
(dp121
S'description'
p122
S"'description'"
p123
sS'self'
p124
S'<gluon.tools.Auth object>'
p125
sS'role'
p126
S"'Estudiante'"
p127
sS'group_id'
p128
g105
sS'self.table_group'
p129
S'<bound method Auth.table_group of <gluon.tools.Auth object>>'
p130
sS').insert'
p131
g105
ssg82
I4312
sg83
(dp132
I4307
S''
sI4308
S"    def add_group(self, role, description=''):"
p133
sI4309
S'        """'
p134
sI4310
S'        Creates a group associated to a role'
p135
sI4311
S'        """'
p136
sI4312
S'        group_id = self.table_group().insert(role=role, description=description)'
p137
sI4313
S"        self.log_event(self.messages['add_group_log'], dict(group_id=group_id, role=role))"
p138
sI4314
S'        return group_id'
p139
sI4315
S''
sI4316
S'    def del_group(self, group_id):'
p140
ssg95
S"(self=<gluon.tools.Auth object>, role='Estudiante', description='description')"
p141
sg97
S'add_group'
p142
sa(dp143
g74
S'C:\\Users\\Mike\\Desktop\\web2py\\gluon\\packages\\dal\\pydal\\objects.py'
p144
sg76
(dp145
S'self._listify'
p146
S'<bound method Table._listify of <Table auth_group (id, role, description)>>'
p147
sS'fields'
p148
S"{'description': 'description', 'role': 'Estudiante'}"
p149
sS'self'
p150
S'<Table auth_group (id, role, description)>'
p151
sS'ret'
p152
g105
sS'self._db._adapter'
p153
S'<pydal.adapters.postgres.PostgreSQLAdapter object>'
p154
sS'self._db._adapter.insert'
p155
S'<bound method PostgreSQLAdapter.insert of <pydal.adapters.postgres.PostgreSQLAdapter object>>'
p156
sS'self._db'
p157
S'<DAL uri="postgres:******@localhost/SisPIO">'
p158
ssg82
I726
sg83
(dp159
I721
S'    def insert(self, **fields):'
p160
sI722
S'        fields = self._defaults(fields)'
p161
sI723
S'        self._attempt_upload(fields)'
p162
sI724
S'        if any(f(fields) for f in self._before_insert):'
p163
sI725
S'            return 0'
p164
sI726
S'        ret = self._db._adapter.insert(self, self._listify(fields))'
p165
sI727
S'        if ret and self._after_insert:'
p166
sI728
S'            fields = Row(fields)'
p167
sI729
S'            [f(fields, ret) for f in self._after_insert]'
p168
sI730
S'        return ret'
p169
ssg95
S"(self=<Table auth_group (id, role, description)>, **fields={'description': 'description', 'role': 'Estudiante'})"
p170
sg97
S'insert'
p171
sa(dp172
g74
S'C:\\Users\\Mike\\Desktop\\web2py\\gluon\\packages\\dal\\pydal\\adapters\\base.py'
p173
sg76
(dp174
S'e'
S'ProgrammingError("no existe la relaci\\xc3\\xb3n \\...ALUES (\'Estudiante...\\n                    ^\\n",)'
p175
ssg82
I746
sg83
(dp176
I741
S'            self.execute(query)'
p177
sI742
S'        except Exception:'
p178
sI743
S'            e = sys.exc_info()[1]'
p179
sI744
S"            if hasattr(table,'_on_insert_error'):"
p180
sI745
S'                return table._on_insert_error(table,fields,e)'
p181
sI746
S'            raise e'
p182
sI747
S"        if hasattr(table, '_primarykey'):"
p183
sI748
S'            mydict = dict([(k[0].name, k[1]) for k in fields if k[0].name in table._primarykey])'
p184
sI749
S'            if mydict != {}:'
p185
sI750
S'                return mydict'
p186
ssg95
S"(self=<pydal.adapters.postgres.PostgreSQLAdapter object>, table=<Table auth_group (id, role, description)>, fields=[(<pydal.objects.Field object>, 'Estudiante'), (<pydal.objects.Field object>, 'description')])"
p187
sg97
g171
sasS'pyver'
p188
S'Python 2.7.9: C:\\Users\\Mike\\Desktop\\web2py\\web2py.exe (prefix: )'
p189
sS'session'
p190
g69
(S's;\x01\x00\x00<div><table><tr><td style="font-weight:bold;vertical-align:top;">last_orderby</td><td style="vertical-align:top;">:</td><td><div>None</div></td></tr><tr><td style="font-weight:bold;vertical-align:top;">last_query</td><td style="vertical-align:top;">:</td><td><div>db.auth_group.id&gt;0</div></td></tr></table></div>'
tRp191
sS'etype'
p192
S"<class 'psycopg2.ProgrammingError'>"
p193
sS'date'
p194
S'Mon Oct 09 22:52:26 2017'
p195
sS'response'
p196
g69
(S'su\x17\x00\x00<div><table><tr><td style="font-weight:bold;vertical-align:top;">body</td><td style="vertical-align:top;">:</td><td><div>&lt;cStringIO.StringO object at 0x09980260&gt;</div></td></tr><tr><td style="font-weight:bold;vertical-align:top;">cookies</td><td style="vertical-align:top;">:</td><td><div><table><tr><td style="font-weight:bold;vertical-align:top;">session_id_sispio</td><td style="vertical-align:top;">:</td><td><div>127.0.0.1-b4f9e627-37f1-4448-8fee-52f067258fdf<table><tr><td style="font-weight:bold;vertical-align:top;">comment</td><td style="vertical-align:top;">:</td><td><div></div></td></tr><tr><td style="font-weight:bold;vertical-align:top;">domain</td><td style="vertical-align:top;">:</td><td><div></div></td></tr><tr><td style="font-weight:bold;vertical-align:top;">expires</td><td style="vertical-align:top;">:</td><td><div></div></td></tr><tr><td style="font-weight:bold;vertical-align:top;">httponly</td><td style="vertical-align:top;">:</td><td><div></div></td></tr><tr><td style="font-weight:bold;vertical-align:top;">max-age</td><td style="vertical-align:top;">:</td><td><div></div></td></tr><tr><td style="font-weight:bold;vertical-align:top;">path</td><td style="vertical-align:top;">:</td><td><div>/</div></td></tr><tr><td style="font-weight:bold;vertical-align:top;">secure</td><td style="vertical-align:top;">:</td><td><div></div></td></tr><tr><td style="font-weight:bold;vertical-align:top;">version</td><td style="vertical-align:top;">:</td><td><div></div></td></tr></table></div></td></tr></table></div></td></tr><tr><td style="font-weight:bold;vertical-align:top;">delimiters</td><td style="vertical-align:top;">:</td><td><div><table><tr><td><div>{{</div></td></tr><tr><td><div>}}</div></td></tr></table></div></td></tr><tr><td style="font-weight:bold;vertical-align:top;">files</td><td style="vertical-align:top;">:</td><td><div><table></table></div></td></tr><tr><td style="font-weight:bold;vertical-align:top;">flash</td><td style="vertical-align:top;">:</td><td><div></div></td></tr><tr><td style="font-weight:bold;vertical-align:top;">form_label_separator</td><td style="vertical-align:top;">:</td><td><div></div></td></tr><tr><td style="font-weight:bold;vertical-align:top;">formstyle</td><td style="vertical-align:top;">:</td><td><div>bootstrap3_inline</div></td></tr><tr><td style="font-weight:bold;vertical-align:top;">generic_patterns</td><td style="vertical-align:top;">:</td><td><div><table><tr><td><div>*</div></td></tr></table></div></td></tr><tr><td style="font-weight:bold;vertical-align:top;">headers</td><td style="vertical-align:top;">:</td><td><div><table><tr><td style="font-weight:bold;vertical-align:top;">X-Powered-By</td><td style="vertical-align:top;">:</td><td><div>web2py</div></td></tr></table></div></td></tr><tr><td style="font-weight:bold;vertical-align:top;">menu</td><td style="vertical-align:top;">:</td><td><div><table></table></div></td></tr><tr><td style="font-weight:bold;vertical-align:top;">meta</td><td style="vertical-align:top;">:</td><td><div><table></table></div></td></tr><tr><td style="font-weight:bold;vertical-align:top;">models_to_run</td><td style="vertical-align:top;">:</td><td><div><table><tr><td><div>^\\w+\\.py$</div></td></tr><tr><td><div>^appadmin/\\w+\\.py$</div></td></tr><tr><td><div>^appadmin/index/\\w+\\.py$</div></td></tr></table></div></td></tr><tr><td style="font-weight:bold;vertical-align:top;">postprocessing</td><td style="vertical-align:top;">:</td><td><div><table></table></div></td></tr><tr><td style="font-weight:bold;vertical-align:top;">session_client</td><td style="vertical-align:top;">:</td><td><div>127.0.0.1</div></td></tr><tr><td style="font-weight:bold;vertical-align:top;">session_cookie_compression_level</td><td style="vertical-align:top;">:</td><td><div>None</div></td></tr><tr><td style="font-weight:bold;vertical-align:top;">session_cookie_expires</td><td style="vertical-align:top;">:</td><td><div>None</div></td></tr><tr><td style="font-weight:bold;vertical-align:top;">session_data_name</td><td style="vertical-align:top;">:</td><td><div>session_data_sispio</div></td></tr><tr><td style="font-weight:bold;vertical-align:top;">session_file</td><td style="vertical-align:top;">:</td><td><div>&lt;open file &#x27;C:\\\\Users\\\\Mike\\\\Desktop\\\\web2py\\\\applications\\\\SisPIO\\\\sessions\\\\1e5\\\\023\\\\127.0.0.1-b4f9e627-37f1-4448-8fee-52f067258fdf&#x27;, mode &#x27;rb+&#x27; at 0x09552700&gt;</div></td></tr><tr><td style="font-weight:bold;vertical-align:top;">session_filename</td><td style="vertical-align:top;">:</td><td><div>C:\\Users\\Mike\\Desktop\\web2py\\applications\\SisPIO\\sessions\\127.0.0.1-b4f9e627-37f1-4448-8fee-52f067258fdf</div></td></tr><tr><td style="font-weight:bold;vertical-align:top;">session_hash</td><td style="vertical-align:top;">:</td><td><div>72a8ce43ea5375bf2f3c62cfdee67e78</div></td></tr><tr><td style="font-weight:bold;vertical-align:top;">session_id</td><td style="vertical-align:top;">:</td><td><div>127.0.0.1-b4f9e627-37f1-4448-8fee-52f067258fdf</div></td></tr><tr><td style="font-weight:bold;vertical-align:top;">session_id_name</td><td style="vertical-align:top;">:</td><td><div>session_id_sispio</div></td></tr><tr><td style="font-weight:bold;vertical-align:top;">session_locked</td><td style="vertical-align:top;">:</td><td><div>True</div></td></tr><tr><td style="font-weight:bold;vertical-align:top;">session_masterapp</td><td style="vertical-align:top;">:</td><td><div>SisPIO</div></td></tr><tr><td style="font-weight:bold;vertical-align:top;">session_new</td><td style="vertical-align:top;">:</td><td><div>False</div></td></tr><tr><td style="font-weight:bold;vertical-align:top;">session_storage_type</td><td style="vertical-align:top;">:</td><td><div>file</div></td></tr><tr><td style="font-weight:bold;vertical-align:top;">status</td><td style="vertical-align:top;">:</td><td><div>200</div></td></tr><tr><td style="font-weight:bold;vertical-align:top;">view</td><td style="vertical-align:top;">:</td><td><div>appadmin/index.html</div></td></tr></table></div>'
tRp197
sS'locals'
p198
(dp199
S'fields'
p200
S"[(<pydal.objects.Field object>, 'Estudiante'), (<pydal.objects.Field object>, 'description')]"
p201
sS'self'
p202
S'<pydal.adapters.postgres.PostgreSQLAdapter object>'
p203
sS'e'
S'ProgrammingError("no existe la relaci\\xc3\\xb3n \\...ALUES (\'Estudiante...\\n                    ^\\n",)'
p204
sS'table'
p205
S'<Table auth_group (id, role, description)>'
p206
sS'query'
p207
S'"INSERT INTO auth_group(role,description) VALUES (\'Estudiante\',\'description\') RETURNING id;"'
p208
sssS'traceback'
p209
S'Traceback (most recent call last):\n  File "C:\\Users\\Mike\\Desktop\\web2py\\gluon\\restricted.py", line 227, in restricted\n    exec ccode in environment\n  File "C:\\Users\\Mike\\Desktop\\web2py\\applications\\SisPIO\\models\\db.py", line 291, in <module>\n    estudiante = auth.add_group(role=\'Estudiante\', description=\'description\')\n  File "C:\\Users\\Mike\\Desktop\\web2py\\gluon\\tools.py", line 4312, in add_group\n    group_id = self.table_group().insert(role=role, description=description)\n  File "C:\\Users\\Mike\\Desktop\\web2py\\gluon\\packages\\dal\\pydal\\objects.py", line 726, in insert\n    ret = self._db._adapter.insert(self, self._listify(fields))\n  File "C:\\Users\\Mike\\Desktop\\web2py\\gluon\\packages\\dal\\pydal\\adapters\\base.py", line 746, in insert\n    raise e\nProgrammingError: no existe la relaci\xc3\xb3n \xc2\xabauth_group\xc2\xbb\nLINE 1: INSERT INTO auth_group(role,description) VALUES (\'Estudiante...\n                    ^\n\n'
p210
s.