(dp1
S'output'
p2
S'Unable to open included view file: C:\\Users\\capf9\\Desktop\\University\\web2py_win\\web2py\\applications\\SisPIO\\views\\layout.html'
p3
sS'layer'
p4
S'ParserContainer'
p5
sS'code'
p6
S'<!DOCTYPE html>\r\n\r\n {{extend \'layout.html\'}}\r\n\r\n\r\n    <div  class="container">\r\n\r\n\r\n         <!-- Information-->\r\n        <div id="inicio" class="row">\r\n            <div class="col-md-12">  \r\n              <div class="row">\r\n                <div class="col-md-3">\r\n                  <div class="row">\r\n                        <button class="accordion2" id="principal">Inicio</button>\r\n                        <button class="accordion">Gestion de usuarios<span class="caret"></span></button>\r\n                        <div class="panel">\r\n                        <button class="accordion2" id="add"><span class="glyphicon glyphicon-pencil"></span>  Agregar usuario</span></button>\r\n                        <button class="accordion2" id="edit"><span class="glyphicon glyphicon-pencil"></span>  Modificar usuario</span></button>\r\n                        <button class="accordion2" id="delete"><span class="glyphicon glyphicon-pencil"></span>  Eliminar usuario</span></button>\r\n                        </div>\r\n                        <button class="accordion">Gestion de instituciones<span class="caret"></span></button>\r\n                        <div class="panel">\r\n                        <button class="accordion2" id="inst"><span class="glyphicon glyphicon-pencil"></span>  Agregar institucion</span></button>\r\n                        <button class="accordion2" id="deleteInst"><span class="glyphicon glyphicon-pencil"></span>  Eliminar institucion</span></button>\r\n                        </div>\r\n                        <button class="accordion">Sistema<span class="caret"></span></button>\r\n                        <div class="panel">\r\n                        <button class="accordion2" id="lookfor"><span class="glyphicon glyphicon-pencil"></span>  Consultar</span></button>\r\n                        <button class="accordion2" id="comp"><span class="glyphicon glyphicon-pencil"></span>  Generar comprobante</span></button>\r\n                        </div>\r\n                        <button class="accordion2" id="upload">Cargar archivo</button>\r\n                        <button class="accordion2" id="cohor">Agregar cohorte</button>\r\n                         <button class="accordion">Otros<span class="caret"></span></button>\r\n                        <div class="panel">\r\n                        <button class="accordion2" id="perfil"><span class="glyphicon glyphicon-pencil"></span>  Perfil</button>\r\n                        <button class="accordion2" id="news"><span class="glyphicon glyphicon-pencil"></span>  Noticias</button>\r\n                        <button class="accordion2" id="contacto"><span class="glyphicon glyphicon-pencil"></span>  Correo masivo</button>\r\n                        <button class="accordion2" id="pass"><span class="glyphicon glyphicon-pencil"></span>  Cambiar contrase\xc3\xb1a</button>\r\n                        </div>\r\n                        <a href="{{=URL(\'default\', \'user\', args=\'logout\')}}" id="logOut"> <button class="accordion2">Salir</button></a>\r\n                   </div>\r\n                  \r\n                    \r\n                </div>\r\n                <div class="col-md-9">\r\n                \r\n                    <!-- INICIO -->\r\n                    <div id="information">\r\n                    <script type="text/javascript"> \r\n                                   var cargar = false;\r\n                                   var modificar = false;\r\n                                   var eliminar = false;\r\n                                   var inicio =true;\r\n                                   </script>\r\n                         <h1> Bienvenido al PIO </h1>\r\n                        <br><br>\r\n                        <p><strong>Coordinadores,</strong></p><br>\r\n                        <p class="textCoor">\r\n                            Bienvenido al Sistema PIO, para continuar en el proceso de carga de estudiantes es obligatorio llenar el siguiente formulario: <a class="perfil"><strong>Validar mis datos </strong></a></p>\r\n                        <p class="textCoor"> \r\n                            Recuerde imprimir su comprobante de carga de estudiantes con la opcion generar comprobante, luego de ingresar a sus alumnos al sistema.</p>\r\n                        <div>\r\n                            <h1 class="datos1">{{=formAdministrador[0][0][1][0]}}  </h1>\r\n                            <h1 class="datos1"><a id="Editar" href="#"><span class="glyphicon glyphicon-edit green-icn"></span></a></h1>\r\n                            <p class="datos">\r\n                                <b>Nombre completo: </b> {{=formAdministrador[0][0][1][0]}}\r\n                                <br>\r\n                                <b>Cedula de identidad: </b> {{=formAdministrador[0][1][1][0]}}<br>\r\n                                <b>Correo electronico: </b> {{=formAdministrador[0][2][1][0]}} <br>\r\n                                <br>\r\n                            </p>\r\n                        </div>\r\n                    </div>\r\n                    <!-- Noticias -->\r\n                    <div id="noticias">\r\n                        <h1>Noticias</h1>\r\n                        <p class="textCoor">No hay noticias recientes</p>\r\n                    \r\n                    </div>\r\n                    <!--Agregar Manual-->\r\n                    <div id="agregar">\r\n                        <form enctype="multipart/form-data" method="post" >\r\n                        <input name="_formname" type="hidden" value="formularioAgregarManual">\r\n                                <legend><h2>Agregar usuarios al Sistema PIO</h2></legend>\r\n                                    <div class="form-group" id="tipo">\r\n                                        <p class="textCoor">Seleccione el tipo de usuario a cargar:</p>\r\n                                        <div class="radio">\r\n                                                <label class="textCoor"><input id="cargarEstudiante" type="radio" name="tipoUsuario" value="estudiante" checked>Estudiante</label>\r\n                                        </div>\r\n                                        <div class="radio">\r\n                                                  <label class="textCoor"><input id="cargarProfesor" type="radio" name="tipoUsuario" value="profesor">Profesor</label>\r\n                                        </div>\r\n                                        <div class="radio">\r\n                                                  <label class="textCoor"><input id="cargarLiceo" type="radio" name="tipoUsuario" value="coordinadorLiceo">Coordinador liceo</label>\r\n                                        </div>\r\n                                        <div class="radio">\r\n                                                  <label class="textCoor"><input id="cargarSede" type="radio" name="tipoUsuario" value="coordinadorSede">Coordinador sede</label>\r\n                                        </div>\r\n                                        <div class="radio">\r\n                                                  <label class="textCoor"><input id="cargarAdmin" type="radio" name="tipoUsuario" value="admin">Administrador</label>\r\n                                        </div>\r\n                                    </div>\r\n                        \r\n                            <div id="manualAgregar">\r\n                                <legend>Datos personales</legend>\r\n                            <!-- Person ID -->\r\n                                <label for="cedula">Cedula de identidad: </label>\r\n                                <input type="text" id="cedula" name="cedula" placeholder="Cedula de identidad" required> <br>\r\n                            <!-- Person name -->\r\n                                <label for="name">Nombres: </label>\r\n                                <input type="text" id="name" name="nombres" placeholder="Primer y segundo nombre" required > <br>\r\n                            <!-- Person last name -->\r\n                                <label for="apellido">Apellidos: </label>\r\n                                <input type="text" id="apellido" name="apellidos" placeholder="Primer y segundo apellido" required> <br>\r\n                            <!-- Liceo procedencia-->\r\n                            <div id="manualLiceo">\r\n                                <label for="liceoProcedencia" >Liceo de procedencia: </label>\r\n                                <select class="select-style"  name="liceo" id="liceoProcedencia" required>\r\n                                <option  disabled>Seleccione uno</option>\r\n                                {{for i in liceos:}}\r\n                                    <option value="{{=i.nombre}}" >{{=i.nombre}}</option>\r\n                                {{pass}}\r\n                                </select>\r\n                                <br>\r\n                            </div>\r\n                            <!-- sede procedencia-->\r\n                            <div id="manualSede">\r\n                                <label for="sede" >Sede de procedencia: </label>\r\n                                <select class="select-style" id="sede" name="sede" required>\r\n                                    <option value=" " disable >Seleccione uno</option>\r\n                                    {{for i in sedes:}}\r\n                                    <option value="{{=i.zona}}" >{{=i.zona}}</option>\r\n                                    {{pass}}\r\n                                </select>\r\n                                <br>\r\n                            </div>\r\n                            <!-- Person average-->\r\n                            <div id="manualPromedio">\r\n                                <label for="promedioEntero">Promedio:</label>\r\n                                <input type="number" min="0" max="20" step="1" value="0" id="promedioEntero" class="text-right" id="PromedioEntero" name="PromedioEntero" required>\r\n                                <strong> .</strong>\r\n                                <input type="number" min="0" max="9" step="1" value="0" id="promedioDecimal" class="text-right" name="PromedioDecimal" required>\r\n                                <br>\r\n                            </div>\r\n                            <!--Person email -->\r\n                            <div id="manualEmail">\r\n                                <label for="email">Email: </label>\r\n                                <input type="email" id="email" name="email" placeholder="Correo electronico"><br>\r\n                            </div>\r\n                            </div><!-- manual agregar-->\r\n\r\n                             <br>\r\n                            \r\n                            <div class="save text-center"><input type="submit" class="btn btn-primary save" value="Agregar"></div>\r\n                      </form>\r\n                        </div>\r\n                    <!--Agregar Institucion-->\r\n                    <div id="institucion">\r\n               <!--         <form method="get" > \r\n                        <input name="_formname" type="hidden" value="formularioAgregarLiceo">   -->\r\n                                <legend><h2>Agregar instituciones al Sistema PIO</h2></legend>   \r\n                        {{=formularioLiceoManual}}\r\n                        <!-- Institution name -->\r\n                <!--\r\n                        <div class="form-group">\r\n                            <label for="name">Nombre de la institucion: </label>\r\n                            <input type="text" id="name2" name="Nombre" placeholder="Nombre de la institucion" required> \r\n                            <br><br>\r\n                        </div>\r\n                        <div class="form-group">\r\n                                <label for="profesor"  style="padding-left: 0px;" class="col-sm-3 control-label ">Tipo de institucion: </label>\r\n                                   <input type="radio" class="gender marg" name="tipo" value="publico" checked >Publica<br>\r\n                                    <input type="radio" class="gender marg" name="tipo" value="subsidiado" >Subsidiada <br>\r\n                        </div>\r\n                        <!-- Intitution phone -->\r\n                <!--\r\n                        <div class="form-group">\r\n                            <label for="mobile">Telefono principal: </label>\r\n                            <input type="tel" id="mobile2" name="Mobile" placeholder="Telefono principal" max="11">\r\n                            <br><br>\r\n                        </div>\r\n                        <!-- Institution address-->\r\n                <!--\r\n                        <div class="form-group">\r\n                            <label class="dir" for="direccion">Direccion de la institucion:</label>\r\n                            <div class="textarea1">\r\n                                    {{for i in sedes:}}\r\n                                     <input type="radio" class="gender marg" name="sede" value="{{=i.zona}}" checked> {{=i.zona}}<br>\r\n                                    {{pass}}\r\n                            </div>\r\n                            <br><br>\r\n                        </div>\r\n                        \r\n                        <div class="save text-center"><input type="submit" class="btn btn-primary save" value="Agregar"></div>\r\n                     </form>\r\n                        -->\r\n                    </div>                    \r\n                     <!--CARGAR ARCHIVO-->\r\n                    <div id="cargar">\r\n                         <div class="row">\r\n                                    <form action="" enctype="multipart/form-data" method="post">\r\n                                        <fieldset>\r\n                                            <legend><h2>Cargar archivo</h2></legend>\r\n                                            <div class="form-group" id="tipo">\r\n                                                <p class="textCoor">Seleccione el tipo de usuario a cargar:</p>\r\n                                                <div class="radio">\r\n                                                <label class="textCoor"><input type="radio" name="optradio" value="estudiante" checked>Estudiante</label>\r\n                                                </div>\r\n                                                <div class="radio">\r\n                                                  <label class="textCoor"><input type="radio" name="optradio" value="profesor">Profesor</label>\r\n                                                </div>\r\n                                                <div class="radio">\r\n                                                  <label class="textCoor"><input type="radio" name="optradio" value="liceo">Coordinador liceo</label>\r\n                                                </div>\r\n                                                <div class="radio">\r\n                                                  <label class="textCoor"><input type="radio" name="optradio" value="sede">Coordinador sede</label>\r\n                                                <div class="radio">\r\n                                                  <label class="textCoor"><input type="radio" name="optradio" value="liceos">Institucion</label>\r\n                                                </div>\r\n                                                </div>\r\n                                                \r\n                                            </div>\r\n                                        </fieldset>\r\n                                        <fieldset>\r\n                                                <legend>Seleccionar archivo</legend>\r\n                                                <div class="form-group">\r\n                                                    <br>\r\n                                                    <input name="_formname" type="hidden" value="formularioArchivo">\r\n                                                    <p class="textCoor">Por favor selecione su archivo a cargar y presione enviar de tipo:</p><br>\r\n                                                    <label for="file" class="textCoor">Archivo: </label> \r\n                            \t\t\t\t        <input class="upload" type="file" id="file" name="fileToUpload" required><br><br>\r\n                                                     \r\n                                                </div>\r\n                                        </fieldset>\r\n                                       <div class="save text-center"><input type="submit" class="btn btn-primary save" value="Cargar archivo"></div>\r\n                                    </form>\r\n\r\n                                   {{if len(erroresCarga) != 0:}}\r\n                                   <script type="text/javascript"> \r\n                                   var cargar = true;\r\n                                   var modificar = false;\r\n                                   var eliminar = false;\r\n                                   var inicio =false;\r\n                                   </script>\r\n                                   Errores\r\n                                   <br>\r\n                                   {{for i in erroresCarga:}}\r\n                                   {{=i}}\r\n                                   <br>\r\n                                   {{pass}}\r\n                                   {{pass}}\r\n                                   <br>\r\n                                   \r\n                                   {{if len(cargaExitosa) != 0:}}\r\n                                   <script type="text/javascript"> \r\n                                   var cargar = true;\r\n                                   var modificar = false;\r\n                                   var eliminar = false;\r\n                                   var inicio =false;\r\n                                   </script>\r\n                                   Exitosos\r\n                                   <br>\r\n                                   {{for i in cargaExitosa:}}\r\n                                   {{=i}}\r\n                                   <br>\r\n                                   {{pass}}\r\n                                   {{pass}}\r\n                                </div>\r\n\r\n                        </div>\r\n                    <!-- MI PERFIL -->\r\n                    <div id="miPerfil" class="row">\r\n                     <form method="get" >\r\n                        <h1>Perfil</h1>\r\n                        <fieldset>\r\n                            <legend>Datos personales</legend>\r\n                        <!-- Person ID -->\r\n                            <label for="cedula">Cedula de identidad: </label>\r\n                            <input type="text" id="cedula" name="ID" placeholder="Cedula de identidad"> <br>\r\n                        <!-- Person name -->\r\n                            <label for="name">Nombres: </label>\r\n                            <input type="text" id="nombre" name="Nombre" placeholder="Primer y segundo nombre"> <br>\r\n                        <!-- Person last name -->\r\n                            <label for="apellido">Apellidos: </label>\r\n                            <input type="text" id="apellido" name="Apellido" placeholder="Primer y segundo apellido" > <br>\r\n                        \r\n                        </fieldset> <br>\r\n                        <fieldset>\r\n                            <legend>Informacion de contacto</legend>\r\n                        <!--Person email -->\r\n                            <label for="email">Email: </label>\r\n                            <input type="email" id="email" name="Email" placeholder="Correo electronico" required><br>\r\n                        </fieldset> <br>\r\n                        \r\n                        <div class="save text-center"><input type="submit" class="btn btn-primary save" value="Guardar"></div>\r\n                      </form>\r\n                     </div>\r\n                    <!-- CONSULTA -->\r\n                    <div id="consultar" >\r\n                      <form method="get" >\r\n                      <input name="_formname" type="hidden" value="consultarTodo">\r\n                        <h1>Consultas </h1><br>\r\n                        <p class="textCoor">Busqueda de todos los alumnos:</p>\r\n                            <div class="form-group">\r\n                                   <input type="checkbox" class="gender marg" name="todos" value="todos" checked>Todos<br>\r\n                            </div>\r\n                           <div class="buscar"><button type="submit" class="btn btn-primary save"  value="Consultar" data-toggle="modal" data-target="#ConsultarModal">\r\n                              Consultar\r\n                            </button>\r\n                            </div>\r\n                        </form>\r\n                        <form method="get">\r\n                        <input name="_formname" type="hidden" value="formularioConsulta">\r\n                         <!-- institucionn -->\r\n                            <p class="textCoor">Busqueda por:</p><br>\r\n                            <div class="form-group">\r\n                            <label for="institucion"  class="col-sm-2 control-label lineCentral">Institucion: </label>\r\n                                <select class="selectStyle" name="institucion" >\r\n                                    <option value="" inactive >Seleccione una institucion</option>\r\n                                    <option value="">Institucion</option>\r\n                                </select>\r\n                            </div>\r\n                        <br>\r\n                             <!-- Por profesor -->\r\n                            \r\n                            <div class="form-group">\r\n                            <label for="profesor"  class="col-sm-2 control-label lineCentral">Profesor: </label>\r\n                                <select class="selectStyle" name="profesor" >\r\n                                    <option value="" inactive >Seleccione un profesor</option>\r\n                                    <option value="">Institucion</option>\r\n                                </select>\r\n                            </div>\r\n                        <br>\r\n                             <!-- Por cohorte -->\r\n                                \r\n                                <div class="form-group">\r\n                                <label for="profesor"  class="col-sm-2 control-label lineCentral">Cohorte: </label>\r\n                                    <select class="selectStyle" name="profesor" >\r\n                                        <option value="" inactive >Seleccione una cohorte</option>\r\n                                        <option value="">Institucion</option>\r\n                                    </select>\r\n                                </div>\r\n                            <br>\r\n                               \r\n                             <!--Edad-->\r\n                                    <div class="form-group">\r\n                                    <label for="profesor"  class="col-sm-3 control-label lineCentral">Edad: </label>\r\n                                    <input type="number" min="0" max="100" step="1" value="0" id="edadConsulta" class="text-right edad" max="20" name="edadEntero">\r\n                                    </div>\r\n                                <br>\r\n                            <!--Genero--> \r\n                                <div class="form-group">\r\n                                <label for="profesor"  class="col-sm-2 control-label lineCentral">Genero: </label>\r\n                                   <input type="radio" class="gender marg edad2" name="gender" value="female" >Femenino<br>\r\n                                    <input type="radio" class="gender marg edad2" name="gender" value="male" >Masculino <br>\r\n                                </div>\r\n                            <br>\r\n                            <legend>Busqueda por rangos</legend>\r\n                        \r\n                        <!--NOtas-->\r\n                                <div class="form-group">\r\n                                    <strong class="edad">Nota menor que:</strong>\r\n                                    <input type="number" min="0" max="20" step="1" value="0" id="promedioEntero" class="text-right" name="PromedioEntero">\r\n                                    <strong> .</strong>\r\n                                    <input type="number" min="0" max="20" step="1" value="0" id="promedioDecimal" class="text-right" name="PromedioDecimal"><h1></h1>\r\n                                    <strong class="edad">  Nota mayor que: </strong>\r\n                                    <input type="number" min="0" max="20" step="1" value="0" id="promedioEntero" class="text-right" name="PromedioEntero" >\r\n                                    <strong> .</strong>\r\n                                    <input type="number" min="0" max="20" step="1" value="0" id="promedioDecimal" class="text-right" name="PromedioDecimal">\r\n                                </div>\r\n                            <br>\r\n                         <!--Fecha-->\r\n                                <div class="form-group" >\r\n                                    <strong class="edad">Fecha entre:</strong>\r\n                                    <input type="date" id="fecha1" name="fecha">\r\n                                    <strong> y : </strong>\r\n                                    <input type="date" id="fecha2" name="fecha" ><br><br>\r\n                                </div>\r\n                            <br>\r\n                           <!-- Button trigger modal -->\r\n                            <div class="save text-center"><button type="submit" class="btn btn-primary save"  value="Consultar">\r\n                              Consultar </button>\r\n                            </div>\r\n                        </form>\r\n                        {{if consulta:}}\r\n                        {{=consulta}}\r\n                        {{pass}}\r\n                    </div>\r\n                    <!--MODIFICAR-->\r\n                    <div id="modificar">\r\n                        <h1>Modificar datos </h1>\r\n                        <form method="post">\r\n                            <label class="textCoor" for="contrase\xc3\xb1a">Ingresar CI : </label>\r\n                                <input name="_formname" type="hidden" value="cedulaModificar">\r\n                                <input id="modificarUsuario" name="ci" placeholder="Cedula de Identidad" required> \r\n                                <br>\r\n                                <br>\r\n                            <div class="save text-center"><input type="submit" class="btn btn-primary save" value="Modificar"></div>\r\n                        </form> \r\n                        {{if modificando:}}\r\n                            <!-- <strong>MODIFICAR:</strong> -->\r\n                        <br>\r\n                        Modificando: \r\n                        {{=modificando[0]}}\r\n                        <script type="text/javascript"> \r\n                            var cargar = false;\r\n                            var modificar = true;\r\n                            var eliminar = false;\r\n                            var inicio =false;\r\n                        </script>\r\n                        {{=formularioModificar}}\r\n                        {{pass}}\r\n                    </div>\r\n                    <!--REPORTE-->\r\n                    <div id="reporte">\r\n                        <h1>Generar comprobrante</h1>\r\n                    </div>\r\n                    \r\n                    <!-- CONTRASENA -->\r\n                    <div id="cambioContra">\r\n                        <h1>Cambiar contrase\xc3\xb1a</h1><br>\r\n                        <form method="get">\r\n                       <!-- Contrase;a actual -->\r\n                            <label for="contrase\xc3\xb1a">Contrase\xc3\xb1a actual: </label>\r\n                            <input type="password" id="contrasena" name="contrase\xc3\xb1a" placeholder="Contrase\xc3\xb1a actual" required> <br>\r\n                        <!-- Contrase;a nueva -->\r\n                            <label for="contrase\xc3\xb1a">Contrase\xc3\xb1a nueva: </label>\r\n                            <input type="password" id="password" name="contrase\xc3\xb1a" placeholder="Contrase\xc3\xb1a nueva" required> <br>\r\n                        <!-- Contrase;a nueva -->\r\n                            <label for="contrase\xc3\xb1a">Confirmar contrase\xc3\xb1a: </label>\r\n                            <input type="password" id="confirm_password" name="contrase\xc3\xb1a" placeholder="Contrase\xc3\xb1a nueva" required> <br><br>\r\n                        <div class="save text-center"><input type="submit" class="btn btn-primary save" value="Guardar"></div>\r\n                        </form>\r\n                    </div>\r\n                    <!-- Contactanos -->\r\n                    <div id="enviarEmail" class="row">\r\n                        <h1>Correos Masivos </h1>\r\n                        <p class="textCoor marg">Seleccione a las personas que sera dirigido el correo electronico</p>\r\n\r\n                        <p class="textCoor marg "> Si presenta algun problema comunicarse con el servicio tecnico.</p>\r\n                        <form role="form" method="post" >\r\n                            <br><br>\r\n                            <!-- institucionn -->\r\n                            <div class="form-group">\r\n                                <label for="quien"  class="col-sm-2 control-label lineCentral">Dirigido a: </label><br>\r\n                                   <br><input type="checkbox" class="gender marg" name="estudiantes" value="Estudiantes" >Estudiantes<br>\r\n                                    <input type="checkbox" class="gender marg" name="profesores" value="Profesores" >Profesores <br>\r\n                                    <input type="checkbox" class="gender marg" name="coordinadorLiceo" value="CoorLiceo" >Coordinadores Liceo <br>\r\n                                    <input type="checkbox" class="gender marg" name="coorPio" value="coorPio" >Coordinador Pio<br>\r\n                            </div>\r\n                        <br>\r\n                            <!-- Asunto-->\r\n                            <div class="form-group">\r\n                                <label for="name" class="col-sm-2 control-label">Correo especifico:</label>\r\n                                <br><br>\r\n                                <div class="col-sm-8">\r\n                                    <input type="email" class="form-control" id="email" name="email" placeholder="Ingrese correo destino" value="" required>\r\n                                </div>\r\n                            </div>\r\n                            <br>\r\n                           <br>\r\n                            <!-- Asunto-->\r\n                            <div class="form-group">\r\n                                <label for="name" class="col-sm-2 control-label">Asunto</label>\r\n                                <br><br>\r\n                                <div class="col-sm-8">\r\n                                    <input type="text" class="form-control" id="asunto" name="asunto" placeholder="Asunto" value="" required>\r\n                                </div>\r\n                            </div>\r\n                           <br>\r\n                            <!-- mensaje -->\r\n                            <div class="form-group">\r\n                                <br><br>\r\n                                <label for="message" class="col-sm-2 control-label">Mensaje</label><br><br>\r\n                                <div class="col-sm-8">\r\n                                    <textarea class="form-control" rows="4" name="message" required></textarea>\r\n                                </div>\r\n                            </div>\r\n                            \r\n                            <div class="form-group">\r\n                                <div class="col-sm-10 col-sm-offset-2">\r\n                                    <br><br><div class="send">\r\n                                    <input id="submit" name="submit" type="submit" value="Enviar" class="btn btn-primary"></div>\r\n                                    <br><br>\r\n                                    <br>\r\n                                </div>\r\n                            </div>\r\n                        </form>\r\n                    </div>\r\n                    <!-- cohorte-->\r\n                    <div id="cohorte">\r\n                        <form method="post">\r\n                            <h1>Agregar cohorte </h1>\r\n                            <label class="textCoor" for="cohorteAgregar">Ingrese una cohorte </label>\r\n                                <input id="cohorteAgregar" name="cohorteAgregar" placeholder="Cohorte" required> \r\n                                <br>\r\n                                <br>\r\n                            <div class="save text-center">\r\n                            <input type="submit" class="btn btn-primary save" value="Agregar">\r\n                            </div>\r\n                        </form>\r\n                    </div>\r\n                    <!-- eliminar intitucions-->\r\n                    <div id="eliminarInstitucion">\r\n                        <form method="post">\r\n                        <input name="_formname" type="hidden" value="formularioEliminarLiceo">\r\n                            <h1>Eliminar institucion</h1>\r\n                            <br><br>\r\n                            <label for="liceoEliminar" >Seleccione la institucion: </label>\r\n                            \r\n                            <select name="liceoEliminar" class="select-style" id="liceoEliminar" required>\r\n                                <option  disabled>Seleccione uno</option>\r\n                                {{for i in liceos:}}\r\n                                    <option value="{{=i.nombre}}" >{{=i.nombre}}</option>\r\n                                {{pass}}\r\n                            </select>\r\n                            <br><br><br>\r\n                            <div class="save text-center">\r\n                            <input type="submit" class="btn btn-primary save" value="Eliminar">\r\n                            </div>\r\n                        </form>\r\n                    </div>\r\n                    <!--Eliminar-->\r\n                    <div id="eliminar">\r\n                        <form method="post">\r\n                            <h1>Eliminar usuario </h1>\r\n                            <label class="textCoor" for="contrase\xc3\xb1a">Ingresar CI : </label>\r\n                                <input name="_formname" type="hidden" value="formularioEliminar">\r\n                                <input id="eliminarUsuario" name="ci" placeholder="Cedula de Identidad" required> \r\n                                <br>\r\n                                <br>\r\n                            <div class="save text-center">\r\n                            <input type="submit" class="btn btn-primary save" value="Eliminar">\r\n                            </div>\r\n                        </form>\r\n                        <!-- javascript--> \r\n                      {{if eliminando and eliminando != "Eliminado exitosamente":}}\r\n                        <script type="text/javascript"> \r\n                            var eliminar = true;\r\n                            var cargar = false;\r\n                            var modificar = false;\r\n                            var inicio =false;\r\n                        </script>\r\n                         <div class="alert alert-danger alert-dismissable fade in">\r\n                            <a href="#" class="close" data-dismiss="alert" aria-label="close">&times;</a>\r\n                            <strong>ELIMINAR USUARIO:</strong> \r\n                        <br>\r\n                        {{if eliminando != "No hay un usuario con esa cedula":}}\r\n                        {{=eliminando[0].first_name}}\r\n                        {{=eliminando[0].last_name}}\r\n                        {{=eliminando[0].username}}\r\n                        <br>\r\n                        De Tipo:\r\n                        <br>\r\n                        {{=tipoUserEliminando}}\r\n\r\n                        <br>\r\n                        <form method="post">\r\n                            <input name="_formname" type="hidden" value="confirmacionEliminar">\r\n                            <div class="save text-center"><input type="submit" class="btn btn-primary save" value="Confirmar Eliminacion"></div>\r\n                        </form>\r\n                        {{else:}}\r\n                        <script type="text/javascript"> \r\n                            var eliminar = true;\r\n                            var cargar = false;\r\n                            var modificar = false;\r\n                            var inicio =false;\r\n                        </script>\r\n                        {{=eliminando}}\r\n                        {{pass}}\r\n                        {{elif eliminando == "Eliminado exitosamente":}}\r\n                        <script type="text/javascript">\r\n                            var eliminar = true\r\n                            var cargar = false;\r\n                            var modificar = false;\r\n                            var inicio =false;\r\n                        </script>                       \r\n                        {{=eliminando}}\r\n                        {{pass}}\r\n                        </div>\r\n                  <!-- fin de Js -->\r\n                    </div>\r\n                    \r\n                    \r\n                    \r\n                </div><!--col md 9-->\r\n                </div><!--row-->\r\n              </div><!--colmd12-->\r\n                \r\n            </div><!-- row -->\r\n            <script type="text/javascript">\r\n             \r\n              console.log("eliminar es: "+eliminar);\r\n              console.log("modificar es: "+modificar);\r\n              console.log("cargar es: "+cargar);\r\n            if(eliminar===true){\r\n                document.getElementById("information").style.display="none";\r\n                document.getElementById("eliminar").style.display="block";\r\n            };\r\n            if(modificar===true){\r\n                document.getElementById("information").style.display="none";\r\n                document.getElementById("modificar").style.display="block";\r\n            };\r\n            if(cargar===true){\r\n                document.getElementById("information").style.display="none";\r\n                document.getElementById("cargar").style.display="block";\r\n            }\r\n            if(inicio===true) {\r\n                document.getElementById("information").style.display="block";\r\n                document.getElementById("cargar").style.display="none";\r\n                document.getElementById("eliminar").style.display="none";\r\n                document.getElementById("modificar").style.display="none";\r\n            };\r\n                     \r\n          \r\n            </script>\r\n            \r\n    </div><!-- container-->\r\n'
p7
sS'snapshot'
p8
(dp9
S'exception'
p10
(dp11
S'__getslice__'
p12
S"<method-wrapper '__getslice__' of exceptions.IOError object>"
p13
sS'__str__'
p14
S"<method-wrapper '__str__' of exceptions.IOError object>"
p15
sS'__reduce__'
p16
S'<built-in method __reduce__ of exceptions.IOError object>'
p17
sS'__dict__'
p18
S'{}'
p19
sS'__sizeof__'
p20
S'<built-in method __sizeof__ of exceptions.IOError object>'
p21
sS'__init__'
p22
S"<method-wrapper '__init__' of exceptions.IOError object>"
p23
sS'__setattr__'
p24
S"<method-wrapper '__setattr__' of exceptions.IOError object>"
p25
sS'__reduce_ex__'
p26
S'<built-in method __reduce_ex__ of exceptions.IOError object>'
p27
sS'__new__'
p28
S'<built-in method __new__ of type object>'
p29
sS'errno'
p30
S'2'
sS'__format__'
p31
S'<built-in method __format__ of exceptions.IOError object>'
p32
sS'__class__'
p33
S"<type 'exceptions.IOError'>"
p34
sS'filename'
p35
S"r'C:\\Users\\capf9\\Desktop\\University\\web2py_win\\web2py\\applications\\SisPIO\\views\\layout.html'"
p36
sS'__doc__'
p37
S"'I/O operation failed.'"
p38
sS'__getitem__'
p39
S"<method-wrapper '__getitem__' of exceptions.IOError object>"
p40
sS'__setstate__'
p41
S'<built-in method __setstate__ of exceptions.IOError object>'
p42
sS'__getattribute__'
p43
S"<method-wrapper '__getattribute__' of exceptions.IOError object>"
p44
sS'args'
p45
S"(2, 'No such file or directory')"
p46
sS'__subclasshook__'
p47
S'<built-in method __subclasshook__ of type object>'
p48
sS'__unicode__'
p49
S'<built-in method __unicode__ of exceptions.IOError object>'
p50
sS'strerror'
p51
S"'No such file or directory'"
p52
sS'__delattr__'
p53
S"<method-wrapper '__delattr__' of exceptions.IOError object>"
p54
sS'__repr__'
p55
S"<method-wrapper '__repr__' of exceptions.IOError object>"
p56
sS'__hash__'
p57
S"<method-wrapper '__hash__' of exceptions.IOError object>"
p58
ssS'evalue'
p59
S"[Errno 2] No such file or directory: 'C:\\\\Users\\\\capf9\\\\Desktop\\\\University\\\\web2py_win\\\\web2py\\\\applications\\\\SisPIO\\\\views\\\\layout.html'"
p60
sS'frames'
p61
(lp62
(dp63
S'file'
p64
S'C:\\Users\\capf9\\Desktop\\University\\web2py_win\\web2py\\gluon\\template.py'
p65
sS'dump'
p66
(dp67
S'builtinopen'
p68
S'<built-in function open>'
p69
sS'fileobj'
p70
S'undefined'
p71
sS'filepath'
p72
S"r'C:\\Users\\capf9\\Desktop\\University\\web2py_win\\web2py\\applications\\SisPIO\\views\\layout.html'"
p73
ssS'lnum'
p74
I450
sS'lines'
p75
(dp76
I448
S'        # try to read the text.'
p77
sI449
S'        try:'
p78
sI450
S"            fileobj = open(filepath, 'rb')"
p79
sI451
S'            text = fileobj.read()'
p80
sI452
S'            fileobj.close()'
p81
sI453
S'        except IOError:'
p82
sI454
S"            self._raise_error('Unable to open included view file: ' + filepath)"
p83
sI445
S'        # Get the path of the file on the system.'
p84
sI446
S'        filepath = self.path and os.path.join(self.path, filename) or filename'
p85
sI447
S''
ssS'call'
p86
S"(self=<gluon.template.TemplateParser object>, filename='layout.html')"
p87
sS'func'
p88
S'_get_file_text'
p89
sasS'pyver'
p90
S'Python 2.7.9: C:\\Users\\capf9\\Desktop\\University\\web2py_win\\web2py\\web2py.exe (prefix: )'
p91
sS'etype'
p92
S"<type 'exceptions.IOError'>"
p93
sS'date'
p94
S'Sat Nov 04 14:56:00 2017'
p95
sS'locals'
p96
(dp97
S'self'
p98
S'<gluon.template.TemplateParser object>'
p99
sS'filepath'
p100
S"r'C:\\Users\\capf9\\Desktop\\University\\web2py_win\\web2py\\applications\\SisPIO\\views\\layout.html'"
p101
sS'context'
p102
S"{'A': <class 'gluon.html.A'>, 'ANY_OF': <class 'gluon.validators.ANY_OF'>, 'ASSIGNJS': <function ASSIGNJS>, 'AppConfig': <function AppConfig>, 'Auth': <class 'gluon.tools.Auth'>, 'B': <class 'gluon.html.B'>, 'BEAUTIFY': <class 'gluon.html.BEAUTIFY'>, 'BODY': <class 'gluon.html.BODY'>, 'BR': <class 'gluon.html.BR'>, 'BUTTON': <class 'gluon.html.BUTTON'>, ...}"
p103
sg35
S"'layout.html'"
p104
sssS'traceback'
p105
S'Traceback (most recent call last):\n  File "C:\\Users\\capf9\\Desktop\\University\\web2py_win\\web2py\\gluon\\template.py", line 450, in _get_file_text\n    fileobj = open(filepath, \'rb\')\nIOError: [Errno 2] No such file or directory: \'C:\\\\Users\\\\capf9\\\\Desktop\\\\University\\\\web2py_win\\\\web2py\\\\applications\\\\SisPIO\\\\views\\\\layout.html\'\n'
p106
s.