(dp1
S'output'
p2
S"<type 'exceptions.NameError'> name 'formulario' is not defined"
p3
sS'layer'
p4
S'C:\\Users\\Rafael Cisneros\\Desktop\\web2py\\web2py\\applications\\SisPIOrafael2\\views\\default/admin.html'
p5
sS'code'
p6
S'response.write(\'<!DOCTYPE html>\\r\\n\\r\\n \', escape=False)\nresponse.write(\'<html lang="es">\\r\\n\\r\\n<head>\\r\\n    <meta charset="utf-8">\\r\\n    <meta http-equiv="X-UA-Compatible" content="IE=edge">\\r\\n    <meta name="viewport" content="width=device-width, initial-scale=1">\\r\\n    <!-- The above 3 meta tags *must* come first in the head; any other head content must come *after* these tags. Will make it responsive-->\\r\\n    <title>Sistema PIO</title>\\r\\n    <link rel="shortcut icon" href="\', escape=False)\nresponse.write(URL(\'static\', \'images/logoUSB.png\'))\nresponse.write(\'" />\\r\\n     <!-- Bootstrap -->\\r\\n    <link href="\', escape=False)\nresponse.write(URL(\'static\', \'css/bootstrap.min.css\'))\nresponse.write(\'" rel="stylesheet">\\r\\n    <link href="\', escape=False)\nresponse.write(URL(\'static\', \'css/bootstrap-theme.min.css\'))\nresponse.write(\'" rel="stylesheet">\\r\\n    <link href="\', escape=False)\nresponse.write(URL(\'static\', \'css/index.css\'))\nresponse.write(\'" rel="stylesheet">\\r\\n\\r\\n\\r\\n    <!-- HTML5 shim and Respond.js for IE8 support of HTML5 elements and media queries -->\\r\\n    <!-- WARNING: Respond.js doesn\\\'t work if you view the page via file:// -->\\r\\n    <!--[if lt IE 9]>\\r\\n      <script src="https://oss.maxcdn.com/html5shiv/3.7.3/html5shiv.min.js"></script>\\r\\n      <script src="https://oss.maxcdn.com/respond/1.4.2/respond.min.js"></script>\\r\\n    <![endif]-->\\r\\n</head>\\r\\n<div class="container">\\r\\n        <div class="row">\\r\\n            <!--HEADER --> \\r\\n            <div class="col-sm-12">\\r\\n                <img id="Logo" class="img-responsive" src="\', escape=False)\nresponse.write(URL(\'static\', \'images/bar7.png\'))\nresponse.write(\'" >\\r\\n            </div>\\r\\n            \\r\\n             <!--Navbar -->\\r\\n            <div class=" col-sm-12">\\r\\n                \\r\\n                <nav class="navbar navbar-default inicioSesion">\\r\\n                  <div class="container-fluid">\\r\\n                    <!-- Brand and toggle get grouped for better mobile display -->\\r\\n                    <div class="navbar-header">\\r\\n                      <button type="button" class="navbar-toggle collapsed" data-toggle="collapse" data-target="#bs-example-navbar-collapse-1" aria-expanded="false">\\r\\n                        <span class="sr-only">Toggle navigation</span>\\r\\n                        <span class="icon-bar"></span>\\r\\n                        <span class="icon-bar"></span>\\r\\n                        <span class="icon-bar"></span>\\r\\n                      </button>\\r\\n                    </div>\\r\\n\\r\\n                    <!-- Collect the nav links, forms, and other content for toggling -->\\r\\n                    <div class="collapse navbar-collapse" id="bs-example-navbar-collapse-1">\\r\\n                      <ul class="nav navbar-nav navbar-right">\\r\\n                          <li class="dropdown">\\r\\n                              <a href="#" class="dropdown-toggle" data-toggle="dropdown" role="button" aria-haspopup="true" aria-expanded="false">Nombre de usuario <span class="caret"></span></a>\\r\\n                              <ul class="dropdown-menu">\\r\\n                                    <li id="userinfo"><a href="#"><span class="glyphicon glyphicon-user "></span> Mi perfil </a></li>\\r\\n                                    <li id="enviar"><a href="#"><span class="glyphicon glyphicon-envelope"></span> Contactanos</a></li>\\r\\n                                    <li role="separator" class="divider"></li>\\r\\n                                    <li><a href="\', escape=False)\nresponse.write(URL(\'default\', \'user\', args=\'logout\'))\nresponse.write(\'"><span class="glyphicon glyphicon-log-out"></span> Salir </a></li>\\r\\n                              </ul>\\r\\n                          </li>\\r\\n                        </ul>\\r\\n                    </div><!-- /.navbar-collapse -->\\r\\n                  </div><!-- /.container-fluid -->\\r\\n                </nav>\\r\\n            </div><!--col12-->\\r\\n        </div><!--row-->\\r\\n            \\r\\n    </div><!--container-->\\r\\n<body>\\r\\n\', escape=False)\nresponse.write(\'\\r\\n\\r\\n\\r\\n    <div  class="container">\\r\\n         <!-- Information-->\\r\\n        <div id="inicio" class="row">\\r\\n            <div class="col-md-12">  \\r\\n              <div class="row">\\r\\n                <div class="col-md-3">\\r\\n                    <!--Aspirantes-->\\r\\n                    <h3> Aspirantes </h3>\\r\\n                    <div class="row">\\r\\n                    <ul class="nav nav-pills nav-stacked">\\r\\n                    <li role="presentation"><a id="add">Agregar Manualmente </a></li>\\r\\n                     <li role="presentation" ><a id="upload" href="#">Cargar archivo</a></li>\\r\\n                      <li role="presentation"><a id="lookfor" href="#">Consultar</a></li>\\r\\n                     <li role="presentation"><a id="edit" href="#">Modificar</a></li>\\r\\n                     <li role="presentation"><a id="delete" href="#">Eliminar</a></li>\\r\\n                      <li role="presentation"><a id="comp" href="#">Generar comprobante</a></li>\\r\\n                    </ul>\\r\\n                    </div>\\r\\n                     <!--OTROS-->   \\r\\n                    <h3> Otros </h3>\\r\\n                    <div class="row">\\r\\n                    <ul class="nav nav-pills nav-stacked">\\r\\n                      <li role="presentation" class="active"><a id="principal" href="#">Inicio</a></li>\\r\\n                     <li role="presentation" ><a id="news" href="#">Noticias</a></li>\\r\\n                      <li role="presentation"><a class="perfil" href="#">Mi Perfil</a></li>\\r\\n                      <li role="presentation"><a id="contacto" href="#">Correo Masivo</a></li>\\r\\n                      <li role="presentation"><a id="pass" href="#">Cambiar contrase\\xc3\\xb1a</a></li>\\r\\n                      <li role="presentation"><a id="logOut" href="\', escape=False)\nresponse.write(URL(\'default\', \'user\', args=\'logout\'))\nresponse.write(\'">Salir</a></li>\\r\\n                    </ul>\\r\\n                        <br>\\r\\n                  </div>\\r\\n                </div>\\r\\n                <div class="col-md-9">\\r\\n                    <!-- INICIO -->\\r\\n                    <div id="information">\\r\\n                         <h1> Bienvenido al PIO </h1>\\r\\n                        <br><br>\\r\\n                        <p><strong>Coordinadores,</strong></p><br>\\r\\n                        <p class="textCoor">\\r\\n                            Bienvenido al Sistema PIO, para continuar en el proceso de carga de estudiantes es obligatorio llenar el siguiente formulario: <a class="perfil"><strong>Validar mis datos </strong></a></p>\\r\\n                        <p class="textCoor"> \\r\\n                            Recuerde imprimir su comprobante de carga de estudiantes con la opcion generar comprobante, luego de ingresar a sus alumnos al sistema.</p>\\r\\n                        <div>\\r\\n                            <h1 class="datos1">\', escape=False)\nresponse.write(formAdministrador[0][0][1][0])\nresponse.write(\'  </h1>\\r\\n                            <h1 class="datos1"><a id="Editar" href="#"><span class="glyphicon glyphicon-edit green-icn"></span></a></h1>\\r\\n                            <p class="datos">\\r\\n                                <b>Nombre completo: </b> Maigualida Margarita De la Santisima Trinidad Perez Bustamante\\r\\n                                <br>\\r\\n                                <b>Cedula de identidad: </b> 1234567<br>\\r\\n                                <b>Correo electronico: </b> fulanito@uncorreo.com <br>\\r\\n                                <b>Telefono:</b>  (0123) 25689632\\r\\n                                <br>\\r\\n                            </p>\\r\\n                        </div>\\r\\n                    </div>\\r\\n                    <!-- Noticias -->\\r\\n                    <div id="noticias">\\r\\n                        <h1>Noticias</h1>\\r\\n                        <p class="textCoor">No hay noticias recientes</p>\\r\\n                    \\r\\n                    </div>\\r\\n                    <!--Agregar Manual-->\\r\\n                    <div id="agregar">\\r\\n                        <form enctype="multipart/form-data" method="post" >\\r\\n                                <legend><h2>Agregar usuarios al Sistema PIO</h2></legend>\\r\\n                                    <div class="form-group" id="tipo">\\r\\n                                        <p class="textCoor">Seleccione el tipo de usuario a cargar:</p>\\r\\n                                        <div class="radio">\\r\\n                                                <label class="textCoor"><input id="cargarEstudiante" type="radio" name="cargarManual" value="estudiante" checked>Estudiante</label>\\r\\n                                        </div>\\r\\n                                        <div class="radio">\\r\\n                                                  <label class="textCoor"><input id="cargarProfesor" type="radio" name="cargarManual" value="profesor">Profesor</label>\\r\\n                                        </div>\\r\\n                                        <div class="radio">\\r\\n                                                  <label class="textCoor"><input id="cargarLiceo" type="radio" name="cargarManual" value="liceo">Coordinador liceo</label>\\r\\n                                        </div>\\r\\n                                        <div class="radio">\\r\\n                                                  <label class="textCoor"><input id="cargarSede" type="radio" name="cargarManual" value="sede">Coordinador sede</label>\\r\\n                                        </div>\\r\\n                                    </div>\\r\\n                        \\r\\n                        <div id="manualAgregar">\\r\\n                            <legend>Datos personales</legend>\\r\\n                        <!-- Person ID -->\\r\\n                            <label for="cedula">Cedula de identidad: </label>\\r\\n                            <input type="text" id="cedula" name="ID" placeholder="Cedula de identidad" required> <br>\\r\\n                        <!-- Person name -->\\r\\n                            <label for="name">Nombres: </label>\\r\\n                            <input type="text" id="name" name="Nombre" placeholder="Primer y segundo nombre" required > <br>\\r\\n                        <!-- Person last name -->\\r\\n                            <label for="apellido">Apellidos: </label>\\r\\n                            <input type="text" id="apellido" name="Apellido" placeholder="Primer y segundo apellido" required> <br>\\r\\n                        <!-- Liceo procedencia-->\\r\\n                        <div id="manualLiceo">\\r\\n                            <label for="liceoProcedencia" >Liceo de procedencia: </label>\\r\\n                            <select class="select-style"  id="liceoProcedencia" required>\\r\\n                                <option value="0" disable >Seleccione uno</option>\\r\\n                                <option value="programa" >Programa de Cadena 2017</option>\\r\\n                            </select>\\r\\n                            <br>\\r\\n                        </div>\\r\\n                        <!-- sede procedencia-->\\r\\n                        <div id="manualSede">\\r\\n                            <label for="sede" >Sede de procedencia: </label>\\r\\n                            <select class="select-style" id="sede" name="sede" required>\\r\\n                                <option value=" " disable >Seleccione uno</option>\\r\\n                                <option value="USB">USB</option>\\r\\n                            </select>\\r\\n                            <br>\\r\\n                        </div>\\r\\n                        <!-- Person average-->\\r\\n                        <div id="manualPromedio">\\r\\n                            <label for="promedioEntero">Promedio:</label>\\r\\n                            <input type="number" min="0" max="2" step="1" value="0" id="promedioEntero" class="text-right" id="PromedioEntero" name="PromedioEntero" required="">\\r\\n                            <strong> .</strong>\\r\\n                            <input type="number" min="0" max="2" step="1" value="0" id="promedioDecimal" class="text-right" name="PromedioDecimal" required>\\r\\n                            <br>\\r\\n                        </div>\\r\\n                        <!--Person email -->\\r\\n                            <label for="email">Email: </label>\\r\\n                            <input type="email" id="email" name="Email" placeholder="Correo electronico"><br>\\r\\n                        <!-- Person mobile -->\\r\\n                            <label for="mobile">Telefono principal: </label>\\r\\n                            <input type="tel" id="mobile" name="Mobile" placeholder="Telefono principal" max="11">\\r\\n                            <br>\\r\\n                        <!-- Person address-->\\r\\n                            <label class="dir" for="direccion">Direccion:</label>\\r\\n                            <div class="textarea1"><textarea id="direccion" > </textarea> </div>\\r\\n                            <br>\\r\\n                        </div><!-- manual agregar-->\\r\\n\\r\\n                         <br>\\r\\n                        \\r\\n                        <div class="save text-center"><input type="submit" class="btn btn-primary save" value="Agregar"></div>\\r\\n                        <div style="display:none;" >\\r\\n                            <input type="hidden" name="_formname" value="formulario">\\r\\n                        </div>\\r\\n                      </form>\\r\\n                    \', escape=False)\nresponse.write(formulario)\nresponse.write(\'\\r\\n                    </div>\\r\\n                     <!--CARGAR ARCHIVO-->\\r\\n                    <div id="cargar">\\r\\n                         <div class="row">\\r\\n                                    <form action="" enctype="multipart/form-data" method="post">\\r\\n                                        <fieldset>\\r\\n                                            <legend><h2>Cargar archivo</h2></legend>\\r\\n                                            <div class="form-group" id="tipo">\\r\\n                                                <p class="textCoor">Seleccione el tipo de usuario a cargar:</p>\\r\\n                                                <div class="radio">\\r\\n                                                <label class="textCoor"><input type="radio" name="optradio" value="estudiante" checked>Estudiante</label>\\r\\n                                                </div>\\r\\n                                                <div class="radio">\\r\\n                                                  <label class="textCoor"><input type="radio" name="optradio" value="profesor">Profesor</label>\\r\\n                                                </div>\\r\\n                                                <div class="radio">\\r\\n                                                  <label class="textCoor"><input type="radio" name="optradio" value="liceo">Coordinador liceo</label>\\r\\n                                                </div>\\r\\n                                                <div class="radio">\\r\\n                                                  <label class="textCoor"><input type="radio" name="optradio" value="sede">Coordinador sede</label>\\r\\n                                                </div>\\r\\n                                            </div>\\r\\n                                        </fieldset>\\r\\n                                        <fieldset>\\r\\n                                                <legend>Seleccionar archivo</legend>\\r\\n                                                <div class="form-group">\\r\\n                                                    <br>\\r\\n                                                    <input name="_formname" type="hidden" value="formularioArchivo">\\r\\n                                                    <p class="textCoor">Por favor selecione su archivo a cargar y presione enviar de tipo:</p><br>\\r\\n                                                    <label for="file" class="textCoor">Archivo: </label> \\r\\n                            \\t\\t\\t\\t        <input class="upload" type="file" id="file" name="fileToUpload" required><br><br>\\r\\n                                                     \\r\\n                                                </div>\\r\\n                                        </fieldset>\\r\\n                                       <div class="save text-center"><input type="submit" class="btn btn-primary save" value="Enviar"></div>\\r\\n                                    </form>\\r\\n                                </div>\\r\\n                             <br>\\r\\n                             \', escape=False)\nif len(erroresCarga) != 0:\n    response.write(\'\\r\\n                             Errores en la carga:\\r\\n                             <br>\\r\\n                             \', escape=False)\n    for i in erroresCarga:\n        response.write(\'\\r\\n                             \', escape=False)\n        response.write(i)\n        response.write(\'\\r\\n                             <br>\\r\\n                             \', escape=False)\n        pass\n    response.write(\'\\r\\n                             \', escape=False)\n    pass\nresponse.write(\'\\r\\n                             <br>\\r\\n                             \', escape=False)\nif len(cargaExitosa) != 0:\n    response.write(\'\\r\\n                             Cargados exitosamente\\r\\n                             <br>\\r\\n                             \', escape=False)\n    for i in cargaExitosa:\n        response.write(\'\\r\\n                             \', escape=False)\n        response.write(i)\n        response.write(\'\\r\\n                             <br>\\r\\n                             \', escape=False)\n        pass\n    response.write(\'\\r\\n                             \', escape=False)\n    pass\nresponse.write(\'\\r\\n                        </div>\\r\\n                    </div>\\r\\n                    <!-- MI PERFIL -->\\r\\n                    <div id="miPerfil" class="row">\\r\\n                     <form method="get" >\\r\\n                        \\r\\n                        <fieldset>\\r\\n                            <legend>Datos personales</legend>\\r\\n                        <!-- Person ID -->\\r\\n                            <label for="cedula">Cedula de identidad: </label>\\r\\n                            <input type="text" id="cedula" name="ID" placeholder="Cedula de identidad" readonly="readonly"> <br>\\r\\n                        <!-- Person name -->\\r\\n                            <label for="name">Nombres: </label>\\r\\n                            <input type="text" id="nombre" name="Nombre" placeholder="Primer y segundo nombre" required readonly="readonly"> <br>\\r\\n                        <!-- Person last name -->\\r\\n                            <label for="apellido">Apellidos: </label>\\r\\n                            <input type="text" id="apellido" name="Apellido" placeholder="Primer y segundo apellido" readonly="readonly"> <br>\\r\\n                        \\r\\n                        <!-- Person gender -->\\r\\n                            <label for="gender">Genero: </label>\\r\\n                            <input type="radio" class="gender" name="gender" value="female">Femenino \\r\\n                            <input type="radio" class="gender" name="gender" value="male" checked>Masculino <br>\\r\\n                        <!-- Person age-->\\r\\n                            <label for="age">Edad:</label>\\r\\n                            <input type="number" min="0" max="150" step="1" value="18" id="age" name="age" required><br>\\r\\n                        <!-- Person Birth-->\\r\\n                            <label for="birthday">Fecha de nacimiento:</label>\\r\\n                            <input type="date" id="birthday" name="birthday" required><br>\\r\\n                        <!-- Person average-->\\r\\n                            <label for="promedioEntero">Promedio:</label>\\r\\n                            <input type="number" min="0" max="20" step="1" value="0" id="promedioEntero" class="text-right" name="PromedioEntero" readonly="readonly">\\r\\n                            <strong> .</strong>\\r\\n                            <input type="number" min="0" max="20" step="1" value="0" id="promedioDecimal" class="text-right" name="PromedioDecimal" readonly="readonly">\\r\\n                            \\r\\n                            <br>\\r\\n                        <!-- Person country -->\\r\\n                            <label for="country" >Liceo de procedencia: </label>\\r\\n                            <select class="select-style" name="cities" >\\r\\n                                <option value="ccs" disable >Seleccione uno</option>\\r\\n                                <option value="ccs">Programa de Cadena 2017</option>\\r\\n                            </select>\\r\\n                        </fieldset> <br>\\r\\n                        <fieldset>\\r\\n                            <legend>Informacion de contacto</legend>\\r\\n                        <!--Person email -->\\r\\n                            <label for="email">Email: </label>\\r\\n                            <input type="email" id="email" name="Email" placeholder="Correo electronico" required><br>\\r\\n                        <!-- Person mobile -->\\r\\n                            <label for="mobile">Telefono principal: </label>\\r\\n                            <input type="tel" id="mobile" name="Mobile" placeholder="Telefono principal" require max="11">\\r\\n                            <br>\\r\\n                        <!-- Person mobile -->\\r\\n                            <label for="secundario">Telefono secundario: </label>\\r\\n                            <input type="tel" id="secundario" name="Mobile2" placeholder="Telefono secundario" require max="11">\\r\\n                            <br>\\r\\n                        <!-- Person address-->\\r\\n                            <label class="dir" for="direccion">Direccion:</label>\\r\\n                            <div class="textarea1"><textarea id="direccion" > </textarea> </div>\\r\\n                            <br>\\r\\n                        </fieldset> <br>\\r\\n                        \\r\\n                        <div class="save text-center"><input type="submit" class="btn btn-primary save" value="Guardar"></div>\\r\\n                      </form>\\r\\n                     </div>\\r\\n                    <!-- CONSULTA -->\\r\\n                    <div id="consultar" >\\r\\n                      <form method="get" >\\r\\n                        <h1>Consultas </h1><br>\\r\\n                        <p class="textCoor">Busqueda de todos los alumnos:</p>\\r\\n                            <div class="form-group">\\r\\n                                   <input type="checkbox" class="gender marg" name="todos" value="todos" checked>Todos<br>\\r\\n                            </div>\\r\\n                           <div class="buscar"><button type="button" class="btn btn-primary save"  value="Consultar" data-toggle="modal" data-target="#ConsultarModal">\\r\\n                              Consultar\\r\\n                            </button></div>\\r\\n                         <!-- institucionn -->\\r\\n                            <p class="textCoor">Busqueda por:</p><br>\\r\\n                            <div class="form-group">\\r\\n                            <label for="institucion"  class="col-sm-2 control-label lineCentral">Institucion: </label>\\r\\n                                <select class="selectStyle" name="institucion" required >\\r\\n                                    <option value="" inactive >Seleccione una institucion</option>\\r\\n                                    <option value="">Institucion</option>\\r\\n                                </select>\\r\\n                            </div>\\r\\n                        <br>\\r\\n                             <!-- Por profesor -->\\r\\n                            \\r\\n                            <div class="form-group">\\r\\n                            <label for="profesor"  class="col-sm-2 control-label lineCentral">Profesor: </label>\\r\\n                                <select class="selectStyle" name="profesor" required >\\r\\n                                    <option value="" inactive >Seleccione un profesor</option>\\r\\n                                    <option value="">Institucion</option>\\r\\n                                </select>\\r\\n                            </div>\\r\\n                        <br>\\r\\n                             <!-- Por cohorte -->\\r\\n                                \\r\\n                                <div class="form-group">\\r\\n                                <label for="profesor"  class="col-sm-2 control-label lineCentral">Cohorte: </label>\\r\\n                                    <select class="selectStyle" name="profesor" required >\\r\\n                                        <option value="" inactive >Seleccione una cohorte</option>\\r\\n                                        <option value="">Institucion</option>\\r\\n                                    </select>\\r\\n                                </div>\\r\\n                            <br>\\r\\n                               \\r\\n                             <!--Edad-->\\r\\n                                    <div class="form-group">\\r\\n                                    <label for="profesor"  class="col-sm-2 control-label lineCentral">Edad: </label>\\r\\n                                        <select class="selectStyle" name="profesor" required >\\r\\n                                            <option value="" inactive >Seleccione una edad</option>\\r\\n                                            <option value="">Institucion</option>\\r\\n                                        </select>\\r\\n                                    </div>\\r\\n                                <br>\\r\\n                        <!--Genero--> \\r\\n                                \\r\\n                                <div class="form-group">\\r\\n                                <label for="profesor"  class="col-sm-2 control-label lineCentral">Genero: </label>\\r\\n                                   <input type="checkbox" class="gender marg" name="gender" value="female" >Femenino<br>\\r\\n\\t\\t\\t\\t                    <input type="checkbox" class="gender marg" name="gender" value="male" >Masculino <br>\\r\\n                                </div>\\r\\n                            <br>\\r\\n                        <!--NOtas-->\\r\\n                                <div class="form-group">\\r\\n                                    <strong>Nota menor que:</strong>\\r\\n                                    <input type="number" min="0" max="20" step="1" value="0" id="promedioEntero" class="text-right" name="PromedioEntero">\\r\\n                                    <strong>  Nota mayor que: </strong>\\r\\n                                    <input type="number" min="0" max="20" step="1" value="0" id="promedioDecimal" class="text-right" name="PromedioDecimal"><br>\\r\\n                                </div>\\r\\n                            <br>\\r\\n                         <!--Fecha-->\\r\\n                                <div class="form-group" style="margin-left: 250px;">\\r\\n                                    <strong>Fecha entre:</strong>\\r\\n                                    <input type="date" id="fecha1" name="fecha" required>\\r\\n                                    <strong> y : </strong>\\r\\n                                    <input type="date" id="fecha2" name="fecha" required><br><br>\\r\\n                                </div>\\r\\n                            <br>\\r\\n                           <!-- Button trigger modal -->\\r\\n                            <div class="save text-center"><button type="button" class="btn btn-primary save"  value="Consultar">\\r\\n                              Consultar </button>\\r\\n                            </div>\\r\\n                        </form>\\r\\n                    </div>\\r\\n                    <!--MODIFICAR-->\\r\\n                    <div id="modificar">\\r\\n                        <h1>Modificar datos </h1>\\r\\n                    </div>\\r\\n                    <!--Eliminar-->\\r\\n                    <div id="eliminar">\\r\\n                        <h1>Eliminar usuario </h1>\\r\\n                        <label class="textCoor" for="contrase\\xc3\\xb1a">Ingresar CI : </label>\\r\\n                            <input type="password" id="eliminarUsuario" name="ci" placeholder="Cedula de Identidad" required> \\r\\n                            <br>\\r\\n                            <br>\\r\\n                        <div class="save text-center"><input type="submit" class="btn btn-primary save" value="Eliminar"></div>\\r\\n                    </div>\\r\\n                    <!--REPORTE-->\\r\\n                    <div id="reporte">\\r\\n                        <h1>Generar comprobrante</h1>\\r\\n                    </div>\\r\\n                    \\r\\n                    <!-- CONTRASENA -->\\r\\n                    <div id="cambioContra" class="row">\\r\\n                        <h1>Cambiar contrase\\xc3\\xb1a</h1><br><br>\\r\\n                    <form method="get">\\r\\n                       <!-- Contrase;a actual -->\\r\\n                            <label for="contrase\\xc3\\xb1a">Contrase\\xc3\\xb1a actual: </label>\\r\\n                            <input type="password" id="contrasena" name="contrase\\xc3\\xb1a" placeholder="Contrase\\xc3\\xb1a actual" required> <br>\\r\\n                        <!-- Contrase;a nueva -->\\r\\n                            <label for="contrase\\xc3\\xb1a">Contrase\\xc3\\xb1a nueva: </label>\\r\\n                            <input type="password" id="password" name="contrase\\xc3\\xb1a" placeholder="Contrase\\xc3\\xb1a nueva" required> <br>\\r\\n                        <!-- Contrase;a nueva -->\\r\\n                            <label for="contrase\\xc3\\xb1a">Confirmar contrase\\xc3\\xb1a: </label>\\r\\n                            <input type="password" id="confirm_password" name="contrase\\xc3\\xb1a" placeholder="Contrase\\xc3\\xb1a nueva" required> <br><br>\\r\\n                        <div class="save text-center"><input type="submit" class="btn btn-primary save" value="Guardar"></div>\\r\\n                        </form>\\r\\n                    </div>\\r\\n                    <!-- Contactanos -->\\r\\n                    <div id="enviarEmail" class="row">\\r\\n                        <h1>Correos Masivos </h1>\\r\\n                        <p class="textCoor marg">Seleccione a las personas que sera dirigido el correo electronico</p>\\r\\n\\r\\n                        <p class="textCoor marg "> Si presenta algun problema comunicarse con el servicio tecnico.</p>\\r\\n                        <form role="form" method="post" >\\r\\n                            <br><br>\\r\\n                            <!-- institucionn -->\\r\\n                            <div class="form-group">\\r\\n                                <label for="quien"  class="col-sm-2 control-label lineCentral">Dirigido a: </label><br>\\r\\n                                   <br><input type="checkbox" class="gender marg" name="estudiantes" value="Estudiantes" >Estudiantes<br>\\r\\n                                    <input type="checkbox" class="gender marg" name="profesores" value="Profesores" >Profesores <br>\\r\\n                                    <input type="checkbox" class="gender marg" name="coordinadorLiceo" value="CoorLiceo" >Coordinadores Liceo <br>\\r\\n                                    <input type="checkbox" class="gender marg" name="coorPio" value="coorPio" >Coordinador Pio<br>\\r\\n                            </div>\\r\\n                        <br>\\r\\n                            <!-- Asunto-->\\r\\n                            <div class="form-group">\\r\\n                                <label for="name" class="col-sm-4 control-label">Correo especifico:</label>\\r\\n                                <br><br>\\r\\n                                <div class="col-sm-10">\\r\\n                                    <input type="email" class="form-control" id="email" name="email" placeholder="Ingrese correo destino" value="" required>\\r\\n                                </div>\\r\\n                            </div>\\r\\n                            <br>\\r\\n                           <br>\\r\\n                            <!-- Asunto-->\\r\\n                            <div class="form-group">\\r\\n                                <label for="name" class="col-sm-2 control-label">Asunto</label>\\r\\n                                <br><br>\\r\\n                                <div class="col-sm-10">\\r\\n                                    <input type="text" class="form-control" id="asunto" name="asunto" placeholder="Asunto" value="" required>\\r\\n                                </div>\\r\\n                            </div>\\r\\n                           <br>\\r\\n                            <!-- mensaje -->\\r\\n                            <div class="form-group">\\r\\n                                <br><br>\\r\\n                                <label for="message" class="col-sm-2 control-label">Mensaje</label><br><br>\\r\\n                                <div class="col-sm-10">\\r\\n                                    <textarea class="form-control" rows="4" name="message" required></textarea>\\r\\n                                </div>\\r\\n                            </div>\\r\\n                            \\r\\n                            <div class="form-group">\\r\\n                                <div class="col-sm-10 col-sm-offset-2">\\r\\n                                    <br><br><div class="send">\\r\\n                                    <input id="submit" name="submit" type="submit" value="Enviar" class="btn btn-primary"></div>\\r\\n                                    <br><br>\\r\\n                                    <br>\\r\\n                                </div>\\r\\n                            </div>\\r\\n                        </form>\\r\\n                    </div> <!-- enviar email -->\\r\\n                    \\r\\n                </div> <!--row-->\\r\\n                </div><!--col-md-12-->\\r\\n              </div><!--row-->\\r\\n                \\r\\n            </div><!-- container -->\\r\\n    \\r\\n    \\r\\n    \\r\\n\\r\\n\\r\\n\', escape=False)\nresponse.write(\'\\r\\n<footer class="container-fluid footer">\\r\\n        <div class="row">\\r\\n            <p class="text-center minText">Universidad Simon Bolivar<br>Sartenejas, Baruta, Edo. Miranda - Apartado 89000 - Cable Unibolivar - Caracas Venezuela. Tel\\xc3\\xa9fono +58 0212-9063111.<br>\\r\\nDise\\xc3\\xb1ada y desarrollada por Software for the World</p>\\r\\n        </div>\\r\\n    </footer>\\r\\n\\r\\n    <!-- jQuery (necessary for Bootstrap\\\'s JavaScript plugins) -->\\r\\n    <script src="https://ajax.googleapis.com/ajax/libs/jquery/1.12.4/jquery.min.js"></script>\\r\\n    <!-- Include all compiled plugins (below), or include individual files as needed -->\\r\\n    <script src="\', escape=False)\nresponse.write(URL(\'static\', \'js/bootstrap.min.js\'))\nresponse.write(\'"></script>\\r\\n    <script src="\', escape=False)\nresponse.write(URL(\'static\', \'js/Admin.js\'))\nresponse.write(\'"></script>\\r\\n    <script src="\', escape=False)\nresponse.write(URL(\'static\', \'js/welcome.js\'))\nresponse.write(\'"></script>\\r\\n    <script src="\', escape=False)\nresponse.write(URL(\'static\', \'js/CoorLiceo.js\'))\nresponse.write(\'"></script>\\r\\n    <script src="\', escape=False)\nresponse.write(URL(\'static\', \'js/CoorPio.js\'))\nresponse.write(\'"></script>\\r\\n    <!-- JQUERY-->\\r\\n</body>\\r\\n</html>\\r\\n\', escape=False)'
p7
sS'snapshot'
p8
(dp9
S'exception'
p10
(dp11
S'__hash__'
p12
S"<method-wrapper '__hash__' of exceptions.NameError object>"
p13
sS'__setattr__'
p14
S"<method-wrapper '__setattr__' of exceptions.NameError object>"
p15
sS'__reduce_ex__'
p16
S'<built-in method __reduce_ex__ of exceptions.NameError object>'
p17
sS'__getslice__'
p18
S"<method-wrapper '__getslice__' of exceptions.NameError object>"
p19
sS'__getitem__'
p20
S"<method-wrapper '__getitem__' of exceptions.NameError object>"
p21
sS'__setstate__'
p22
S'<built-in method __setstate__ of exceptions.NameError object>'
p23
sS'__reduce__'
p24
S'<built-in method __reduce__ of exceptions.NameError object>'
p25
sS'__str__'
p26
S"<method-wrapper '__str__' of exceptions.NameError object>"
p27
sS'__format__'
p28
S'<built-in method __format__ of exceptions.NameError object>'
p29
sS'__getattribute__'
p30
S"<method-wrapper '__getattribute__' of exceptions.NameError object>"
p31
sS'__class__'
p32
S"<type 'exceptions.NameError'>"
p33
sS'__unicode__'
p34
S'<built-in method __unicode__ of exceptions.NameError object>'
p35
sS'__delattr__'
p36
S"<method-wrapper '__delattr__' of exceptions.NameError object>"
p37
sS'__subclasshook__'
p38
S'<built-in method __subclasshook__ of type object>'
p39
sS'__repr__'
p40
S"<method-wrapper '__repr__' of exceptions.NameError object>"
p41
sS'args'
p42
S'("name \'formulario\' is not defined",)'
p43
sS'__dict__'
p44
S'{}'
p45
sS'__sizeof__'
p46
S'<built-in method __sizeof__ of exceptions.NameError object>'
p47
sS'__doc__'
p48
S"'Name not found globally.'"
p49
sS'__init__'
p50
S"<method-wrapper '__init__' of exceptions.NameError object>"
p51
sS'__new__'
p52
S'<built-in method __new__ of type object>'
p53
ssS'evalue'
p54
S"name 'formulario' is not defined"
p55
sS'request'
p56
cgluon.html
XML_unpickle
p57
(S's\xe9_\x00\x00<div><table><tr><td style="font-weight:bold;vertical-align:top;">ajax</td><td style="vertical-align:top;">:</td><td><div>False</div></td></tr><tr><td style="font-weight:bold;vertical-align:top;">application</td><td style="vertical-align:top;">:</td><td><div>SisPIOrafael2</div></td></tr><tr><td style="font-weight:bold;vertical-align:top;">args</td><td style="vertical-align:top;">:</td><td><div><table></table></div></td></tr><tr><td style="font-weight:bold;vertical-align:top;">cid</td><td style="vertical-align:top;">:</td><td><div>None</div></td></tr><tr><td style="font-weight:bold;vertical-align:top;">client</td><td style="vertical-align:top;">:</td><td><div>127.0.0.1</div></td></tr><tr><td style="font-weight:bold;vertical-align:top;">controller</td><td style="vertical-align:top;">:</td><td><div>default</div></td></tr><tr><td style="font-weight:bold;vertical-align:top;">cookies</td><td style="vertical-align:top;">:</td><td><div><table><tr><td style="font-weight:bold;vertical-align:top;">session_id_admin</td><td style="vertical-align:top;">:</td><td><div>127.0.0.1-766839b4-8edf-486c-81c6-e48b9a403c98<table><tr><td style="font-weight:bold;vertical-align:top;">comment</td><td style="vertical-align:top;">:</td><td><div></div></td></tr><tr><td style="font-weight:bold;vertical-align:top;">domain</td><td style="vertical-align:top;">:</td><td><div></div></td></tr><tr><td style="font-weight:bold;vertical-align:top;">expires</td><td style="vertical-align:top;">:</td><td><div></div></td></tr><tr><td style="font-weight:bold;vertical-align:top;">httponly</td><td style="vertical-align:top;">:</td><td><div></div></td></tr><tr><td style="font-weight:bold;vertical-align:top;">max-age</td><td style="vertical-align:top;">:</td><td><div></div></td></tr><tr><td style="font-weight:bold;vertical-align:top;">path</td><td style="vertical-align:top;">:</td><td><div></div></td></tr><tr><td style="font-weight:bold;vertical-align:top;">secure</td><td style="vertical-align:top;">:</td><td><div></div></td></tr><tr><td style="font-weight:bold;vertical-align:top;">version</td><td style="vertical-align:top;">:</td><td><div></div></td></tr></table></div></td></tr><tr><td style="font-weight:bold;vertical-align:top;">session_id_sispiorafael2</td><td style="vertical-align:top;">:</td><td><div>127.0.0.1-6d640340-cd97-483a-86db-9a3381f82725<table><tr><td style="font-weight:bold;vertical-align:top;">comment</td><td style="vertical-align:top;">:</td><td><div></div></td></tr><tr><td style="font-weight:bold;vertical-align:top;">domain</td><td style="vertical-align:top;">:</td><td><div></div></td></tr><tr><td style="font-weight:bold;vertical-align:top;">expires</td><td style="vertical-align:top;">:</td><td><div></div></td></tr><tr><td style="font-weight:bold;vertical-align:top;">httponly</td><td style="vertical-align:top;">:</td><td><div></div></td></tr><tr><td style="font-weight:bold;vertical-align:top;">max-age</td><td style="vertical-align:top;">:</td><td><div></div></td></tr><tr><td style="font-weight:bold;vertical-align:top;">path</td><td style="vertical-align:top;">:</td><td><div></div></td></tr><tr><td style="font-weight:bold;vertical-align:top;">secure</td><td style="vertical-align:top;">:</td><td><div></div></td></tr><tr><td style="font-weight:bold;vertical-align:top;">version</td><td style="vertical-align:top;">:</td><td><div></div></td></tr></table></div></td></tr><tr><td style="font-weight:bold;vertical-align:top;">session_id_welcome</td><td style="vertical-align:top;">:</td><td><div>127.0.0.1-f7709821-8a5d-4eee-b3b8-a5803d5917f4<table><tr><td style="font-weight:bold;vertical-align:top;">comment</td><td style="vertical-align:top;">:</td><td><div></div></td></tr><tr><td style="font-weight:bold;vertical-align:top;">domain</td><td style="vertical-align:top;">:</td><td><div></div></td></tr><tr><td style="font-weight:bold;vertical-align:top;">expires</td><td style="vertical-align:top;">:</td><td><div></div></td></tr><tr><td style="font-weight:bold;vertical-align:top;">httponly</td><td style="vertical-align:top;">:</td><td><div></div></td></tr><tr><td style="font-weight:bold;vertical-align:top;">max-age</td><td style="vertical-align:top;">:</td><td><div></div></td></tr><tr><td style="font-weight:bold;vertical-align:top;">path</td><td style="vertical-align:top;">:</td><td><div></div></td></tr><tr><td style="font-weight:bold;vertical-align:top;">secure</td><td style="vertical-align:top;">:</td><td><div></div></td></tr><tr><td style="font-weight:bold;vertical-align:top;">version</td><td style="vertical-align:top;">:</td><td><div></div></td></tr></table></div></td></tr></table></div></td></tr><tr><td style="font-weight:bold;vertical-align:top;">env</td><td style="vertical-align:top;">:</td><td><div><table><tr><td style="font-weight:bold;vertical-align:top;">HTTP_ACCEPT</td><td style="vertical-align:top;">:</td><td><div>text/html,application/xhtml+xml,application/xml;q=0.9,image/webp,image/apng,*/*;q=0.8</div></td></tr><tr><td style="font-weight:bold;vertical-align:top;">HTTP_ACCEPT_ENCODING</td><td style="vertical-align:top;">:</td><td><div>gzip, deflate, br</div></td></tr><tr><td style="font-weight:bold;vertical-align:top;">HTTP_ACCEPT_LANGUAGE</td><td style="vertical-align:top;">:</td><td><div>es-419,es;q=0.8</div></td></tr><tr><td style="font-weight:bold;vertical-align:top;">HTTP_CACHE_CONTROL</td><td style="vertical-align:top;">:</td><td><div>max-age=0</div></td></tr><tr><td style="font-weight:bold;vertical-align:top;">HTTP_CONNECTION</td><td style="vertical-align:top;">:</td><td><div>keep-alive</div></td></tr><tr><td style="font-weight:bold;vertical-align:top;">HTTP_COOKIE</td><td style="vertical-align:top;">:</td><td><div>session_id_welcome=127.0.0.1-f7709821-8a5d-4eee-b3b8-a5803d5917f4; session_id_admin=127.0.0.1-766839b4-8edf-486c-81c6-e48b9a403c98; session_id_sispiorafael2=127.0.0.1-6d640340-cd97-483a-86db-9a3381f82725</div></td></tr><tr><td style="font-weight:bold;vertical-align:top;">HTTP_HOST</td><td style="vertical-align:top;">:</td><td><div>127.0.0.1:8000</div></td></tr><tr><td style="font-weight:bold;vertical-align:top;">HTTP_REFERER</td><td style="vertical-align:top;">:</td><td><div>http://127.0.0.1:8000/SisPIOrafael2/default/index</div></td></tr><tr><td style="font-weight:bold;vertical-align:top;">HTTP_UPGRADE_INSECURE_REQUESTS</td><td style="vertical-align:top;">:</td><td><div>1</div></td></tr><tr><td style="font-weight:bold;vertical-align:top;">HTTP_USER_AGENT</td><td style="vertical-align:top;">:</td><td><div>Mozilla/5.0 (Windows NT 10.0; Win64; x64) AppleWebKit/537.36 (KHTML, like Gecko) Chrome/61.0.3163.100 Safari/537.36</div></td></tr><tr><td style="font-weight:bold;vertical-align:top;">PATH_INFO</td><td style="vertical-align:top;">:</td><td><div>/SisPIOrafael2/default/admin</div></td></tr><tr><td style="font-weight:bold;vertical-align:top;">QUERY_STRING</td><td style="vertical-align:top;">:</td><td><div></div></td></tr><tr><td style="font-weight:bold;vertical-align:top;">REMOTE_ADDR</td><td style="vertical-align:top;">:</td><td><div>127.0.0.1</div></td></tr><tr><td style="font-weight:bold;vertical-align:top;">REMOTE_PORT</td><td style="vertical-align:top;">:</td><td><div>50840</div></td></tr><tr><td style="font-weight:bold;vertical-align:top;">REQUEST_METHOD</td><td style="vertical-align:top;">:</td><td><div>GET</div></td></tr><tr><td style="font-weight:bold;vertical-align:top;">SCRIPT_NAME</td><td style="vertical-align:top;">:</td><td><div></div></td></tr><tr><td style="font-weight:bold;vertical-align:top;">SERVER_NAME</td><td style="vertical-align:top;">:</td><td><div>Rafa-PC</div></td></tr><tr><td style="font-weight:bold;vertical-align:top;">SERVER_PORT</td><td style="vertical-align:top;">:</td><td><div>8000</div></td></tr><tr><td style="font-weight:bold;vertical-align:top;">SERVER_PROTOCOL</td><td style="vertical-align:top;">:</td><td><div>HTTP/1.1</div></td></tr><tr><td style="font-weight:bold;vertical-align:top;">SERVER_SOFTWARE</td><td style="vertical-align:top;">:</td><td><div>Rocket 1.2.6</div></td></tr><tr><td style="font-weight:bold;vertical-align:top;">app_folders</td><td style="vertical-align:top;">:</td><td><div>set([&#x27;C:\\\\Users\\\\Rafael Cisneros\\\\Desktop\\\\web2py\\\\web2py\\\\applications\\\\SisPIOrafael2\\\\&#x27;, &#x27;C:\\\\Users\\\\Rafael Cisneros\\\\Desktop\\\\web2py\\\\web2py\\\\applications\\\\admin\\\\&#x27;, &#x27;C:\\\\Users\\\\Rafael Cisneros\\\\Desktop\\\\web2py\\\\web2py\\\\applications\\\\welcome\\\\&#x27;])</div></td></tr><tr><td style="font-weight:bold;vertical-align:top;">applications_parent</td><td style="vertical-align:top;">:</td><td><div>C:\\Users\\Rafael Cisneros\\Desktop\\web2py\\web2py</div></td></tr><tr><td style="font-weight:bold;vertical-align:top;">cmd_args</td><td style="vertical-align:top;">:</td><td><div><table></table></div></td></tr><tr><td style="font-weight:bold;vertical-align:top;">cmd_options</td><td style="vertical-align:top;">:</td><td><div>&lt;Values at 0x3c2bee0: {&#x27;verbose&#x27;: False, &#x27;ip&#x27;: &#x27;127.0.0.1&#x27;, &#x27;debuglevel&#x27;: 30, &#x27;with_scheduler&#x27;: False, &#x27;shutdown_timeout&#x27;: 5, &#x27;taskbar&#x27;: False, &#x27;with_coverage&#x27;: False, &#x27;pid_filename&#x27;: &#x27;httpserver.pid&#x27;, &#x27;maxthreads&#x27;: None, &#x27;softcron&#x27;: False, &#x27;server_name&#x27;: &#x27;Rafa-PC&#x27;, &#x27;bpython&#x27;: False, &#x27;nogui&#x27;: False, &#x27;port&#x27;: 8000, &#x27;print_errors&#x27;: False, &#x27;extcron&#x27;: False, &#x27;runcron&#x27;: False, &#x27;run_system_tests&#x27;: False, &#x27;test&#x27;: None, &#x27;folder&#x27;: &#x27;C:\\\\Users\\\\Rafael Cisneros\\\\Desktop\\\\web2py\\\\web2py&#x27;, &#x27;config&#x27;: &#x27;&#x27;, &#x27;minthreads&#x27;: None, &#x27;shell&#x27;: None, &#x27;run&#x27;: &#x27;&#x27;, &#x27;log_filename&#x27;: &#x27;httpserver.log&#x27;, &#x27;profiler_dir&#x27;: None, &#x27;args&#x27;: [&#x27;&#x27;], &#x27;socket_timeout&#x27;: 5, &#x27;ssl_ca_certificate&#x27;: None, &#x27;scheduler&#x27;: None, &#x27;interfaces&#x27;: None, &#x27;ssl_private_key&#x27;: &#x27;&#x27;, &#x27;gae&#x27;: None, &#x27;password&#x27;: &#x27;******&#x27;, &#x27;request_queue_size&#x27;: 5, &#x27;ssl_certificate&#x27;: &#x27;&#x27;, &#x27;cronjob&#x27;: False, &#x27;numthreads&#x27;: None, &#x27;quiet&#x27;: False, &#x27;import_models&#x27;: False, &#x27;timeout&#x27;: 10, &#x27;plain&#x27;: False, &#x27;nobanner&#x27;: False}&gt;</div></td></tr><tr><td style="font-weight:bold;vertical-align:top;">db_sessions</td><td style="vertical-align:top;">:</td><td><div>set([])</div></td></tr><tr><td style="font-weight:bold;vertical-align:top;">debugging</td><td style="vertical-align:top;">:</td><td><div>False</div></td></tr><tr><td style="font-weight:bold;vertical-align:top;">gluon_parent</td><td style="vertical-align:top;">:</td><td><div>C:\\Users\\Rafael Cisneros\\Desktop\\web2py\\web2py</div></td></tr><tr><td style="font-weight:bold;vertical-align:top;">http_accept</td><td style="vertical-align:top;">:</td><td><div>text/html,application/xhtml+xml,application/xml;q=0.9,image/webp,image/apng,*/*;q=0.8</div></td></tr><tr><td style="font-weight:bold;vertical-align:top;">http_accept_encoding</td><td style="vertical-align:top;">:</td><td><div>gzip, deflate, br</div></td></tr><tr><td style="font-weight:bold;vertical-align:top;">http_accept_language</td><td style="vertical-align:top;">:</td><td><div>es-419,es;q=0.8</div></td></tr><tr><td style="font-weight:bold;vertical-align:top;">http_cache_control</td><td style="vertical-align:top;">:</td><td><div>max-age=0</div></td></tr><tr><td style="font-weight:bold;vertical-align:top;">http_connection</td><td style="vertical-align:top;">:</td><td><div>keep-alive</div></td></tr><tr><td style="font-weight:bold;vertical-align:top;">http_cookie</td><td style="vertical-align:top;">:</td><td><div>session_id_welcome=127.0.0.1-f7709821-8a5d-4eee-b3b8-a5803d5917f4; session_id_admin=127.0.0.1-766839b4-8edf-486c-81c6-e48b9a403c98; session_id_sispiorafael2=127.0.0.1-6d640340-cd97-483a-86db-9a3381f82725</div></td></tr><tr><td style="font-weight:bold;vertical-align:top;">http_host</td><td style="vertical-align:top;">:</td><td><div>127.0.0.1:8000</div></td></tr><tr><td style="font-weight:bold;vertical-align:top;">http_referer</td><td style="vertical-align:top;">:</td><td><div>http://127.0.0.1:8000/SisPIOrafael2/default/index</div></td></tr><tr><td style="font-weight:bold;vertical-align:top;">http_upgrade_insecure_requests</td><td style="vertical-align:top;">:</td><td><div>1</div></td></tr><tr><td style="font-weight:bold;vertical-align:top;">http_user_agent</td><td style="vertical-align:top;">:</td><td><div>Mozilla/5.0 (Windows NT 10.0; Win64; x64) AppleWebKit/537.36 (KHTML, like Gecko) Chrome/61.0.3163.100 Safari/537.36</div></td></tr><tr><td style="font-weight:bold;vertical-align:top;">is_jython</td><td style="vertical-align:top;">:</td><td><div>False</div></td></tr><tr><td style="font-weight:bold;vertical-align:top;">is_pypy</td><td style="vertical-align:top;">:</td><td><div>False</div></td></tr><tr><td style="font-weight:bold;vertical-align:top;">is_source</td><td style="vertical-align:top;">:</td><td><div>False</div></td></tr><tr><td style="font-weight:bold;vertical-align:top;">local_hosts</td><td style="vertical-align:top;">:</td><td><div><table><tr><td><div>2001:0:5ef5:79fd:2c27:ffe:4138:404f</div></td></tr><tr><td><div>Rafa-PC.cantv.net</div></td></tr><tr><td><div>Rafa-PC</div></td></tr><tr><td><div>::ffff:127.0.0.1</div></td></tr><tr><td><div>::1</div></td></tr><tr><td><div>fe80::2c27:ffe:4138:404f%5</div></td></tr><tr><td><div>190.199.191.176</div></td></tr><tr><td><div>fe80::4018:b4d4:ee94:6775%15</div></td></tr><tr><td><div>127.0.0.1</div></td></tr></table></div></td></tr><tr><td style="font-weight:bold;vertical-align:top;">path_info</td><td style="vertical-align:top;">:</td><td><div>/SisPIOrafael2/default/admin</div></td></tr><tr><td style="font-weight:bold;vertical-align:top;">query_string</td><td style="vertical-align:top;">:</td><td><div></div></td></tr><tr><td style="font-weight:bold;vertical-align:top;">remote_addr</td><td style="vertical-align:top;">:</td><td><div>127.0.0.1</div></td></tr><tr><td style="font-weight:bold;vertical-align:top;">remote_port</td><td style="vertical-align:top;">:</td><td><div>50840</div></td></tr><tr><td style="font-weight:bold;vertical-align:top;">request_method</td><td style="vertical-align:top;">:</td><td><div>GET</div></td></tr><tr><td style="font-weight:bold;vertical-align:top;">request_uri</td><td style="vertical-align:top;">:</td><td><div>/SisPIOrafael2/default/admin</div></td></tr><tr><td style="font-weight:bold;vertical-align:top;">script_name</td><td style="vertical-align:top;">:</td><td><div></div></td></tr><tr><td style="font-weight:bold;vertical-align:top;">server_name</td><td style="vertical-align:top;">:</td><td><div>Rafa-PC</div></td></tr><tr><td style="font-weight:bold;vertical-align:top;">server_port</td><td style="vertical-align:top;">:</td><td><div>8000</div></td></tr><tr><td style="font-weight:bold;vertical-align:top;">server_protocol</td><td style="vertical-align:top;">:</td><td><div>HTTP/1.1</div></td></tr><tr><td style="font-weight:bold;vertical-align:top;">server_software</td><td style="vertical-align:top;">:</td><td><div>Rocket 1.2.6</div></td></tr><tr><td style="font-weight:bold;vertical-align:top;">web2py_path</td><td style="vertical-align:top;">:</td><td><div>C:\\Users\\Rafael Cisneros\\Desktop\\web2py\\web2py</div></td></tr><tr><td style="font-weight:bold;vertical-align:top;">web2py_version</td><td style="vertical-align:top;">:</td><td><div>2.14.6-stable+timestamp.2016.05.10.00.21.47</div></td></tr><tr><td style="font-weight:bold;vertical-align:top;">wsgi.errors</td><td style="vertical-align:top;">:</td><td><div>&lt;open file &#x27;&lt;stderr&gt;&#x27;, mode &#x27;w&#x27; at 0x0215D0D0&gt;</div></td></tr><tr><td style="font-weight:bold;vertical-align:top;">wsgi.file_wrapper</td><td style="vertical-align:top;">:</td><td><div>&lt;class wsgiref.util.FileWrapper at 0x02FFA068&gt;</div></td></tr><tr><td style="font-weight:bold;vertical-align:top;">wsgi.input</td><td style="vertical-align:top;">:</td><td><div>&lt;socket._fileobject object at 0x09D8CF70&gt;</div></td></tr><tr><td style="font-weight:bold;vertical-align:top;">wsgi.multiprocess</td><td style="vertical-align:top;">:</td><td><div>False</div></td></tr><tr><td style="font-weight:bold;vertical-align:top;">wsgi.multithread</td><td style="vertical-align:top;">:</td><td><div>True</div></td></tr><tr><td style="font-weight:bold;vertical-align:top;">wsgi.run_once</td><td style="vertical-align:top;">:</td><td><div>False</div></td></tr><tr><td style="font-weight:bold;vertical-align:top;">wsgi.url_scheme</td><td style="vertical-align:top;">:</td><td><div>http</div></td></tr><tr><td style="font-weight:bold;vertical-align:top;">wsgi.version</td><td style="vertical-align:top;">:</td><td><div><table><tr><td><div>1</div></td></tr><tr><td><div>0</div></td></tr></table></div></td></tr><tr><td style="font-weight:bold;vertical-align:top;">wsgi_errors</td><td style="vertical-align:top;">:</td><td><div>&lt;open file &#x27;&lt;stderr&gt;&#x27;, mode &#x27;w&#x27; at 0x0215D0D0&gt;</div></td></tr><tr><td style="font-weight:bold;vertical-align:top;">wsgi_file_wrapper</td><td style="vertical-align:top;">:</td><td><div>&lt;class wsgiref.util.FileWrapper at 0x02FFA068&gt;</div></td></tr><tr><td style="font-weight:bold;vertical-align:top;">wsgi_input</td><td style="vertical-align:top;">:</td><td><div>&lt;socket._fileobject object at 0x09D8CF70&gt;</div></td></tr><tr><td style="font-weight:bold;vertical-align:top;">wsgi_multiprocess</td><td style="vertical-align:top;">:</td><td><div>False</div></td></tr><tr><td style="font-weight:bold;vertical-align:top;">wsgi_multithread</td><td style="vertical-align:top;">:</td><td><div>True</div></td></tr><tr><td style="font-weight:bold;vertical-align:top;">wsgi_run_once</td><td style="vertical-align:top;">:</td><td><div>False</div></td></tr><tr><td style="font-weight:bold;vertical-align:top;">wsgi_url_scheme</td><td style="vertical-align:top;">:</td><td><div>http</div></td></tr><tr><td style="font-weight:bold;vertical-align:top;">wsgi_version</td><td style="vertical-align:top;">:</td><td><div><table><tr><td><div>1</div></td></tr><tr><td><div>0</div></td></tr></table></div></td></tr></table></div></td></tr><tr><td style="font-weight:bold;vertical-align:top;">extension</td><td style="vertical-align:top;">:</td><td><div>html</div></td></tr><tr><td style="font-weight:bold;vertical-align:top;">folder</td><td style="vertical-align:top;">:</td><td><div>C:\\Users\\Rafael Cisneros\\Desktop\\web2py\\web2py\\applications\\SisPIOrafael2\\</div></td></tr><tr><td style="font-weight:bold;vertical-align:top;">function</td><td style="vertical-align:top;">:</td><td><div>admin</div></td></tr><tr><td style="font-weight:bold;vertical-align:top;">global_settings</td><td style="vertical-align:top;">:</td><td><div><table><tr><td style="font-weight:bold;vertical-align:top;">app_folders</td><td style="vertical-align:top;">:</td><td><div>set([&#x27;C:\\\\Users\\\\Rafael Cisneros\\\\Desktop\\\\web2py\\\\web2py\\\\applications\\\\SisPIOrafael2\\\\&#x27;, &#x27;C:\\\\Users\\\\Rafael Cisneros\\\\Desktop\\\\web2py\\\\web2py\\\\applications\\\\admin\\\\&#x27;, &#x27;C:\\\\Users\\\\Rafael Cisneros\\\\Desktop\\\\web2py\\\\web2py\\\\applications\\\\welcome\\\\&#x27;])</div></td></tr><tr><td style="font-weight:bold;vertical-align:top;">applications_parent</td><td style="vertical-align:top;">:</td><td><div>C:\\Users\\Rafael Cisneros\\Desktop\\web2py\\web2py</div></td></tr><tr><td style="font-weight:bold;vertical-align:top;">cmd_args</td><td style="vertical-align:top;">:</td><td><div><table></table></div></td></tr><tr><td style="font-weight:bold;vertical-align:top;">cmd_options</td><td style="vertical-align:top;">:</td><td><div>&lt;Values at 0x3c2bee0: {&#x27;verbose&#x27;: False, &#x27;ip&#x27;: &#x27;127.0.0.1&#x27;, &#x27;debuglevel&#x27;: 30, &#x27;with_scheduler&#x27;: False, &#x27;shutdown_timeout&#x27;: 5, &#x27;taskbar&#x27;: False, &#x27;with_coverage&#x27;: False, &#x27;pid_filename&#x27;: &#x27;httpserver.pid&#x27;, &#x27;maxthreads&#x27;: None, &#x27;softcron&#x27;: False, &#x27;server_name&#x27;: &#x27;Rafa-PC&#x27;, &#x27;bpython&#x27;: False, &#x27;nogui&#x27;: False, &#x27;port&#x27;: 8000, &#x27;print_errors&#x27;: False, &#x27;extcron&#x27;: False, &#x27;runcron&#x27;: False, &#x27;run_system_tests&#x27;: False, &#x27;test&#x27;: None, &#x27;folder&#x27;: &#x27;C:\\\\Users\\\\Rafael Cisneros\\\\Desktop\\\\web2py\\\\web2py&#x27;, &#x27;config&#x27;: &#x27;&#x27;, &#x27;minthreads&#x27;: None, &#x27;shell&#x27;: None, &#x27;run&#x27;: &#x27;&#x27;, &#x27;log_filename&#x27;: &#x27;httpserver.log&#x27;, &#x27;profiler_dir&#x27;: None, &#x27;args&#x27;: [&#x27;&#x27;], &#x27;socket_timeout&#x27;: 5, &#x27;ssl_ca_certificate&#x27;: None, &#x27;scheduler&#x27;: None, &#x27;interfaces&#x27;: None, &#x27;ssl_private_key&#x27;: &#x27;&#x27;, &#x27;gae&#x27;: None, &#x27;password&#x27;: &#x27;******&#x27;, &#x27;request_queue_size&#x27;: 5, &#x27;ssl_certificate&#x27;: &#x27;&#x27;, &#x27;cronjob&#x27;: False, &#x27;numthreads&#x27;: None, &#x27;quiet&#x27;: False, &#x27;import_models&#x27;: False, &#x27;timeout&#x27;: 10, &#x27;plain&#x27;: False, &#x27;nobanner&#x27;: False}&gt;</div></td></tr><tr><td style="font-weight:bold;vertical-align:top;">db_sessions</td><td style="vertical-align:top;">:</td><td><div>set([])</div></td></tr><tr><td style="font-weight:bold;vertical-align:top;">debugging</td><td style="vertical-align:top;">:</td><td><div>False</div></td></tr><tr><td style="font-weight:bold;vertical-align:top;">gluon_parent</td><td style="vertical-align:top;">:</td><td><div>C:\\Users\\Rafael Cisneros\\Desktop\\web2py\\web2py</div></td></tr><tr><td style="font-weight:bold;vertical-align:top;">is_jython</td><td style="vertical-align:top;">:</td><td><div>False</div></td></tr><tr><td style="font-weight:bold;vertical-align:top;">is_pypy</td><td style="vertical-align:top;">:</td><td><div>False</div></td></tr><tr><td style="font-weight:bold;vertical-align:top;">is_source</td><td style="vertical-align:top;">:</td><td><div>False</div></td></tr><tr><td style="font-weight:bold;vertical-align:top;">local_hosts</td><td style="vertical-align:top;">:</td><td><div><table><tr><td><div>2001:0:5ef5:79fd:2c27:ffe:4138:404f</div></td></tr><tr><td><div>Rafa-PC.cantv.net</div></td></tr><tr><td><div>Rafa-PC</div></td></tr><tr><td><div>::ffff:127.0.0.1</div></td></tr><tr><td><div>::1</div></td></tr><tr><td><div>fe80::2c27:ffe:4138:404f%5</div></td></tr><tr><td><div>190.199.191.176</div></td></tr><tr><td><div>fe80::4018:b4d4:ee94:6775%15</div></td></tr><tr><td><div>127.0.0.1</div></td></tr></table></div></td></tr><tr><td style="font-weight:bold;vertical-align:top;">web2py_version</td><td style="vertical-align:top;">:</td><td><div>2.14.6-stable+timestamp.2016.05.10.00.21.47</div></td></tr></table></div></td></tr><tr><td style="font-weight:bold;vertical-align:top;">is_https</td><td style="vertical-align:top;">:</td><td><div>False</div></td></tr><tr><td style="font-weight:bold;vertical-align:top;">is_local</td><td style="vertical-align:top;">:</td><td><div>True</div></td></tr><tr><td style="font-weight:bold;vertical-align:top;">is_restful</td><td style="vertical-align:top;">:</td><td><div>False</div></td></tr><tr><td style="font-weight:bold;vertical-align:top;">is_scheduler</td><td style="vertical-align:top;">:</td><td><div>False</div></td></tr><tr><td style="font-weight:bold;vertical-align:top;">is_shell</td><td style="vertical-align:top;">:</td><td><div>False</div></td></tr><tr><td style="font-weight:bold;vertical-align:top;">now</td><td style="vertical-align:top;">:</td><td><div>datetime.datetime(2017, 10, 22, 12, 48, 24, 926000)</div></td></tr><tr><td style="font-weight:bold;vertical-align:top;">raw_args</td><td style="vertical-align:top;">:</td><td><div></div></td></tr><tr><td style="font-weight:bold;vertical-align:top;">raw_extension</td><td style="vertical-align:top;">:</td><td><div>None</div></td></tr><tr><td style="font-weight:bold;vertical-align:top;">url</td><td style="vertical-align:top;">:</td><td><div>/SisPIOrafael2/default/admin</div></td></tr><tr><td style="font-weight:bold;vertical-align:top;">utcnow</td><td style="vertical-align:top;">:</td><td><div>datetime.datetime(2017, 10, 22, 16, 48, 24, 926000)</div></td></tr><tr><td style="font-weight:bold;vertical-align:top;">wsgi</td><td style="vertical-align:top;">:</td><td><div>&lt;gluon.main.LazyWSGI object at 0x04A5B490&gt;</div></td></tr></table></div>'
tRp58
sS'frames'
p59
(lp60
(dp61
S'file'
p62
S'C:\\Users\\Rafael Cisneros\\Desktop\\web2py\\web2py\\gluon\\restricted.py'
p63
sS'dump'
p64
(dp65
S'environment'
p66
S"{'A': <class 'gluon.html.A'>, 'ANY_OF': <class 'gluon.validators.ANY_OF'>, 'ASSIGNJS': <function ASSIGNJS>, 'AppConfig': <function AppConfig>, 'Auth': <class 'gluon.tools.Auth'>, 'B': <class 'gluon.html.B'>, 'BEAUTIFY': <class 'gluon.html.BEAUTIFY'>, 'BODY': <class 'gluon.html.BODY'>, 'BR': <class 'gluon.html.BR'>, 'BUTTON': <class 'gluon.html.BUTTON'>, ...}"
p67
sS'ccode'
p68
S'<code object <module> at 09562410, file "C:\\User...\\SisPIOrafael2\\views\\default/admin.html", line 1>'
p69
ssS'lnum'
p70
I227
sS'lines'
p71
(dp72
I224
S'            ccode = code'
p73
sI225
S'        else:'
p74
sI226
S'            ccode = compile2(code, layer)'
p75
sI227
S'        exec ccode in environment'
p76
sI228
S'    except HTTP:'
p77
sI229
S'        raise'
p78
sI230
S'    except RestrictedError:'
p79
sI231
S'        # do not encapsulate (obfuscate) the original RestrictedError'
p80
sI222
S'    try:'
p81
sI223
S'        if isinstance(code, types.CodeType):'
p82
ssS'call'
p83
S'(code=r"response.write(\'<!DOCTYPE html>\\r\\n\\r\\n \', escap...UERY-->\\r\\n</body>\\r\\n</html>\\r\\n\', escape=False)", environment={\'A\': <class \'gluon.html.A\'>, \'ANY_OF\': <class \'gluon.validators.ANY_OF\'>, \'ASSIGNJS\': <function ASSIGNJS>, \'AppConfig\': <function AppConfig>, \'Auth\': <class \'gluon.tools.Auth\'>, \'B\': <class \'gluon.html.B\'>, \'BEAUTIFY\': <class \'gluon.html.BEAUTIFY\'>, \'BODY\': <class \'gluon.html.BODY\'>, \'BR\': <class \'gluon.html.BR\'>, \'BUTTON\': <class \'gluon.html.BUTTON\'>, ...}, layer=r\'C:\\Users\\Rafael Cisneros\\Desktop\\web2py\\web2py\\applications\\SisPIOrafael2\\views\\default/admin.html\')'
p84
sS'func'
p85
S'restricted'
p86
sa(dp87
g62
S'C:\\Users\\Rafael Cisneros\\Desktop\\web2py\\web2py\\applications\\SisPIOrafael2\\views\\default\\admin.html'
p88
sg64
(dp89
S'a'
S'undefined'
p90
sS'comprobante'
p91
g90
sS'builtinid'
p92
S'<built-in function id>'
p93
sS'Generar'
p94
g90
sS'href'
p95
g90
sS'role'
p96
g90
sS'li'
p97
g90
ssg70
I20
sg71
(dp98
I11
S"response.write(URL('static', 'images/bar7.png'))"
p99
sI12
S'response.write(\'" >\\r\\n            </div>\\r\\n            \\r\\n             <!--Navbar -->\\r\\n            <div class=" col-sm-12">\\r\\n                \\r\\n                <nav class="navbar navbar-default inicioSesion">\\r\\n                  <div class="container-fluid">\\r\\n                    <!-- Brand and toggle get grouped for better mobile display -->\\r\\n                    <div class="navbar-header">\\r\\n                      <button type="button" class="navbar-toggle collapsed" data-toggle="collapse" data-target="#bs-example-navbar-collapse-1" aria-expanded="false">\\r\\n                        <span class="sr-only">Toggle navigation</span>\\r\\n                        <span class="icon-bar"></span>\\r\\n                        <span class="icon-bar"></span>\\r\\n                        <span class="icon-bar"></span>\\r\\n                      </button>\\r\\n                    </div>\\r\\n\\r\\n                    <!-- Collect the nav links, forms, and other content for toggling -->\\r\\n                    <div class="collapse navbar-collapse" id="bs-example-navbar-collapse-1">\\r\\n                      <ul class="nav navbar-nav navbar-right">\\r\\n                          <li class="dropdown">\\r\\n                              <a href="#" class="dropdown-toggle" data-toggle="dropdown" role="button" aria-haspopup="true" aria-expanded="false">Nombre de usuario <span class="caret"></span></a>\\r\\n                              <ul class="dropdown-menu">\\r\\n                                    <li id="userinfo"><a href="#"><span class="glyphicon glyphicon-user "></span> Mi perfil </a></li>\\r\\n                                    <li id="enviar"><a href="#"><span class="glyphicon glyphicon-envelope"></span> Contactanos</a></li>\\r\\n                                    <li role="separator" class="divider"></li>\\r\\n                                    <li><a href="\', escape=False)'
p100
sI13
S"response.write(URL('default', 'user', args='logout'))"
p101
sI14
S'response.write(\'"><span class="glyphicon glyphicon-log-out"></span> Salir </a></li>\\r\\n                              </ul>\\r\\n                          </li>\\r\\n                        </ul>\\r\\n                    </div><!-- /.navbar-collapse -->\\r\\n                  </div><!-- /.container-fluid -->\\r\\n                </nav>\\r\\n            </div><!--col12-->\\r\\n        </div><!--row-->\\r\\n            \\r\\n    </div><!--container-->\\r\\n<body>\\r\\n\', escape=False)'
p102
sI15
S'response.write(\'\\r\\n\\r\\n\\r\\n    <div  class="container">\\r\\n         <!-- Information-->\\r\\n        <div id="inicio" class="row">\\r\\n            <div class="col-md-12">  \\r\\n              <div class="row">\\r\\n                <div class="col-md-3">\\r\\n                    <!--Aspirantes-->\\r\\n                    <h3> Aspirantes </h3>\\r\\n                    <div class="row">\\r\\n                    <ul class="nav nav-pills nav-stacked">\\r\\n                    <li role="presentation"><a id="add">Agregar Manualmente </a></li>\\r\\n                     <li role="presentation" ><a id="upload" href="#">Cargar archivo</a></li>\\r\\n                      <li role="presentation"><a id="lookfor" href="#">Consultar</a></li>\\r\\n                     <li role="presentation"><a id="edit" href="#">Modificar</a></li>\\r\\n                     <li role="presentation"><a id="delete" href="#">Eliminar</a></li>\\r\\n                      <li role="presentation"><a id="comp" href="#">Generar comprobante</a></li>\\r\\n                    </ul>\\r\\n                    </div>\\r\\n                     <!--OTROS-->   \\r\\n                    <h3> Otros </h3>\\r\\n                    <div class="row">\\r\\n                    <ul class="nav nav-pills nav-stacked">\\r\\n                      <li role="presentation" class="active"><a id="principal" href="#">Inicio</a></li>\\r\\n                     <li role="presentation" ><a id="news" href="#">Noticias</a></li>\\r\\n                      <li role="presentation"><a class="perfil" href="#">Mi Perfil</a></li>\\r\\n                      <li role="presentation"><a id="contacto" href="#">Correo Masivo</a></li>\\r\\n                      <li role="presentation"><a id="pass" href="#">Cambiar contrase\\xc3\\xb1a</a></li>\\r\\n                      <li role="presentation"><a id="logOut" href="\', escape=False)'
p103
sI16
S"response.write(URL('default', 'user', args='logout'))"
p104
sI17
S'response.write(\'">Salir</a></li>\\r\\n                    </ul>\\r\\n                        <br>\\r\\n                  </div>\\r\\n                </div>\\r\\n                <div class="col-md-9">\\r\\n                    <!-- INICIO -->\\r\\n                    <div id="information">\\r\\n                         <h1> Bienvenido al PIO </h1>\\r\\n                        <br><br>\\r\\n                        <p><strong>Coordinadores,</strong></p><br>\\r\\n                        <p class="textCoor">\\r\\n                            Bienvenido al Sistema PIO, para continuar en el proceso de carga de estudiantes es obligatorio llenar el siguiente formulario: <a class="perfil"><strong>Validar mis datos </strong></a></p>\\r\\n                        <p class="textCoor"> \\r\\n                            Recuerde imprimir su comprobante de carga de estudiantes con la opcion generar comprobante, luego de ingresar a sus alumnos al sistema.</p>\\r\\n                        <div>\\r\\n                            <h1 class="datos1">\', escape=False)'
p105
sI18
S'response.write(formAdministrador[0][0][1][0])'
p106
sI19
S'response.write(\'  </h1>\\r\\n                            <h1 class="datos1"><a id="Editar" href="#"><span class="glyphicon glyphicon-edit green-icn"></span></a></h1>\\r\\n                            <p class="datos">\\r\\n                                <b>Nombre completo: </b> Maigualida Margarita De la Santisima Trinidad Perez Bustamante\\r\\n                                <br>\\r\\n                                <b>Cedula de identidad: </b> 1234567<br>\\r\\n                                <b>Correo electronico: </b> fulanito@uncorreo.com <br>\\r\\n                                <b>Telefono:</b>  (0123) 25689632\\r\\n                                <br>\\r\\n                            </p>\\r\\n                        </div>\\r\\n                    </div>\\r\\n                    <!-- Noticias -->\\r\\n                    <div id="noticias">\\r\\n                        <h1>Noticias</h1>\\r\\n                        <p class="textCoor">No hay noticias recientes</p>\\r\\n                    \\r\\n                    </div>\\r\\n                    <!--Agregar Manual-->\\r\\n                    <div id="agregar">\\r\\n                        <form enctype="multipart/form-data" method="post" >\\r\\n                                <legend><h2>Agregar usuarios al Sistema PIO</h2></legend>\\r\\n                                    <div class="form-group" id="tipo">\\r\\n                                        <p class="textCoor">Seleccione el tipo de usuario a cargar:</p>\\r\\n                                        <div class="radio">\\r\\n                                                <label class="textCoor"><input id="cargarEstudiante" type="radio" name="cargarManual" value="estudiante" checked>Estudiante</label>\\r\\n                                        </div>\\r\\n                                        <div class="radio">\\r\\n                                                  <label class="textCoor"><input id="cargarProfesor" type="radio" name="cargarManual" value="profesor">Profesor</label>\\r\\n                                        </div>\\r\\n                                        <div class="radio">\\r\\n                                                  <label class="textCoor"><input id="cargarLiceo" type="radio" name="cargarManual" value="liceo">Coordinador liceo</label>\\r\\n                                        </div>\\r\\n                                        <div class="radio">\\r\\n                                                  <label class="textCoor"><input id="cargarSede" type="radio" name="cargarManual" value="sede">Coordinador sede</label>\\r\\n                                        </div>\\r\\n                                    </div>\\r\\n                        \\r\\n                        <div id="manualAgregar">\\r\\n                            <legend>Datos personales</legend>\\r\\n                        <!-- Person ID -->\\r\\n                            <label for="cedula">Cedula de identidad: </label>\\r\\n                            <input type="text" id="cedula" name="ID" placeholder="Cedula de identidad" required> <br>\\r\\n                        <!-- Person name -->\\r\\n                            <label for="name">Nombres: </label>\\r\\n                            <input type="text" id="name" name="Nombre" placeholder="Primer y segundo nombre" required > <br>\\r\\n                        <!-- Person last name -->\\r\\n                            <label for="apellido">Apellidos: </label>\\r\\n                            <input type="text" id="apellido" name="Apellido" placeholder="Primer y segundo apellido" required> <br>\\r\\n                        <!-- Liceo procedencia-->\\r\\n                        <div id="manualLiceo">\\r\\n                            <label for="liceoProcedencia" >Liceo de procedencia: </label>\\r\\n                            <select class="select-style"  id="liceoProcedencia" required>\\r\\n                                <option value="0" disable >Seleccione uno</option>\\r\\n                                <option value="programa" >Programa de Cadena 2017</option>\\r\\n                            </select>\\r\\n                            <br>\\r\\n                        </div>\\r\\n                        <!-- sede procedencia-->\\r\\n                        <div id="manualSede">\\r\\n                            <label for="sede" >Sede de procedencia: </label>\\r\\n                            <select class="select-style" id="sede" name="sede" required>\\r\\n                                <option value=" " disable >Seleccione uno</option>\\r\\n                                <option value="USB">USB</option>\\r\\n                            </select>\\r\\n                            <br>\\r\\n                        </div>\\r\\n                        <!-- Person average-->\\r\\n                        <div id="manualPromedio">\\r\\n                            <label for="promedioEntero">Promedio:</label>\\r\\n                            <input type="number" min="0" max="2" step="1" value="0" id="promedioEntero" class="text-right" id="PromedioEntero" name="PromedioEntero" required="">\\r\\n                            <strong> .</strong>\\r\\n                            <input type="number" min="0" max="2" step="1" value="0" id="promedioDecimal" class="text-right" name="PromedioDecimal" required>\\r\\n                            <br>\\r\\n                        </div>\\r\\n                        <!--Person email -->\\r\\n                            <label for="email">Email: </label>\\r\\n                            <input type="email" id="email" name="Email" placeholder="Correo electronico"><br>\\r\\n                        <!-- Person mobile -->\\r\\n                            <label for="mobile">Telefono principal: </label>\\r\\n                            <input type="tel" id="mobile" name="Mobile" placeholder="Telefono principal" max="11">\\r\\n                            <br>\\r\\n                        <!-- Person address-->\\r\\n                            <label class="dir" for="direccion">Direccion:</label>\\r\\n                            <div class="textarea1"><textarea id="direccion" > </textarea> </div>\\r\\n                            <br>\\r\\n                        </div><!-- manual agregar-->\\r\\n\\r\\n                         <br>\\r\\n                        \\r\\n                        <div class="save text-center"><input type="submit" class="btn btn-primary save" value="Agregar"></div>\\r\\n                        <div style="display:none;" >\\r\\n                            <input type="hidden" name="_formname" value="formulario">\\r\\n                        </div>\\r\\n                      </form>\\r\\n                    \', escape=False)'
p107
sI20
S'response.write(formulario)'
p108
sI21
S'response.write(\'\\r\\n                    </div>\\r\\n                     <!--CARGAR ARCHIVO-->\\r\\n                    <div id="cargar">\\r\\n                         <div class="row">\\r\\n                                    <form action="" enctype="multipart/form-data" method="post">\\r\\n                                        <fieldset>\\r\\n                                            <legend><h2>Cargar archivo</h2></legend>\\r\\n                                            <div class="form-group" id="tipo">\\r\\n                                                <p class="textCoor">Seleccione el tipo de usuario a cargar:</p>\\r\\n                                                <div class="radio">\\r\\n                                                <label class="textCoor"><input type="radio" name="optradio" value="estudiante" checked>Estudiante</label>\\r\\n                                                </div>\\r\\n                                                <div class="radio">\\r\\n                                                  <label class="textCoor"><input type="radio" name="optradio" value="profesor">Profesor</label>\\r\\n                                                </div>\\r\\n                                                <div class="radio">\\r\\n                                                  <label class="textCoor"><input type="radio" name="optradio" value="liceo">Coordinador liceo</label>\\r\\n                                                </div>\\r\\n                                                <div class="radio">\\r\\n                                                  <label class="textCoor"><input type="radio" name="optradio" value="sede">Coordinador sede</label>\\r\\n                                                </div>\\r\\n                                            </div>\\r\\n                                        </fieldset>\\r\\n                                        <fieldset>\\r\\n                                                <legend>Seleccionar archivo</legend>\\r\\n                                                <div class="form-group">\\r\\n                                                    <br>\\r\\n                                                    <input name="_formname" type="hidden" value="formularioArchivo">\\r\\n                                                    <p class="textCoor">Por favor selecione su archivo a cargar y presione enviar de tipo:</p><br>\\r\\n                                                    <label for="file" class="textCoor">Archivo: </label> \\r\\n                            \\t\\t\\t\\t        <input class="upload" type="file" id="file" name="fileToUpload" required><br><br>\\r\\n                                                     \\r\\n                                                </div>\\r\\n                                        </fieldset>\\r\\n                                       <div class="save text-center"><input type="submit" class="btn btn-primary save" value="Enviar"></div>\\r\\n                                    </form>\\r\\n                                </div>\\r\\n                             <br>\\r\\n                             \', escape=False)'
p109
sI22
S'if len(erroresCarga) != 0:'
p110
sI23
S"    response.write('\\r\\n                             Errores en la carga:\\r\\n                             <br>\\r\\n                             ', escape=False)"
p111
sI24
S'    for i in erroresCarga:'
p112
sI25
S"        response.write('\\r\\n                             ', escape=False)"
p113
sI26
S'        response.write(i)'
p114
sI27
S"        response.write('\\r\\n                             <br>\\r\\n                             ', escape=False)"
p115
sI28
S'        pass'
p116
sI29
S"    response.write('\\r\\n                             ', escape=False)"
p117
sI30
S'    pass'
p118
ssg83
S'()'
p119
sg85
S'<module>'
p120
sasS'pyver'
p121
S'Python 2.7.9: C:\\Users\\Rafael Cisneros\\Desktop\\web2py\\web2py\\web2py.exe (prefix: C:\\Python27)'
p122
sS'session'
p123
g57
(S'sr\t\x00\x00<div><table><tr><td style="font-weight:bold;vertical-align:top;">auth</td><td style="vertical-align:top;">:</td><td><div><table><tr><td style="font-weight:bold;vertical-align:top;">expiration</td><td style="vertical-align:top;">:</td><td><div>3600</div></td></tr><tr><td style="font-weight:bold;vertical-align:top;">hmac_key</td><td style="vertical-align:top;">:</td><td><div>e4ca20ac-d9dc-4546-ab32-e89433de772d</div></td></tr><tr><td style="font-weight:bold;vertical-align:top;">last_visit</td><td style="vertical-align:top;">:</td><td><div>datetime.datetime(2017, 10, 22, 12, 48, 24, 678000)</div></td></tr><tr><td style="font-weight:bold;vertical-align:top;">remember_me</td><td style="vertical-align:top;">:</td><td><div>False</div></td></tr><tr><td style="font-weight:bold;vertical-align:top;">user</td><td style="vertical-align:top;">:</td><td><div><table><tr><td style="font-weight:bold;vertical-align:top;">email</td><td style="vertical-align:top;">:</td><td><div>admin@usb.ve</div></td></tr><tr><td style="font-weight:bold;vertical-align:top;">first_name</td><td style="vertical-align:top;">:</td><td><div>SisPIO</div></td></tr><tr><td style="font-weight:bold;vertical-align:top;">id</td><td style="vertical-align:top;">:</td><td><div>1L</div></td></tr><tr><td style="font-weight:bold;vertical-align:top;">last_name</td><td style="vertical-align:top;">:</td><td><div>Admin</div></td></tr><tr><td style="font-weight:bold;vertical-align:top;">registration_id</td><td style="vertical-align:top;">:</td><td><div></div></td></tr><tr><td style="font-weight:bold;vertical-align:top;">registration_key</td><td style="vertical-align:top;">:</td><td><div></div></td></tr><tr><td style="font-weight:bold;vertical-align:top;">reset_password_key</td><td style="vertical-align:top;">:</td><td><div></div></td></tr><tr><td style="font-weight:bold;vertical-align:top;">username</td><td style="vertical-align:top;">:</td><td><div>admin</div></td></tr></table></div></td></tr><tr><td style="font-weight:bold;vertical-align:top;">user_groups</td><td style="vertical-align:top;">:</td><td><div><table><tr><td style="font-weight:bold;vertical-align:top;">5</td><td style="vertical-align:top;">:</td><td><div>Administrador</div></td></tr></table></div></td></tr></table></div></td></tr><tr><td style="font-weight:bold;vertical-align:top;">flash</td><td style="vertical-align:top;">:</td><td><div>None</div></td></tr></table></div>'
tRp124
sS'etype'
p125
S"<type 'exceptions.NameError'>"
p126
sS'date'
p127
S'Sun Oct 22 12:48:25 2017'
p128
sS'response'
p129
g57
(S's`@\x00\x00<div><table><tr><td style="font-weight:bold;vertical-align:top;">body</td><td style="vertical-align:top;">:</td><td><div>&lt;cStringIO.StringO object at 0x09527F60&gt;</div></td></tr><tr><td style="font-weight:bold;vertical-align:top;">cookies</td><td style="vertical-align:top;">:</td><td><div><table><tr><td style="font-weight:bold;vertical-align:top;">session_id_sispiorafael2</td><td style="vertical-align:top;">:</td><td><div>127.0.0.1-6d640340-cd97-483a-86db-9a3381f82725<table><tr><td style="font-weight:bold;vertical-align:top;">comment</td><td style="vertical-align:top;">:</td><td><div></div></td></tr><tr><td style="font-weight:bold;vertical-align:top;">domain</td><td style="vertical-align:top;">:</td><td><div></div></td></tr><tr><td style="font-weight:bold;vertical-align:top;">expires</td><td style="vertical-align:top;">:</td><td><div></div></td></tr><tr><td style="font-weight:bold;vertical-align:top;">httponly</td><td style="vertical-align:top;">:</td><td><div></div></td></tr><tr><td style="font-weight:bold;vertical-align:top;">max-age</td><td style="vertical-align:top;">:</td><td><div></div></td></tr><tr><td style="font-weight:bold;vertical-align:top;">path</td><td style="vertical-align:top;">:</td><td><div>/</div></td></tr><tr><td style="font-weight:bold;vertical-align:top;">secure</td><td style="vertical-align:top;">:</td><td><div></div></td></tr><tr><td style="font-weight:bold;vertical-align:top;">version</td><td style="vertical-align:top;">:</td><td><div></div></td></tr></table></div></td></tr></table></div></td></tr><tr><td style="font-weight:bold;vertical-align:top;">delimiters</td><td style="vertical-align:top;">:</td><td><div><table><tr><td><div>{{</div></td></tr><tr><td><div>}}</div></td></tr></table></div></td></tr><tr><td style="font-weight:bold;vertical-align:top;">files</td><td style="vertical-align:top;">:</td><td><div><table></table></div></td></tr><tr><td style="font-weight:bold;vertical-align:top;">flash</td><td style="vertical-align:top;">:</td><td><div></div></td></tr><tr><td style="font-weight:bold;vertical-align:top;">form_label_separator</td><td style="vertical-align:top;">:</td><td><div></div></td></tr><tr><td style="font-weight:bold;vertical-align:top;">formstyle</td><td style="vertical-align:top;">:</td><td><div>bootstrap3_inline</div></td></tr><tr><td style="font-weight:bold;vertical-align:top;">generic_patterns</td><td style="vertical-align:top;">:</td><td><div><table><tr><td><div>*</div></td></tr></table></div></td></tr><tr><td style="font-weight:bold;vertical-align:top;">google_analytics_id</td><td style="vertical-align:top;">:</td><td><div>None</div></td></tr><tr><td style="font-weight:bold;vertical-align:top;">headers</td><td style="vertical-align:top;">:</td><td><div><table><tr><td style="font-weight:bold;vertical-align:top;">X-Powered-By</td><td style="vertical-align:top;">:</td><td><div>web2py</div></td></tr></table></div></td></tr><tr><td style="font-weight:bold;vertical-align:top;">logo</td><td style="vertical-align:top;">:</td><td><div><a class="navbar-brand" href="http://www.web2py.com/" id="web2py-logo"><b>web<span>2</span>py</b>&trade;&nbsp;</a></div></td></tr><tr><td style="font-weight:bold;vertical-align:top;">menu</td><td style="vertical-align:top;">:</td><td><div><table><tr><td><div><table><tr><td><div>Inicio</div></td></tr><tr><td><div>False</div></td></tr><tr><td><div>/SisPIOrafael2/default/index</div></td></tr><tr><td><div><table></table></div></td></tr></table></div></td></tr><tr><td><div><table><tr><td><div>Mis Sitios</div></td></tr><tr><td><div>False</div></td></tr><tr><td><div>/admin/default/site</div></td></tr></table></div></td></tr><tr><td><div><table><tr><td><div>Esta Aplicaci\xc3\xb3n</div></td></tr><tr><td><div>False</div></td></tr><tr><td><div>#</div></td></tr><tr><td><div><table><tr><td><div><table><tr><td><div>Design</div></td></tr><tr><td><div>False</div></td></tr><tr><td><div>/admin/default/design/SisPIOrafael2</div></td></tr></table></div></td></tr><tr><td><div><li class="divider"></li></div></td></tr><tr><td><div><table><tr><td><div>Controlador</div></td></tr><tr><td><div>False</div></td></tr><tr><td><div>/admin/default/edit/SisPIOrafael2/controllers/default.py</div></td></tr></table></div></td></tr><tr><td><div><table><tr><td><div>Vista</div></td></tr><tr><td><div>False</div></td></tr><tr><td><div>/admin/default/edit/SisPIOrafael2/views/default/admin.html</div></td></tr></table></div></td></tr><tr><td><div><table><tr><td><div>Modelo BDD</div></td></tr><tr><td><div>False</div></td></tr><tr><td><div>/admin/default/edit/SisPIOrafael2/models/db.py</div></td></tr></table></div></td></tr><tr><td><div><table><tr><td><div>Modelo "menu"</div></td></tr><tr><td><div>False</div></td></tr><tr><td><div>/admin/default/edit/SisPIOrafael2/models/menu.py</div></td></tr></table></div></td></tr><tr><td><div><table><tr><td><div>Config.ini</div></td></tr><tr><td><div>False</div></td></tr><tr><td><div>/admin/default/edit/SisPIOrafael2/private/appconfig.ini</div></td></tr></table></div></td></tr><tr><td><div><table><tr><td><div>Dise\xc3\xb1o de p\xc3\xa1gina</div></td></tr><tr><td><div>False</div></td></tr><tr><td><div>/admin/default/edit/SisPIOrafael2/views/layout.html</div></td></tr></table></div></td></tr><tr><td><div><table><tr><td><div>Hoja de estilo</div></td></tr><tr><td><div>False</div></td></tr><tr><td><div>/admin/default/edit/SisPIOrafael2/static/css/web2py-bootstrap3.css</div></td></tr></table></div></td></tr><tr><td><div><table><tr><td><div>Base de datos</div></td></tr><tr><td><div>False</div></td></tr><tr><td><div>/SisPIOrafael2/appadmin/index</div></td></tr></table></div></td></tr><tr><td><div><table><tr><td><div>Errores</div></td></tr><tr><td><div>False</div></td></tr><tr><td><div>/admin/default/errors/SisPIOrafael2</div></td></tr></table></div></td></tr><tr><td><div><table><tr><td><div>Acerca de</div></td></tr><tr><td><div>False</div></td></tr><tr><td><div>/admin/default/about/SisPIOrafael2</div></td></tr></table></div></td></tr></table></div></td></tr></table></div></td></tr><tr><td><div><table><tr><td><div>web2py.com</div></td></tr><tr><td><div>False</div></td></tr><tr><td><div>#</div></td></tr><tr><td><div><table><tr><td><div><table><tr><td><div>Descargas</div></td></tr><tr><td><div>False</div></td></tr><tr><td><div>http://www.web2py.com/examples/default/download</div></td></tr></table></div></td></tr><tr><td><div><table><tr><td><div>Soporte</div></td></tr><tr><td><div>False</div></td></tr><tr><td><div>http://www.web2py.com/examples/default/support</div></td></tr></table></div></td></tr><tr><td><div><table><tr><td><div>Demostraci\xc3\xb3n</div></td></tr><tr><td><div>False</div></td></tr><tr><td><div>http://web2py.com/demo_admin</div></td></tr></table></div></td></tr><tr><td><div><table><tr><td><div>Ejemplos R\xc3\xa1pidos</div></td></tr><tr><td><div>False</div></td></tr><tr><td><div>http://web2py.com/examples/default/examples</div></td></tr></table></div></td></tr><tr><td><div><table><tr><td><div>FAQ</div></td></tr><tr><td><div>False</div></td></tr><tr><td><div>http://web2py.com/AlterEgo</div></td></tr></table></div></td></tr><tr><td><div><table><tr><td><div>V\xc3\xaddeos</div></td></tr><tr><td><div>False</div></td></tr><tr><td><div>http://www.web2py.com/examples/default/videos/</div></td></tr></table></div></td></tr><tr><td><div><table><tr><td><div>Aplicaciones Libres</div></td></tr><tr><td><div>False</div></td></tr><tr><td><div>http://web2py.com/appliances</div></td></tr></table></div></td></tr><tr><td><div><table><tr><td><div>Plugins</div></td></tr><tr><td><div>False</div></td></tr><tr><td><div>http://web2py.com/plugins</div></td></tr></table></div></td></tr><tr><td><div><table><tr><td><div>Recetas</div></td></tr><tr><td><div>False</div></td></tr><tr><td><div>http://web2pyslices.com/</div></td></tr></table></div></td></tr></table></div></td></tr></table></div></td></tr><tr><td><div><table><tr><td><div>Documentaci\xc3\xb3n</div></td></tr><tr><td><div>False</div></td></tr><tr><td><div>#</div></td></tr><tr><td><div><table><tr><td><div><table><tr><td><div>Online book</div></td></tr><tr><td><div>False</div></td></tr><tr><td><div>http://www.web2py.com/book</div></td></tr></table></div></td></tr><tr><td><div><li class="divider"></li></div></td></tr><tr><td><div><table><tr><td><div>Prefacio</div></td></tr><tr><td><div>False</div></td></tr><tr><td><div>http://www.web2py.com/book/default/chapter/00</div></td></tr></table></div></td></tr><tr><td><div><table><tr><td><div>Introducci\xc3\xb3n</div></td></tr><tr><td><div>False</div></td></tr><tr><td><div>http://www.web2py.com/book/default/chapter/01</div></td></tr></table></div></td></tr><tr><td><div><table><tr><td><div>Python</div></td></tr><tr><td><div>False</div></td></tr><tr><td><div>http://www.web2py.com/book/default/chapter/02</div></td></tr></table></div></td></tr><tr><td><div><table><tr><td><div>Resumen</div></td></tr><tr><td><div>False</div></td></tr><tr><td><div>http://www.web2py.com/book/default/chapter/03</div></td></tr></table></div></td></tr><tr><td><div><table><tr><td><div>El N\xc3\xbacleo</div></td></tr><tr><td><div>False</div></td></tr><tr><td><div>http://www.web2py.com/book/default/chapter/04</div></td></tr></table></div></td></tr><tr><td><div><table><tr><td><div>Las Vistas</div></td></tr><tr><td><div>False</div></td></tr><tr><td><div>http://www.web2py.com/book/default/chapter/05</div></td></tr></table></div></td></tr><tr><td><div><table><tr><td><div>Base de datos</div></td></tr><tr><td><div>False</div></td></tr><tr><td><div>http://www.web2py.com/book/default/chapter/06</div></td></tr></table></div></td></tr><tr><td><div><table><tr><td><div>Formularios y validadores</div></td></tr><tr><td><div>False</div></td></tr><tr><td><div>http://www.web2py.com/book/default/chapter/07</div></td></tr></table></div></td></tr><tr><td><div><table><tr><td><div>Correo electr\xc3\xb3nico y SMS</div></td></tr><tr><td><div>False</div></td></tr><tr><td><div>http://www.web2py.com/book/default/chapter/08</div></td></tr></table></div></td></tr><tr><td><div><table><tr><td><div>Control de Acceso</div></td></tr><tr><td><div>False</div></td></tr><tr><td><div>http://www.web2py.com/book/default/chapter/09</div></td></tr></table></div></td></tr><tr><td><div><table><tr><td><div>Servicios</div></td></tr><tr><td><div>False</div></td></tr><tr><td><div>http://www.web2py.com/book/default/chapter/10</div></td></tr></table></div></td></tr><tr><td><div><table><tr><td><div>Recetas AJAX</div></td></tr><tr><td><div>False</div></td></tr><tr><td><div>http://www.web2py.com/book/default/chapter/11</div></td></tr></table></div></td></tr><tr><td><div><table><tr><td><div>Componentes y Plugins</div></td></tr><tr><td><div>False</div></td></tr><tr><td><div>http://www.web2py.com/book/default/chapter/12</div></td></tr></table></div></td></tr><tr><td><div><table><tr><td><div>Recetas de despliegue</div></td></tr><tr><td><div>False</div></td></tr><tr><td><div>http://www.web2py.com/book/default/chapter/13</div></td></tr></table></div></td></tr><tr><td><div><table><tr><td><div>Otras Recetas</div></td></tr><tr><td><div>False</div></td></tr><tr><td><div>http://www.web2py.com/book/default/chapter/14</div></td></tr></table></div></td></tr><tr><td><div><table><tr><td><div>Helping web2py</div></td></tr><tr><td><div>False</div></td></tr><tr><td><div>http://www.web2py.com/book/default/chapter/15</div></td></tr></table></div></td></tr><tr><td><div><table><tr><td><div>Buy web2py\'s book</div></td></tr><tr><td><div>False</div></td></tr><tr><td><div>http://stores.lulu.com/web2py</div></td></tr></table></div></td></tr></table></div></td></tr></table></div></td></tr><tr><td><div><table><tr><td><div>Comunidad</div></td></tr><tr><td><div>False</div></td></tr><tr><td><div>None</div></td></tr><tr><td><div><table><tr><td><div><table><tr><td><div>Grupos</div></td></tr><tr><td><div>False</div></td></tr><tr><td><div>http://www.web2py.com/examples/default/usergroups</div></td></tr></table></div></td></tr><tr><td><div><table><tr><td><div>Twitter</div></td></tr><tr><td><div>False</div></td></tr><tr><td><div>http://twitter.com/web2py</div></td></tr></table></div></td></tr><tr><td><div><table><tr><td><div>Chat en vivo</div></td></tr><tr><td><div>False</div></td></tr><tr><td><div>http://webchat.freenode.net/?channels=web2py</div></td></tr></table></div></td></tr></table></div></td></tr></table></div></td></tr></table></div></td></tr><tr><td style="font-weight:bold;vertical-align:top;">meta</td><td style="vertical-align:top;">:</td><td><div><table><tr><td style="font-weight:bold;vertical-align:top;">author</td><td style="vertical-align:top;">:</td><td><div>Your Name &lt;you@example.com&gt;</div></td></tr><tr><td style="font-weight:bold;vertical-align:top;">description</td><td style="vertical-align:top;">:</td><td><div>a cool new app</div></td></tr><tr><td style="font-weight:bold;vertical-align:top;">generator</td><td style="vertical-align:top;">:</td><td><div>Web2py Web Framework</div></td></tr><tr><td style="font-weight:bold;vertical-align:top;">keywords</td><td style="vertical-align:top;">:</td><td><div><table><tr><td><div>web2py</div></td></tr><tr><td><div>python</div></td></tr><tr><td><div>framework</div></td></tr></table></div></td></tr></table></div></td></tr><tr><td style="font-weight:bold;vertical-align:top;">models_to_run</td><td style="vertical-align:top;">:</td><td><div><table><tr><td><div>^\\w+\\.py$</div></td></tr><tr><td><div>^default/\\w+\\.py$</div></td></tr><tr><td><div>^default/admin/\\w+\\.py$</div></td></tr></table></div></td></tr><tr><td style="font-weight:bold;vertical-align:top;">postprocessing</td><td style="vertical-align:top;">:</td><td><div><table></table></div></td></tr><tr><td style="font-weight:bold;vertical-align:top;">session_client</td><td style="vertical-align:top;">:</td><td><div>127.0.0.1</div></td></tr><tr><td style="font-weight:bold;vertical-align:top;">session_cookie_compression_level</td><td style="vertical-align:top;">:</td><td><div>None</div></td></tr><tr><td style="font-weight:bold;vertical-align:top;">session_cookie_expires</td><td style="vertical-align:top;">:</td><td><div>None</div></td></tr><tr><td style="font-weight:bold;vertical-align:top;">session_data_name</td><td style="vertical-align:top;">:</td><td><div>session_data_sispiorafael2</div></td></tr><tr><td style="font-weight:bold;vertical-align:top;">session_file</td><td style="vertical-align:top;">:</td><td><div>&lt;open file &#x27;C:\\\\Users\\\\Rafael Cisneros\\\\Desktop\\\\web2py\\\\web2py\\\\applications\\\\SisPIOrafael2\\\\sessions\\\\1b4\\\\1ee\\\\127.0.0.1-6d640340-cd97-483a-86db-9a3381f82725&#x27;, mode &#x27;rb+&#x27; at 0x047E3D88&gt;</div></td></tr><tr><td style="font-weight:bold;vertical-align:top;">session_filename</td><td style="vertical-align:top;">:</td><td><div>C:\\Users\\Rafael Cisneros\\Desktop\\web2py\\web2py\\applications\\SisPIOrafael2\\sessions\\127.0.0.1-6d640340-cd97-483a-86db-9a3381f82725</div></td></tr><tr><td style="font-weight:bold;vertical-align:top;">session_hash</td><td style="vertical-align:top;">:</td><td><div>2980a12c0771d0f5773dbb9033282423</div></td></tr><tr><td style="font-weight:bold;vertical-align:top;">session_id</td><td style="vertical-align:top;">:</td><td><div>127.0.0.1-6d640340-cd97-483a-86db-9a3381f82725</div></td></tr><tr><td style="font-weight:bold;vertical-align:top;">session_id_name</td><td style="vertical-align:top;">:</td><td><div>session_id_sispiorafael2</div></td></tr><tr><td style="font-weight:bold;vertical-align:top;">session_locked</td><td style="vertical-align:top;">:</td><td><div>True</div></td></tr><tr><td style="font-weight:bold;vertical-align:top;">session_masterapp</td><td style="vertical-align:top;">:</td><td><div>SisPIOrafael2</div></td></tr><tr><td style="font-weight:bold;vertical-align:top;">session_new</td><td style="vertical-align:top;">:</td><td><div>False</div></td></tr><tr><td style="font-weight:bold;vertical-align:top;">session_storage_type</td><td style="vertical-align:top;">:</td><td><div>file</div></td></tr><tr><td style="font-weight:bold;vertical-align:top;">status</td><td style="vertical-align:top;">:</td><td><div>200</div></td></tr><tr><td style="font-weight:bold;vertical-align:top;">subtitle</td><td style="vertical-align:top;">:</td><td><div></div></td></tr><tr><td style="font-weight:bold;vertical-align:top;">title</td><td style="vertical-align:top;">:</td><td><div>Sispiorafael2</div></td></tr><tr><td style="font-weight:bold;vertical-align:top;">view</td><td style="vertical-align:top;">:</td><td><div>default/admin.html</div></td></tr></table></div>'
tRp130
sS'locals'
p131
(dp132
S'Service'
p133
S"<class 'gluon.tools.Service'>"
p134
sS'OBJECT'
p135
S"<class 'gluon.html.OBJECT'>"
p136
sS'SQLDB'
p137
S"<class 'pydal.base.DAL'>"
p138
sg123
S"<Storage {'_auth_next': None, 'flash': None, 'au...gin]': ['228e66e0-83a9-4ab9-a2ac-0134f6e9d5f9']}>"
p139
sS'LINK'
p140
S"<class 'gluon.html.LINK'>"
p141
sS'BR'
p142
S"<class 'gluon.html.BR'>"
p143
sS'local_import'
p144
S'<function <lambda>>'
p145
sS'OPTGROUP'
p146
S"<class 'gluon.html.OPTGROUP'>"
p147
sS'__package__'
p148
S'None'
p149
sS'PRE'
p150
S"<class 'gluon.html.PRE'>"
p151
sS'IS_INT_IN_RANGE'
p152
S"<class 'gluon.validators.IS_INT_IN_RANGE'>"
p153
sS'IS_LOWER'
p154
S"<class 'gluon.validators.IS_LOWER'>"
p155
sS'IS_STRONG'
p156
S"<class 'gluon.validators.IS_STRONG'>"
p157
sS'cache'
p158
S'<gluon.cache.Cache object>'
p159
sS'IS_IN_DB'
p160
S"<class 'gluon.validators.IS_IN_DB'>"
p161
sS'TAG'
p162
S'<gluon.html.__TAG__ object>'
p163
sS'SQLField'
p164
S"<class 'pydal.objects.Field'>"
p165
sS'mail'
p166
S'<gluon.tools.Mail object>'
p167
sS'BODY'
p168
S"<class 'gluon.html.BODY'>"
p169
sS'IS_DATE_IN_RANGE'
p170
S"<class 'gluon.validators.IS_DATE_IN_RANGE'>"
p171
sS'IFRAME'
p172
S"<class 'gluon.html.IFRAME'>"
p173
sS'URL'
p174
S'<function URL>'
p175
sS'__file__'
p176
S"r'C:\\Users\\Rafael Cisneros\\Desktop\\web2py\\web2py\\applications\\SisPIOrafael2\\views\\default/admin.html'"
p177
sS'db'
p178
S'<DAL uri="postgres:******@localhost/SisPIO">'
p179
sS'auth'
p180
S'<gluon.tools.Auth object>'
p181
sS'P'
S"<class 'gluon.html.P'>"
p182
sS'TFOOT'
p183
S"<class 'gluon.html.TFOOT'>"
p184
sS'XHTML'
p185
S"<class 'gluon.html.XHTML'>"
p186
sS'ON'
p187
S'True'
p188
sS'OL'
p189
S"<class 'gluon.html.OL'>"
p190
sS'TEXTAREA'
p191
S"<class 'gluon.html.TEXTAREA'>"
p192
sS'MENU'
p193
S"<class 'gluon.html.MENU'>"
p194
sS'IS_IMAGE'
p195
S"<class 'gluon.validators.IS_IMAGE'>"
p196
sS'EM'
p197
S"<class 'gluon.html.EM'>"
p198
sS'CODE'
p199
S"<class 'gluon.html.CODE'>"
p200
sS'HTTP'
p201
S"<class 'gluon.http.HTTP'>"
p202
sS'HR'
p203
S"<class 'gluon.html.HR'>"
p204
sS'IS_DATETIME'
p205
S"<class 'gluon.validators.IS_DATETIME'>"
p206
sS'STYLE'
p207
S"<class 'gluon.html.STYLE'>"
p208
sS'LABEL'
p209
S"<class 'gluon.html.LABEL'>"
p210
sS'CLEANUP'
p211
S"<class 'gluon.validators.CLEANUP'>"
p212
sS'plugins'
p213
S'<gluon.tools.PluginManager object>'
p214
sS'SELECT'
p215
S"<class 'gluon.html.SELECT'>"
p216
sS'CENTER'
p217
S"<class 'gluon.html.CENTER'>"
p218
sS'Auth'
p219
S"<class 'gluon.tools.Auth'>"
p220
sS'DEVELOPMENT_MENU'
p221
g188
sS'__builtins__'
p222
S"{'ArithmeticError': <type 'exceptions.ArithmeticError'>, 'AssertionError': <type 'exceptions.AssertionError'>, 'AttributeError': <type 'exceptions.AttributeError'>, 'BaseException': <type 'exceptions.BaseException'>, 'BufferError': <type 'exceptions.BufferError'>, 'BytesWarning': <type 'exceptions.BytesWarning'>, 'DeprecationWarning': <type 'exceptions.DeprecationWarning'>, 'EOFError': <type 'exceptions.EOFError'>, 'Ellipsis': Ellipsis, 'EnvironmentError': <type 'exceptions.EnvironmentError'>, ...}"
p223
sS'HTML'
p224
S"<class 'gluon.html.HTML'>"
p225
sS'SQLFORM'
p226
S"<class 'gluon.sqlhtml.SQLFORM'>"
p227
sS'LOAD'
p228
S'<function LOAD>'
p229
sS'redirect'
p230
S'<function redirect>'
p231
sS'FIELDSET'
p232
S"<class 'gluon.html.FIELDSET'>"
p233
sS'IS_EQUAL_TO'
p234
S"<class 'gluon.validators.IS_EQUAL_TO'>"
p235
sS'embed64'
p236
S'<function embed64>'
p237
sS'IS_LIST_OF'
p238
S"<class 'gluon.validators.IS_LIST_OF'>"
p239
sS'INPUT'
p240
S"<class 'gluon.html.INPUT'>"
p241
sS'EMBED'
p242
S"<class 'gluon.html.EMBED'>"
p243
sS'_'
S'<function _>'
p244
sS'myconf'
p245
S"{'forms': {'formstyle': 'bootstrap3_inline', 'se...': {'names': 'localhost:*, 127.0.0.1:*, *:*, *'}}"
p246
sS'H2'
p247
S"<class 'gluon.html.H2'>"
p248
sS'H3'
p249
S"<class 'gluon.html.H3'>"
p250
sS'AppConfig'
p251
S'<function AppConfig>'
p252
sS'H1'
p253
S"<class 'gluon.html.H1'>"
p254
sS'H6'
p255
S"<class 'gluon.html.H6'>"
p256
sS'H4'
p257
S"<class 'gluon.html.H4'>"
p258
sS'H5'
p259
S"<class 'gluon.html.H5'>"
p260
sS'UL'
p261
S"<class 'gluon.html.UL'>"
p262
sS'IS_UPPER'
p263
S"<class 'gluon.validators.IS_UPPER'>"
p264
sS'xmlescape'
p265
S'<function xmlescape>'
p266
sS'IS_TIME'
p267
S"<class 'gluon.validators.IS_TIME'>"
p268
sS'OPTION'
p269
S"<class 'gluon.html.OPTION'>"
p270
sS'TITLE'
p271
S"<class 'gluon.html.TITLE'>"
p272
sS'CRYPT'
p273
S"<class 'gluon.validators.CRYPT'>"
p274
sS'IS_EMPTY_OR'
p275
S"<class 'gluon.validators.IS_EMPTY_OR'>"
p276
sS'MARKMIN'
p277
S"<class 'gluon.html.MARKMIN'>"
p278
sS'__name__'
p279
S"'__restricted__'"
p280
sS'STRONG'
p281
S"<class 'gluon.html.STRONG'>"
p282
sS'COL'
p283
S"<class 'gluon.html.COL'>"
p284
sS'service'
p285
S'<gluon.tools.Service object>'
p286
sS'SCRIPT'
p287
S"<class 'gluon.html.SCRIPT'>"
p288
sS'TABLE'
p289
S"<class 'gluon.html.TABLE'>"
p290
sS'IS_IPV4'
p291
S"<class 'gluon.validators.IS_IPV4'>"
p292
sS'IS_LENGTH'
p293
S"<class 'gluon.validators.IS_LENGTH'>"
p294
sS'IS_IPV6'
p295
S"<class 'gluon.validators.IS_IPV6'>"
p296
sS'XML'
p297
S"<class 'gluon.html.XML'>"
p298
sS'B'
S"<class 'gluon.html.B'>"
p299
sS'IMG'
p300
S"<class 'gluon.html.IMG'>"
p301
sS'SQLTABLE'
p302
S"<class 'gluon.sqlhtml.SQLTABLE'>"
p303
sS'IS_MATCH'
p304
S"<class 'gluon.validators.IS_MATCH'>"
p305
sS'IS_ALPHANUMERIC'
p306
S"<class 'gluon.validators.IS_ALPHANUMERIC'>"
p307
sS'SPAN'
p308
S"<class 'gluon.html.SPAN'>"
p309
sS'IS_JSON'
p310
S"<class 'gluon.validators.IS_JSON'>"
p311
sS'IS_IPADDRESS'
p312
S"<class 'gluon.validators.IS_IPADDRESS'>"
p313
sS'IS_SLUG'
p314
S"<class 'gluon.validators.IS_SLUG'>"
p315
sS'BEAUTIFY'
p316
S"<class 'gluon.html.BEAUTIFY'>"
p317
sS'META'
p318
S"<class 'gluon.html.META'>"
p319
sS'BUTTON'
p320
S"<class 'gluon.html.BUTTON'>"
p321
sS'IS_DATE'
p322
S"<class 'gluon.validators.IS_DATE'>"
p323
sS'IS_EMAIL'
p324
S"<class 'gluon.validators.IS_EMAIL'>"
p325
sS'IS_NOT_EMPTY'
p326
S"<class 'gluon.validators.IS_NOT_EMPTY'>"
p327
sS'IS_FLOAT_IN_RANGE'
p328
S"<class 'gluon.validators.IS_FLOAT_IN_RANGE'>"
p329
sS'TBODY'
p330
S"<class 'gluon.html.TBODY'>"
p331
sS'CAT'
p332
S"<class 'gluon.html.CAT'>"
p333
sS'Field'
p334
S"<class 'pydal.objects.Field'>"
p335
sS'IS_LIST_OF_EMAILS'
p336
S"<class 'gluon.validators.IS_LIST_OF_EMAILS'>"
p337
sS'DIV'
p338
S"<class 'gluon.html.DIV'>"
p339
sS'LEGEND'
p340
S"<class 'gluon.html.LEGEND'>"
p341
sS'COLGROUP'
p342
S"<class 'gluon.html.COLGROUP'>"
p343
sS'DAL'
p344
S"<class 'pydal.base.DAL'>"
p345
sS'ASSIGNJS'
p346
S'<function ASSIGNJS>'
p347
sS'TR'
p348
S"<class 'gluon.html.TR'>"
p349
sS'LI'
p350
S"<class 'gluon.html.LI'>"
p351
sS'TH'
p352
S"<class 'gluon.html.TH'>"
p353
sS'TD'
p354
S"<class 'gluon.html.TD'>"
p355
sS'PluginManager'
p356
S"<class 'gluon.tools.PluginManager'>"
p357
sS'IS_URL'
p358
S"<class 'gluon.validators.IS_URL'>"
p359
sS'A'
S"<class 'gluon.html.A'>"
p360
sS'HEAD'
p361
S"<class 'gluon.html.HEAD'>"
p362
sS'IS_DATETIME_IN_RANGE'
p363
S"<class 'gluon.validators.IS_DATETIME_IN_RANGE'>"
p364
sS'FORM'
p365
S"<class 'gluon.html.FORM'>"
p366
sS'I'
S"<class 'gluon.html.I'>"
p367
sS'IS_NOT_IN_DB'
p368
S"<class 'gluon.validators.IS_NOT_IN_DB'>"
p369
sS'cargaExitosa'
p370
S'[]'
p371
sS'formAdministrador'
p372
S'<gluon.sqlhtml.SQLFORM object>'
p373
sS'erroresCarga'
p374
S'[]'
p375
sg129
S"<Storage {'body': <cStringIO.StringO object at 0...a> at 0x09AB8870>, 'view': 'default/admin.html'}>"
p376
sS'THEAD'
p377
S"<class 'gluon.html.THEAD'>"
p378
sS'ANY_OF'
p379
S"<class 'gluon.validators.ANY_OF'>"
p380
sS'IS_NULL_OR'
p381
S"<class 'gluon.validators.IS_EMPTY_OR'>"
p382
sg56
S"<Storage {'_vars': <Storage {}>, 'function': 'ad...\\web2py\\\\web2py\\\\applications\\\\SisPIOrafael2\\\\'}>"
p383
sS'IS_EXPR'
p384
S"<class 'gluon.validators.IS_EXPR'>"
p385
sS'T'
S'<gluon.languages.translator object>'
p386
sS'IS_IN_SET'
p387
S"<class 'gluon.validators.IS_IN_SET'>"
p388
sS'IS_UPLOAD_FILENAME'
p389
S"<class 'gluon.validators.IS_UPLOAD_FILENAME'>"
p390
sS'TT'
p391
S"<class 'gluon.html.TT'>"
p392
sS'IS_DECIMAL_IN_RANGE'
p393
S"<class 'gluon.validators.IS_DECIMAL_IN_RANGE'>"
p394
sssS'traceback'
p395
S'Traceback (most recent call last):\n  File "C:\\Users\\Rafael Cisneros\\Desktop\\web2py\\web2py\\gluon\\restricted.py", line 227, in restricted\n    exec ccode in environment\n  File "C:\\Users\\Rafael Cisneros\\Desktop\\web2py\\web2py\\applications\\SisPIOrafael2\\views\\default/admin.html", line 20, in <module>\n    <li role="presentation"><a id="delete" href="#">Eliminar</a></li>\nNameError: name \'formulario\' is not defined\n'
p396
s.