(dp1
S'output'
p2
S"<type 'exceptions.SyntaxError'> invalid syntax (default/admin.html, line 26)"
p3
sS'layer'
p4
S'C:\\Users\\capf9\\Desktop\\University\\web2py_win\\web2py\\applications\\SisPIO\\views\\default/admin.html'
p5
sS'code'
p6
S'response.write(\'<!DOCTYPE html>\\r\\n\\r\\n \', escape=False)\nresponse.write(\'<html lang="es">\\r\\n\\r\\n<head>\\r\\n    <meta charset="utf-8">\\r\\n    <meta http-equiv="X-UA-Compatible" content="IE=edge">\\r\\n    <meta name="viewport" content="width=device-width, initial-scale=1">\\r\\n    <!-- The above 3 meta tags *must* come first in the head; any other head content must come *after* these tags. Will make it responsive-->\\r\\n    <title>Sistema PIO</title>\\r\\n    <link rel="shortcut icon" href="\', escape=False)\nresponse.write(URL(\'static\', \'images/logoUSB.png\'))\nresponse.write(\'" />\\r\\n     <!-- Bootstrap -->\\r\\n    <link href="\', escape=False)\nresponse.write(URL(\'static\', \'css/bootstrap.min.css\'))\nresponse.write(\'" rel="stylesheet">\\r\\n    <link href="\', escape=False)\nresponse.write(URL(\'static\', \'css/bootstrap-theme.min.css\'))\nresponse.write(\'" rel="stylesheet">\\r\\n    <link href="\', escape=False)\nresponse.write(URL(\'static\', \'css/index.css\'))\nresponse.write(\'" rel="stylesheet">\\r\\n\\r\\n\\r\\n    <!-- HTML5 shim and Respond.js for IE8 support of HTML5 elements and media queries -->\\r\\n    <!-- WARNING: Respond.js doesn\\\'t work if you view the page via file:// -->\\r\\n    <!--[if lt IE 9]>\\r\\n      <script src="https://oss.maxcdn.com/html5shiv/3.7.3/html5shiv.min.js"></script>\\r\\n      <script src="https://oss.maxcdn.com/respond/1.4.2/respond.min.js"></script>\\r\\n    <![endif]-->\\r\\n</head>\\r\\n<div class="container">\\r\\n        <div class="row">\\r\\n            <!--HEADER --> \\r\\n            <div class="col-sm-12">\\r\\n                <img id="Logo" class="img-responsive" src="\', escape=False)\nresponse.write(URL(\'static\', \'images/bar7.png\'))\nresponse.write(\'" >\\r\\n            </div>\\r\\n            \\r\\n             <!--Navbar -->\\r\\n            <div class=" col-sm-12">\\r\\n                \\r\\n                <nav class="navbar navbar-default inicioSesion">\\r\\n                  <div class="container-fluid">\\r\\n                    <!-- Brand and toggle get grouped for better mobile display -->\\r\\n                    <div class="navbar-header">\\r\\n                      <button type="button" class="navbar-toggle collapsed" data-toggle="collapse" data-target="#bs-example-navbar-collapse-1" aria-expanded="false">\\r\\n                        <span class="sr-only">Toggle navigation</span>\\r\\n                        <span class="icon-bar"></span>\\r\\n                        <span class="icon-bar"></span>\\r\\n                        <span class="icon-bar"></span>\\r\\n                      </button>\\r\\n                    </div>\\r\\n\\r\\n                    <!-- Collect the nav links, forms, and other content for toggling -->\\r\\n                    <div class="collapse navbar-collapse" id="bs-example-navbar-collapse-1">\\r\\n                      <ul class="nav navbar-nav navbar-right">\\r\\n                          <li class="dropdown">\\r\\n                            \', escape=False)\nif auth.is_logged_in():\n    response.write(\'\\r\\n                              <a href="#" class="dropdown-toggle" data-toggle="dropdown" role="button" aria-haspopup="true" aria-expanded="false">\', escape=False)\n    response.write(auth.user.first_name)\n    response.write(\'<span class="caret"></span></a>\\r\\n                              \', escape=False)\nelse:\n    response.write(\'\\r\\n                               <a href="#" class="dropdown-toggle" data-toggle="dropdown" role="button" aria-haspopup="true" aria-expanded="false">Usuario<span class="caret"></span></a>\\r\\n                               \', escape=False)\n    pass\nresponse.write(\'\\r\\n                              <ul class="dropdown-menu">\\r\\n                                    <li id="userinfo"><a href="#"><span class="glyphicon glyphicon-user "></span> Mi perfil </a></li>\\r\\n                                    <li id="enviar"><a href="#"><span class="glyphicon glyphicon-envelope"></span> Contactanos</a></li>\\r\\n                                    <li role="separator" class="divider"></li>\\r\\n                                    <li><a href="\', escape=False)\nresponse.write(URL(\'default\', \'user\', args=\'logout\'))\nresponse.write(\'"><span class="glyphicon glyphicon-log-out"></span> Salir </a></li>\\r\\n                              </ul>\\r\\n                          </li>\\r\\n                        </ul>\\r\\n                    </div><!-- /.navbar-collapse -->\\r\\n                  </div><!-- /.container-fluid -->\\r\\n                </nav>\\r\\n            </div><!--col12-->\\r\\n        </div><!--row-->\\r\\n            \\r\\n    </div><!--container-->\\r\\n<body>\\r\\n<div class="w2p_flash alert alert-dismissable">\', escape=False)\nresponse.write(response.flash or \'\')\nresponse.write(\'</div>\\r\\n\', escape=False)\nresponse.write(\'\\r\\n\\r\\n\\r\\n    <div  class="container">\\r\\n\\r\\n\\r\\n         <!-- Information-->\\r\\n        <div id="inicio" class="row">\\r\\n            <div class="col-md-12">  \\r\\n              <div class="row">\\r\\n                <div class="col-md-3">\\r\\n                  <div class="row">\\r\\n                        <button class="accordion2" id="principal">Inicio</button>\\r\\n                        <button class="accordion">Gestion de usuarios<span class="caret"></span></button>\\r\\n                        <div class="panel">\\r\\n                        <button class="accordion2" id="add"><span class="glyphicon glyphicon-pencil"></span>  Agregar usuario</span></button>\\r\\n                        <button class="accordion2" id="edit"><span class="glyphicon glyphicon-pencil"></span>  Modificar usuario</span></button>\\r\\n                        <button class="accordion2" id="delete"><span class="glyphicon glyphicon-pencil"></span>  Eliminar usuario</span></button>\\r\\n                        </div>\\r\\n                        <button class="accordion">Gestion de instituciones<span class="caret"></span></button>\\r\\n                        <div class="panel">\\r\\n                        <button class="accordion2" id="inst"><span class="glyphicon glyphicon-pencil"></span>  Agregar institucion</span></button>\\r\\n                        <button class="accordion2" id="deleteInst"><span class="glyphicon glyphicon-pencil"></span>  Eliminar institucion</span></button>\\r\\n                        </div>\\r\\n                        <button class="accordion">Sistema<span class="caret"></span></button>\\r\\n                        <div class="panel">\\r\\n                        <button class="accordion2" id="lookfor"><span class="glyphicon glyphicon-pencil"></span>  Consultar</span></button>\\r\\n                        <button class="accordion2" id="comp"><span class="glyphicon glyphicon-pencil"></span>  Generar comprobante</span></button>\\r\\n                        </div>\\r\\n                        <button class="accordion2" id="upload">Cargar archivo</button>\\r\\n                        <button class="accordion2" id="cohor">Agregar cohorte</button>\\r\\n                         <button class="accordion">Otros<span class="caret"></span></button>\\r\\n                        <div class="panel">\\r\\n                        <button class="accordion2" id="perfil"><span class="glyphicon glyphicon-pencil"></span>  Perfil</button>\\r\\n                        <button class="accordion2" id="news"><span class="glyphicon glyphicon-pencil"></span>  Noticias</button>\\r\\n                        <button class="accordion2" id="contacto"><span class="glyphicon glyphicon-pencil"></span>  Correo masivo</button>\\r\\n                        <button class="accordion2" id="pass"><span class="glyphicon glyphicon-pencil"></span>  Cambiar contrase\\xc3\\xb1a</button>\\r\\n                        </div>\\r\\n                        <a href="\', escape=False)\nURL=(\'default\', \'user\', args=\'logout\')\nresponse.write(\'" id="logOut"> <button class="accordion2">Salir</button></a>\\r\\n                   </div>\\r\\n                  \\r\\n                    \\r\\n                </div>\\r\\n                <div class="col-md-9">\\r\\n                \\r\\n                    <!-- INICIO -->\\r\\n                    <div id="information">\\r\\n                    <script type="text/javascript"> \\r\\n                                   var cargar = false;\\r\\n                                   var modificar = false;\\r\\n                                   var eliminar = false;\\r\\n                                   var inicio =true;\\r\\n                                   </script>\\r\\n                         <h1> Bienvenido al PIO </h1>\\r\\n                        <br><br>\\r\\n                        <p><strong>Coordinadores,</strong></p><br>\\r\\n                        <p class="textCoor">\\r\\n                            Bienvenido al Sistema PIO, para continuar en el proceso de carga de estudiantes es obligatorio llenar el siguiente formulario: <a class="perfil"><strong>Validar mis datos </strong></a></p>\\r\\n                        <p class="textCoor"> \\r\\n                            Recuerde imprimir su comprobante de carga de estudiantes con la opcion generar comprobante, luego de ingresar a sus alumnos al sistema.</p>\\r\\n                        <div>\\r\\n                            <h1 class="datos1">\', escape=False)\nresponse.write(formAdministrador[0][0][1][0])\nresponse.write(\'  </h1>\\r\\n                            <h1 class="datos1"><a id="Editar" href="#"><span class="glyphicon glyphicon-edit green-icn"></span></a></h1>\\r\\n                            <p class="datos">\\r\\n                                <b>Nombre completo: </b> \', escape=False)\nresponse.write(formAdministrador[0][0][1][0])\nresponse.write(\'\\r\\n                                <br>\\r\\n                                <b>Cedula de identidad: </b> \', escape=False)\nresponse.write(formAdministrador[0][1][1][0])\nresponse.write(\'<br>\\r\\n                                <b>Correo electronico: </b> \', escape=False)\nresponse.write(formAdministrador[0][2][1][0])\nresponse.write(\' <br>\\r\\n                                <br>\\r\\n                            </p>\\r\\n                        </div>\\r\\n                    </div>\\r\\n                    <!-- Noticias -->\\r\\n                    <div id="noticias">\\r\\n                        <h1>Noticias</h1>\\r\\n                        <p class="textCoor">No hay noticias recientes</p>\\r\\n                    \\r\\n                    </div>\\r\\n                    <!--Agregar Manual-->\\r\\n                    <div id="agregar">\\r\\n                        <form enctype="multipart/form-data" method="post" >\\r\\n                        <input name="_formname" type="hidden" value="formularioAgregarManual">\\r\\n                                <legend><h2>Agregar usuarios al Sistema PIO</h2></legend>\\r\\n                                    <div class="form-group" id="tipo">\\r\\n                                        <p class="textCoor">Seleccione el tipo de usuario a cargar:</p>\\r\\n                                        <div class="radio">\\r\\n                                                <label class="textCoor"><input id="cargarEstudiante" type="radio" name="tipoUsuario" value="estudiante" checked>Estudiante</label>\\r\\n                                        </div>\\r\\n                                        <div class="radio">\\r\\n                                                  <label class="textCoor"><input id="cargarProfesor" type="radio" name="tipoUsuario" value="profesor">Profesor</label>\\r\\n                                        </div>\\r\\n                                        <div class="radio">\\r\\n                                                  <label class="textCoor"><input id="cargarLiceo" type="radio" name="tipoUsuario" value="coordinadorLiceo">Coordinador liceo</label>\\r\\n                                        </div>\\r\\n                                        <div class="radio">\\r\\n                                                  <label class="textCoor"><input id="cargarSede" type="radio" name="tipoUsuario" value="coordinadorSede">Coordinador sede</label>\\r\\n                                        </div>\\r\\n                                        <div class="radio">\\r\\n                                                  <label class="textCoor"><input id="cargarAdmin" type="radio" name="tipoUsuario" value="admin">Administrador</label>\\r\\n                                        </div>\\r\\n                                    </div>\\r\\n                        \\r\\n                            <div id="manualAgregar">\\r\\n                                <legend>Datos personales</legend>\\r\\n                            <!-- Person ID -->\\r\\n                                <label for="cedula">Cedula de identidad: </label>\\r\\n                                <input type="text" id="cedula" name="cedula" placeholder="Cedula de identidad" required> <br>\\r\\n                            <!-- Person name -->\\r\\n                                <label for="name">Nombres: </label>\\r\\n                                <input type="text" id="name" name="nombres" placeholder="Primer y segundo nombre" required > <br>\\r\\n                            <!-- Person last name -->\\r\\n                                <label for="apellido">Apellidos: </label>\\r\\n                                <input type="text" id="apellido" name="apellidos" placeholder="Primer y segundo apellido" required> <br>\\r\\n                            <!-- Liceo procedencia-->\\r\\n                            <div id="manualLiceo">\\r\\n                                <label for="liceoProcedencia" >Liceo de procedencia: </label>\\r\\n                                <select class="select-style"  name="liceo" id="liceoProcedencia" required>\\r\\n                                <option  disabled>Seleccione uno</option>\\r\\n                                \', escape=False)\nfor i in liceos:\n    response.write(\'\\r\\n                                    <option value="\', escape=False)\n    response.write(i.nombre)\n    response.write(\'" >\', escape=False)\n    response.write(i.nombre)\n    response.write(\'</option>\\r\\n                                \', escape=False)\n    pass\nresponse.write(\'\\r\\n                                </select>\\r\\n                                <br>\\r\\n                            </div>\\r\\n                            <!-- sede procedencia-->\\r\\n                            <div id="manualSede">\\r\\n                                <label for="sede" >Sede de procedencia: </label>\\r\\n                                <select class="select-style" id="sede" name="sede" required>\\r\\n                                    <option value=" " disable >Seleccione uno</option>\\r\\n                                    \', escape=False)\nfor i in sedes:\n    response.write(\'\\r\\n                                    <option value="\', escape=False)\n    response.write(i.zona)\n    response.write(\'" >\', escape=False)\n    response.write(i.zona)\n    response.write(\'</option>\\r\\n                                    \', escape=False)\n    pass\nresponse.write(\'\\r\\n                                </select>\\r\\n                                <br>\\r\\n                            </div>\\r\\n                            <!-- Person average-->\\r\\n                            <div id="manualPromedio">\\r\\n                                <label for="promedioEntero">Promedio:</label>\\r\\n                                <input type="number" min="0" max="20" step="1" value="0" id="promedioEntero" class="text-right" id="PromedioEntero" name="PromedioEntero" required>\\r\\n                                <strong> .</strong>\\r\\n                                <input type="number" min="0" max="9" step="1" value="0" id="promedioDecimal" class="text-right" name="PromedioDecimal" required>\\r\\n                                <br>\\r\\n                            </div>\\r\\n                            <!--Person email -->\\r\\n                            <div id="manualEmail">\\r\\n                                <label for="email">Email: </label>\\r\\n                                <input type="email" id="email" name="email" placeholder="Correo electronico"><br>\\r\\n                            </div>\\r\\n                            </div><!-- manual agregar-->\\r\\n\\r\\n                             <br>\\r\\n                            \\r\\n                            <div class="save text-center"><input type="submit" class="btn btn-primary save" value="Agregar"></div>\\r\\n                      </form>\\r\\n                        </div>\\r\\n                    <!--Agregar Institucion-->\\r\\n                    <div id="institucion">\\r\\n               <!--         <form method="get" > \\r\\n                        <input name="_formname" type="hidden" value="formularioAgregarLiceo">   -->\\r\\n                                <legend><h2>Agregar instituciones al Sistema PIO</h2></legend>   \\r\\n                        \', escape=False)\nresponse.write(formularioLiceoManual)\nresponse.write(\'\\r\\n                        <!-- Institution name -->\\r\\n                <!--\\r\\n                        <div class="form-group">\\r\\n                            <label for="name">Nombre de la institucion: </label>\\r\\n                            <input type="text" id="name2" name="Nombre" placeholder="Nombre de la institucion" required> \\r\\n                            <br><br>\\r\\n                        </div>\\r\\n                        <div class="form-group">\\r\\n                                <label for="profesor"  style="padding-left: 0px;" class="col-sm-3 control-label ">Tipo de institucion: </label>\\r\\n                                   <input type="radio" class="gender marg" name="tipo" value="publico" checked >Publica<br>\\r\\n                                    <input type="radio" class="gender marg" name="tipo" value="subsidiado" >Subsidiada <br>\\r\\n                        </div>\\r\\n                        <!-- Intitution phone -->\\r\\n                <!--\\r\\n                        <div class="form-group">\\r\\n                            <label for="mobile">Telefono principal: </label>\\r\\n                            <input type="tel" id="mobile2" name="Mobile" placeholder="Telefono principal" max="11">\\r\\n                            <br><br>\\r\\n                        </div>\\r\\n                        <!-- Institution address-->\\r\\n                <!--\\r\\n                        <div class="form-group">\\r\\n                            <label class="dir" for="direccion">Direccion de la institucion:</label>\\r\\n                            <div class="textarea1">\\r\\n                                    \', escape=False)\nfor i in sedes:\n    response.write(\'\\r\\n                                     <input type="radio" class="gender marg" name="sede" value="\', escape=False)\n    response.write(i.zona)\n    response.write(\'" checked> \', escape=False)\n    response.write(i.zona)\n    response.write(\'<br>\\r\\n                                    \', escape=False)\n    pass\nresponse.write(\'\\r\\n                            </div>\\r\\n                            <br><br>\\r\\n                        </div>\\r\\n                        \\r\\n                        <div class="save text-center"><input type="submit" class="btn btn-primary save" value="Agregar"></div>\\r\\n                     </form>\\r\\n                        -->\\r\\n                    </div>                    \\r\\n                     <!--CARGAR ARCHIVO-->\\r\\n                    <div id="cargar">\\r\\n                         <div class="row">\\r\\n                                    <form action="" enctype="multipart/form-data" method="post">\\r\\n                                        <fieldset>\\r\\n                                            <legend><h2>Cargar archivo</h2></legend>\\r\\n                                            <div class="form-group" id="tipo">\\r\\n                                                <p class="textCoor">Seleccione el tipo de usuario a cargar:</p>\\r\\n                                                <div class="radio">\\r\\n                                                <label class="textCoor"><input type="radio" name="optradio" value="estudiante" checked>Estudiante</label>\\r\\n                                                </div>\\r\\n                                                <div class="radio">\\r\\n                                                  <label class="textCoor"><input type="radio" name="optradio" value="profesor">Profesor</label>\\r\\n                                                </div>\\r\\n                                                <div class="radio">\\r\\n                                                  <label class="textCoor"><input type="radio" name="optradio" value="liceo">Coordinador liceo</label>\\r\\n                                                </div>\\r\\n                                                <div class="radio">\\r\\n                                                  <label class="textCoor"><input type="radio" name="optradio" value="sede">Coordinador sede</label>\\r\\n                                                <div class="radio">\\r\\n                                                  <label class="textCoor"><input type="radio" name="optradio" value="liceos">Institucion</label>\\r\\n                                                </div>\\r\\n                                                </div>\\r\\n                                                \\r\\n                                            </div>\\r\\n                                        </fieldset>\\r\\n                                        <fieldset>\\r\\n                                                <legend>Seleccionar archivo</legend>\\r\\n                                                <div class="form-group">\\r\\n                                                    <br>\\r\\n                                                    <input name="_formname" type="hidden" value="formularioArchivo">\\r\\n                                                    <p class="textCoor">Por favor selecione su archivo a cargar y presione enviar de tipo:</p><br>\\r\\n                                                    <label for="file" class="textCoor">Archivo: </label> \\r\\n                            \\t\\t\\t\\t        <input class="upload" type="file" id="file" name="fileToUpload" required><br><br>\\r\\n                                                     \\r\\n                                                </div>\\r\\n                                        </fieldset>\\r\\n                                       <div class="save text-center"><input type="submit" class="btn btn-primary save" value="Cargar archivo"></div>\\r\\n                                    </form>\\r\\n\\r\\n                                   \', escape=False)\nif len(erroresCarga) != 0:\n    response.write(\'\\r\\n                                   <script type="text/javascript"> \\r\\n                                   var cargar = true;\\r\\n                                   var modificar = false;\\r\\n                                   var eliminar = false;\\r\\n                                   var inicio =false;\\r\\n                                   </script>\\r\\n                                   Errores\\r\\n                                   <br>\\r\\n                                   \', escape=False)\n    for i in erroresCarga:\n        response.write(\'\\r\\n                                   \', escape=False)\n        response.write(i)\n        response.write(\'\\r\\n                                   <br>\\r\\n                                   \', escape=False)\n        pass\n    response.write(\'\\r\\n                                   \', escape=False)\n    pass\nresponse.write(\'\\r\\n                                   <br>\\r\\n                                   \\r\\n                                   \', escape=False)\nif len(cargaExitosa) != 0:\n    response.write(\'\\r\\n                                   <script type="text/javascript"> \\r\\n                                   var cargar = true;\\r\\n                                   var modificar = false;\\r\\n                                   var eliminar = false;\\r\\n                                   var inicio =false;\\r\\n                                   </script>\\r\\n                                   Exitosos\\r\\n                                   <br>\\r\\n                                   \', escape=False)\n    for i in cargaExitosa:\n        response.write(\'\\r\\n                                   \', escape=False)\n        response.write(i)\n        response.write(\'\\r\\n                                   <br>\\r\\n                                   \', escape=False)\n        pass\n    response.write(\'\\r\\n                                   \', escape=False)\n    pass\nresponse.write(\'\\r\\n                                </div>\\r\\n\\r\\n                        </div>\\r\\n                    <!-- MI PERFIL -->\\r\\n                    <div id="miPerfil" class="row">\\r\\n                     <form method="get" >\\r\\n                        <h1>Perfil</h1>\\r\\n                        <fieldset>\\r\\n                            <legend>Datos personales</legend>\\r\\n                        <!-- Person ID -->\\r\\n                            <label for="cedula">Cedula de identidad: </label>\\r\\n                            <input type="text" id="cedula" name="ID" placeholder="Cedula de identidad"> <br>\\r\\n                        <!-- Person name -->\\r\\n                            <label for="name">Nombres: </label>\\r\\n                            <input type="text" id="nombre" name="Nombre" placeholder="Primer y segundo nombre"> <br>\\r\\n                        <!-- Person last name -->\\r\\n                            <label for="apellido">Apellidos: </label>\\r\\n                            <input type="text" id="apellido" name="Apellido" placeholder="Primer y segundo apellido" > <br>\\r\\n                        \\r\\n                        </fieldset> <br>\\r\\n                        <fieldset>\\r\\n                            <legend>Informacion de contacto</legend>\\r\\n                        <!--Person email -->\\r\\n                            <label for="email">Email: </label>\\r\\n                            <input type="email" id="email" name="Email" placeholder="Correo electronico" required><br>\\r\\n                        </fieldset> <br>\\r\\n                        \\r\\n                        <div class="save text-center"><input type="submit" class="btn btn-primary save" value="Guardar"></div>\\r\\n                      </form>\\r\\n                     </div>\\r\\n                    <!-- CONSULTA -->\\r\\n                    <div id="consultar" >\\r\\n                      <form method="get" >\\r\\n                      <input name="_formname" type="hidden" value="consultarTodo">\\r\\n                        <h1>Consultas </h1><br>\\r\\n                        <p class="textCoor">Busqueda de todos los alumnos:</p>\\r\\n                            <div class="form-group">\\r\\n                                   <input type="checkbox" class="gender marg" name="todos" value="todos" checked>Todos<br>\\r\\n                            </div>\\r\\n                           <div class="buscar"><button type="submit" class="btn btn-primary save"  value="Consultar" data-toggle="modal" data-target="#ConsultarModal">\\r\\n                              Consultar\\r\\n                            </button>\\r\\n                            </div>\\r\\n                        </form>\\r\\n                        <form method="get">\\r\\n                        <input name="_formname" type="hidden" value="formularioConsulta">\\r\\n                         <!-- institucionn -->\\r\\n                            <p class="textCoor">Busqueda por:</p><br>\\r\\n                            <div class="form-group">\\r\\n                            <label for="institucion"  class="col-sm-2 control-label lineCentral">Institucion: </label>\\r\\n                                <select class="selectStyle" name="institucion" >\\r\\n                                    <option value="" inactive >Seleccione una institucion</option>\\r\\n                                    <option value="">Institucion</option>\\r\\n                                </select>\\r\\n                            </div>\\r\\n                        <br>\\r\\n                             <!-- Por profesor -->\\r\\n                            \\r\\n                            <div class="form-group">\\r\\n                            <label for="profesor"  class="col-sm-2 control-label lineCentral">Profesor: </label>\\r\\n                                <select class="selectStyle" name="profesor" >\\r\\n                                    <option value="" inactive >Seleccione un profesor</option>\\r\\n                                    <option value="">Institucion</option>\\r\\n                                </select>\\r\\n                            </div>\\r\\n                        <br>\\r\\n                             <!-- Por cohorte -->\\r\\n                                \\r\\n                                <div class="form-group">\\r\\n                                <label for="profesor"  class="col-sm-2 control-label lineCentral">Cohorte: </label>\\r\\n                                    <select class="selectStyle" name="profesor" >\\r\\n                                        <option value="" inactive >Seleccione una cohorte</option>\\r\\n                                        <option value="">Institucion</option>\\r\\n                                    </select>\\r\\n                                </div>\\r\\n                            <br>\\r\\n                               \\r\\n                             <!--Edad-->\\r\\n                                    <div class="form-group">\\r\\n                                    <label for="profesor"  class="col-sm-3 control-label lineCentral">Edad: </label>\\r\\n                                    <input type="number" min="0" max="100" step="1" value="0" id="edadConsulta" class="text-right edad" max="20" name="edadEntero">\\r\\n                                    </div>\\r\\n                                <br>\\r\\n                            <!--Genero--> \\r\\n                                <div class="form-group">\\r\\n                                <label for="profesor"  class="col-sm-2 control-label lineCentral">Genero: </label>\\r\\n                                   <input type="radio" class="gender marg edad2" name="gender" value="female" >Femenino<br>\\r\\n                                    <input type="radio" class="gender marg edad2" name="gender" value="male" >Masculino <br>\\r\\n                                </div>\\r\\n                            <br>\\r\\n                            <legend>Busqueda por rangos</legend>\\r\\n                        \\r\\n                        <!--NOtas-->\\r\\n                                <div class="form-group">\\r\\n                                    <strong class="edad">Nota menor que:</strong>\\r\\n                                    <input type="number" min="0" max="20" step="1" value="0" id="promedioEntero" class="text-right" name="PromedioEntero">\\r\\n                                    <strong> .</strong>\\r\\n                                    <input type="number" min="0" max="20" step="1" value="0" id="promedioDecimal" class="text-right" name="PromedioDecimal"><h1></h1>\\r\\n                                    <strong class="edad">  Nota mayor que: </strong>\\r\\n                                    <input type="number" min="0" max="20" step="1" value="0" id="promedioEntero" class="text-right" name="PromedioEntero" >\\r\\n                                    <strong> .</strong>\\r\\n                                    <input type="number" min="0" max="20" step="1" value="0" id="promedioDecimal" class="text-right" name="PromedioDecimal">\\r\\n                                </div>\\r\\n                            <br>\\r\\n                         <!--Fecha-->\\r\\n                                <div class="form-group" >\\r\\n                                    <strong class="edad">Fecha entre:</strong>\\r\\n                                    <input type="date" id="fecha1" name="fecha">\\r\\n                                    <strong> y : </strong>\\r\\n                                    <input type="date" id="fecha2" name="fecha" ><br><br>\\r\\n                                </div>\\r\\n                            <br>\\r\\n                           <!-- Button trigger modal -->\\r\\n                            <div class="save text-center"><button type="submit" class="btn btn-primary save"  value="Consultar">\\r\\n                              Consultar </button>\\r\\n                            </div>\\r\\n                        </form>\\r\\n                        \', escape=False)\nif consulta:\n    response.write(\'\\r\\n                        \', escape=False)\n    response.write(consulta)\n    response.write(\'\\r\\n                        \', escape=False)\n    pass\nresponse.write(\'\\r\\n                    </div>\\r\\n                    <!--MODIFICAR-->\\r\\n                    <div id="modificar">\\r\\n                        <h1>Modificar datos </h1>\\r\\n                        <form method="post">\\r\\n                            <label class="textCoor" for="contrase\\xc3\\xb1a">Ingresar CI : </label>\\r\\n                                <input name="_formname" type="hidden" value="cedulaModificar">\\r\\n                                <input id="modificarUsuario" name="ci" placeholder="Cedula de Identidad" required> \\r\\n                                <br>\\r\\n                                <br>\\r\\n                            <div class="save text-center"><input type="submit" class="btn btn-primary save" value="Modificar"></div>\\r\\n                        </form> \\r\\n                        \', escape=False)\nif modificando:\n    response.write(\'\\r\\n                            <!-- <strong>MODIFICAR:</strong> -->\\r\\n                        <br>\\r\\n                        Modificando: \\r\\n                        \', escape=False)\n    response.write(modificando[0])\n    response.write(\'\\r\\n                        <script type="text/javascript"> \\r\\n                            var cargar = false;\\r\\n                            var modificar = true;\\r\\n                            var eliminar = false;\\r\\n                            var inicio =false;\\r\\n                        </script>\\r\\n                        \', escape=False)\n    response.write(formularioModificar)\n    response.write(\'\\r\\n                        \', escape=False)\n    pass\nresponse.write(\'\\r\\n                    </div>\\r\\n                    <!--REPORTE-->\\r\\n                    <div id="reporte">\\r\\n                        <h1>Generar comprobrante</h1>\\r\\n                    </div>\\r\\n                    \\r\\n                    <!-- CONTRASENA -->\\r\\n                    <div id="cambioContra">\\r\\n                        <h1>Cambiar contrase\\xc3\\xb1a</h1><br>\\r\\n                        <form method="get">\\r\\n                       <!-- Contrase;a actual -->\\r\\n                            <label for="contrase\\xc3\\xb1a">Contrase\\xc3\\xb1a actual: </label>\\r\\n                            <input type="password" id="contrasena" name="contrase\\xc3\\xb1a" placeholder="Contrase\\xc3\\xb1a actual" required> <br>\\r\\n                        <!-- Contrase;a nueva -->\\r\\n                            <label for="contrase\\xc3\\xb1a">Contrase\\xc3\\xb1a nueva: </label>\\r\\n                            <input type="password" id="password" name="contrase\\xc3\\xb1a" placeholder="Contrase\\xc3\\xb1a nueva" required> <br>\\r\\n                        <!-- Contrase;a nueva -->\\r\\n                            <label for="contrase\\xc3\\xb1a">Confirmar contrase\\xc3\\xb1a: </label>\\r\\n                            <input type="password" id="confirm_password" name="contrase\\xc3\\xb1a" placeholder="Contrase\\xc3\\xb1a nueva" required> <br><br>\\r\\n                        <div class="save text-center"><input type="submit" class="btn btn-primary save" value="Guardar"></div>\\r\\n                        </form>\\r\\n                    </div>\\r\\n                    <!-- Contactanos -->\\r\\n                    <div id="enviarEmail" class="row">\\r\\n                        <h1>Correos Masivos </h1>\\r\\n                        <p class="textCoor marg">Seleccione a las personas que sera dirigido el correo electronico</p>\\r\\n\\r\\n                        <p class="textCoor marg "> Si presenta algun problema comunicarse con el servicio tecnico.</p>\\r\\n                        <form role="form" method="post" >\\r\\n                            <br><br>\\r\\n                            <!-- institucionn -->\\r\\n                            <div class="form-group">\\r\\n                                <label for="quien"  class="col-sm-2 control-label lineCentral">Dirigido a: </label><br>\\r\\n                                   <br><input type="checkbox" class="gender marg" name="estudiantes" value="Estudiantes" >Estudiantes<br>\\r\\n                                    <input type="checkbox" class="gender marg" name="profesores" value="Profesores" >Profesores <br>\\r\\n                                    <input type="checkbox" class="gender marg" name="coordinadorLiceo" value="CoorLiceo" >Coordinadores Liceo <br>\\r\\n                                    <input type="checkbox" class="gender marg" name="coorPio" value="coorPio" >Coordinador Pio<br>\\r\\n                            </div>\\r\\n                        <br>\\r\\n                            <!-- Asunto-->\\r\\n                            <div class="form-group">\\r\\n                                <label for="name" class="col-sm-2 control-label">Correo especifico:</label>\\r\\n                                <br><br>\\r\\n                                <div class="col-sm-8">\\r\\n                                    <input type="email" class="form-control" id="email" name="email" placeholder="Ingrese correo destino" value="" required>\\r\\n                                </div>\\r\\n                            </div>\\r\\n                            <br>\\r\\n                           <br>\\r\\n                            <!-- Asunto-->\\r\\n                            <div class="form-group">\\r\\n                                <label for="name" class="col-sm-2 control-label">Asunto</label>\\r\\n                                <br><br>\\r\\n                                <div class="col-sm-8">\\r\\n                                    <input type="text" class="form-control" id="asunto" name="asunto" placeholder="Asunto" value="" required>\\r\\n                                </div>\\r\\n                            </div>\\r\\n                           <br>\\r\\n                            <!-- mensaje -->\\r\\n                            <div class="form-group">\\r\\n                                <br><br>\\r\\n                                <label for="message" class="col-sm-2 control-label">Mensaje</label><br><br>\\r\\n                                <div class="col-sm-8">\\r\\n                                    <textarea class="form-control" rows="4" name="message" required></textarea>\\r\\n                                </div>\\r\\n                            </div>\\r\\n                            \\r\\n                            <div class="form-group">\\r\\n                                <div class="col-sm-10 col-sm-offset-2">\\r\\n                                    <br><br><div class="send">\\r\\n                                    <input id="submit" name="submit" type="submit" value="Enviar" class="btn btn-primary"></div>\\r\\n                                    <br><br>\\r\\n                                    <br>\\r\\n                                </div>\\r\\n                            </div>\\r\\n                        </form>\\r\\n                    </div>\\r\\n                    <!-- cohorte-->\\r\\n                    <div id="cohorte">\\r\\n                        <form method="post">\\r\\n                            <h1>Agregar cohorte </h1>\\r\\n                            <label class="textCoor" for="cohorteAgregar">Ingrese una cohorte </label>\\r\\n                                <input id="cohorteAgregar" name="cohorteAgregar" placeholder="Cohorte" required> \\r\\n                                <br>\\r\\n                                <br>\\r\\n                            <div class="save text-center">\\r\\n                            <input type="submit" class="btn btn-primary save" value="Agregar">\\r\\n                            </div>\\r\\n                        </form>\\r\\n                    </div>\\r\\n                    <!-- eliminar intitucions-->\\r\\n                    <div id="eliminarInstitucion">\\r\\n                        <form method="post">\\r\\n                        <input name="_formname" type="hidden" value="formularioEliminarLiceo">\\r\\n                            <h1>Eliminar institucion</h1>\\r\\n                            <br><br>\\r\\n                            <label for="liceoEliminar" >Seleccione la institucion: </label>\\r\\n                            \\r\\n                            <select name="liceoEliminar" class="select-style" id="liceoEliminar" required>\\r\\n                                <option  disabled>Seleccione uno</option>\\r\\n                                \', escape=False)\nfor i in liceos:\n    response.write(\'\\r\\n                                    <option value="\', escape=False)\n    response.write(i.nombre)\n    response.write(\'" >\', escape=False)\n    response.write(i.nombre)\n    response.write(\'</option>\\r\\n                                \', escape=False)\n    pass\nresponse.write(\'\\r\\n                            </select>\\r\\n                            <br><br><br>\\r\\n                            <div class="save text-center">\\r\\n                            <input type="submit" class="btn btn-primary save" value="Eliminar">\\r\\n                            </div>\\r\\n                        </form>\\r\\n                    </div>\\r\\n                    <!--Eliminar-->\\r\\n                    <div id="eliminar">\\r\\n                        <form method="post">\\r\\n                            <h1>Eliminar usuario </h1>\\r\\n                            <label class="textCoor" for="contrase\\xc3\\xb1a">Ingresar CI : </label>\\r\\n                                <input name="_formname" type="hidden" value="formularioEliminar">\\r\\n                                <input id="eliminarUsuario" name="ci" placeholder="Cedula de Identidad" required> \\r\\n                                <br>\\r\\n                                <br>\\r\\n                            <div class="save text-center">\\r\\n                            <input type="submit" class="btn btn-primary save" value="Eliminar">\\r\\n                            </div>\\r\\n                        </form>\\r\\n                        <!-- javascript--> \\r\\n                      \', escape=False)\nif eliminando and eliminando != "Eliminado exitosamente":\n    response.write(\'\\r\\n                        <script type="text/javascript"> \\r\\n                            var eliminar = true;\\r\\n                            var cargar = false;\\r\\n                            var modificar = false;\\r\\n                            var inicio =false;\\r\\n                        </script>\\r\\n                         <div class="alert alert-danger alert-dismissable fade in">\\r\\n                            <a href="#" class="close" data-dismiss="alert" aria-label="close">&times;</a>\\r\\n                            <strong>ELIMINAR USUARIO:</strong> \\r\\n                        <br>\\r\\n                        \', escape=False)\n    if eliminando != "No hay un usuario con esa cedula":\n        response.write(\'\\r\\n                        \', escape=False)\n        response.write(eliminando[0].first_name)\n        response.write(\'\\r\\n                        \', escape=False)\n        response.write(eliminando[0].last_name)\n        response.write(\'\\r\\n                        \', escape=False)\n        response.write(eliminando[0].username)\n        response.write(\'\\r\\n                        <br>\\r\\n                        De Tipo:\\r\\n                        <br>\\r\\n                        \', escape=False)\n        response.write(tipoUserEliminando)\n        response.write(\'\\r\\n\\r\\n                        <br>\\r\\n                        <form method="post">\\r\\n                            <input name="_formname" type="hidden" value="confirmacionEliminar">\\r\\n                            <div class="save text-center"><input type="submit" class="btn btn-primary save" value="Confirmar Eliminacion"></div>\\r\\n                        </form>\\r\\n                        \', escape=False)\n    else:\n        response.write(\'\\r\\n                        <script type="text/javascript"> \\r\\n                            var eliminar = true;\\r\\n                            var cargar = false;\\r\\n                            var modificar = false;\\r\\n                            var inicio =false;\\r\\n                        </script>\\r\\n                        \', escape=False)\n        response.write(eliminando)\n        response.write(\'\\r\\n                        \', escape=False)\n        pass\n    response.write(\'\\r\\n                        \', escape=False)\nelif eliminando == "Eliminado exitosamente":\n    response.write(\'\\r\\n                        <script type="text/javascript">\\r\\n                            var eliminar = true\\r\\n                            var cargar = false;\\r\\n                            var modificar = false;\\r\\n                            var inicio =false;\\r\\n                        </script>                       \\r\\n                        \', escape=False)\n    response.write(eliminando)\n    response.write(\'\\r\\n                        \', escape=False)\n    pass\nresponse.write(\'\\r\\n                        </div>\\r\\n                  <!-- fin de Js -->\\r\\n                    </div>\\r\\n                    \\r\\n                    \\r\\n                    \\r\\n                </div><!--col md 9-->\\r\\n                </div><!--row-->\\r\\n              </div><!--colmd12-->\\r\\n                \\r\\n            </div><!-- row -->\\r\\n            <script type="text/javascript">\\r\\n             \\r\\n              console.log("eliminar es: "+eliminar);\\r\\n              console.log("modificar es: "+modificar);\\r\\n              console.log("cargar es: "+cargar);\\r\\n            if(eliminar===true){\\r\\n                document.getElementById("information").style.display="none";\\r\\n                document.getElementById("eliminar").style.display="block";\\r\\n            };\\r\\n            if(modificar===true){\\r\\n                document.getElementById("information").style.display="none";\\r\\n                document.getElementById("modificar").style.display="block";\\r\\n            };\\r\\n            if(cargar===true){\\r\\n                document.getElementById("information").style.display="none";\\r\\n                document.getElementById("cargar").style.display="block";\\r\\n            }\\r\\n            if(inicio===true) {\\r\\n                document.getElementById("information").style.display="block";\\r\\n                document.getElementById("cargar").style.display="none";\\r\\n                document.getElementById("eliminar").style.display="none";\\r\\n                document.getElementById("modificar").style.display="none";\\r\\n            };\\r\\n                     \\r\\n          \\r\\n            </script>\\r\\n            \\r\\n    </div><!-- container-->\\r\\n\', escape=False)\nresponse.write(\'\\r\\n<footer class="container-fluid footer">\\r\\n        <div class="row">\\r\\n            <p class="text-center minText">Universidad Simon Bolivar<br>Sartenejas, Baruta, Edo. Miranda - Apartado 89000 - Cable Unibolivar - Caracas Venezuela. Tel\\xc3\\xa9fono +58 0212-9063111.<br>\\r\\nDise\\xc3\\xb1ada y desarrollada por Software for the World</p>\\r\\n        </div>\\r\\n    </footer>\\r\\n\\r\\n    <!-- jQuery (necessary for Bootstrap\\\'s JavaScript plugins) -->\\r\\n    <script src="https://ajax.googleapis.com/ajax/libs/jquery/1.12.4/jquery.min.js"></script>\\r\\n    <!-- Include all compiled plugins (below), or include individual files as needed -->\\r\\n    <script src="\', escape=False)\nresponse.write(URL(\'static\', \'js/bootstrap.min.js\'))\nresponse.write(\'"></script>\\r\\n    <script src="\', escape=False)\nresponse.write(URL(\'static\', \'js/Admin.js\'))\nresponse.write(\'"></script>\\r\\n    <script src="\', escape=False)\nresponse.write(URL(\'static\', \'js/welcome.js\'))\nresponse.write(\'"></script>\\r\\n    <script src="\', escape=False)\nresponse.write(URL(\'static\', \'js/CoorLiceo.js\'))\nresponse.write(\'"></script>\\r\\n    <script src="\', escape=False)\nresponse.write(URL(\'static\', \'js/CoorPio.js\'))\nresponse.write(\'"></script>\\r\\n    <script src="\', escape=False)\nresponse.write(URL(\'static\', \'js/web2py.js\'))\nresponse.write(\'"></script>\\r\\n    <!-- JQUERY-->\\r\\n</body>\\r\\n</html>\\r\\n\', escape=False)'
p7
sS'snapshot'
p8
(dp9
S'exception'
p10
(dp11
S'__getslice__'
p12
S"<method-wrapper '__getslice__' of exceptions.SyntaxError object>"
p13
sS'text'
p14
S'"URL=(\'default\', \'user\', args=\'logout\')\\n"'
p15
sS'__str__'
p16
S"<method-wrapper '__str__' of exceptions.SyntaxError object>"
p17
sS'__reduce__'
p18
S'<built-in method __reduce__ of exceptions.SyntaxError object>'
p19
sS'__dict__'
p20
S'{}'
p21
sS'__sizeof__'
p22
S'<built-in method __sizeof__ of exceptions.SyntaxError object>'
p23
sS'__init__'
p24
S"<method-wrapper '__init__' of exceptions.SyntaxError object>"
p25
sS'__setattr__'
p26
S"<method-wrapper '__setattr__' of exceptions.SyntaxError object>"
p27
sS'__reduce_ex__'
p28
S'<built-in method __reduce_ex__ of exceptions.SyntaxError object>'
p29
sS'__new__'
p30
S'<built-in method __new__ of type object>'
p31
sS'__format__'
p32
S'<built-in method __format__ of exceptions.SyntaxError object>'
p33
sS'__class__'
p34
S"<type 'exceptions.SyntaxError'>"
p35
sS'filename'
p36
S"r'C:\\Users\\capf9\\Desktop\\University\\web2py_win\\web2py\\applications\\SisPIO\\views\\default/admin.html'"
p37
sS'lineno'
p38
S'26'
p39
sS'msg'
p40
S"'invalid syntax'"
p41
sS'__doc__'
p42
S"'Invalid syntax.'"
p43
sS'__getitem__'
p44
S"<method-wrapper '__getitem__' of exceptions.SyntaxError object>"
p45
sS'__setstate__'
p46
S'<built-in method __setstate__ of exceptions.SyntaxError object>'
p47
sS'__getattribute__'
p48
S"<method-wrapper '__getattribute__' of exceptions.SyntaxError object>"
p49
sS'print_file_and_line'
p50
S'None'
p51
sS'args'
p52
S'(\'invalid syntax\', (r\'C:\\Users\\capf9\\Desktop\\University\\web2py_win\\web2py\\applications\\SisPIO\\views\\default/admin.html\', 26, 29, "URL=(\'default\', \'user\', args=\'logout\')\\n"))'
p53
sS'__subclasshook__'
p54
S'<built-in method __subclasshook__ of type object>'
p55
sS'offset'
p56
S'29'
p57
sS'__unicode__'
p58
S'<built-in method __unicode__ of exceptions.SyntaxError object>'
p59
sS'__delattr__'
p60
S"<method-wrapper '__delattr__' of exceptions.SyntaxError object>"
p61
sS'__repr__'
p62
S"<method-wrapper '__repr__' of exceptions.SyntaxError object>"
p63
sS'__hash__'
p64
S"<method-wrapper '__hash__' of exceptions.SyntaxError object>"
p65
ssS'evalue'
p66
S'invalid syntax (default/admin.html, line 26)'
p67
sS'request'
p68
cgluon.html
XML_unpickle
p69
(S's2h\x00\x00<div><table><tr><td style="font-weight:bold;vertical-align:top;">ajax</td><td style="vertical-align:top;">:</td><td><div>False</div></td></tr><tr><td style="font-weight:bold;vertical-align:top;">application</td><td style="vertical-align:top;">:</td><td><div>SisPIO</div></td></tr><tr><td style="font-weight:bold;vertical-align:top;">args</td><td style="vertical-align:top;">:</td><td><div><table></table></div></td></tr><tr><td style="font-weight:bold;vertical-align:top;">cid</td><td style="vertical-align:top;">:</td><td><div>None</div></td></tr><tr><td style="font-weight:bold;vertical-align:top;">client</td><td style="vertical-align:top;">:</td><td><div>127.0.0.1</div></td></tr><tr><td style="font-weight:bold;vertical-align:top;">controller</td><td style="vertical-align:top;">:</td><td><div>default</div></td></tr><tr><td style="font-weight:bold;vertical-align:top;">cookies</td><td style="vertical-align:top;">:</td><td><div><table><tr><td style="font-weight:bold;vertical-align:top;">csrftoken</td><td style="vertical-align:top;">:</td><td><div>N4366MX2EgVTLy1IdDWZEHUiZZBpU6SkbB3ObGLTLCZMylAmmC4nqvIN1hE4c7fb<table><tr><td style="font-weight:bold;vertical-align:top;">comment</td><td style="vertical-align:top;">:</td><td><div></div></td></tr><tr><td style="font-weight:bold;vertical-align:top;">domain</td><td style="vertical-align:top;">:</td><td><div></div></td></tr><tr><td style="font-weight:bold;vertical-align:top;">expires</td><td style="vertical-align:top;">:</td><td><div></div></td></tr><tr><td style="font-weight:bold;vertical-align:top;">httponly</td><td style="vertical-align:top;">:</td><td><div></div></td></tr><tr><td style="font-weight:bold;vertical-align:top;">max-age</td><td style="vertical-align:top;">:</td><td><div></div></td></tr><tr><td style="font-weight:bold;vertical-align:top;">path</td><td style="vertical-align:top;">:</td><td><div></div></td></tr><tr><td style="font-weight:bold;vertical-align:top;">secure</td><td style="vertical-align:top;">:</td><td><div></div></td></tr><tr><td style="font-weight:bold;vertical-align:top;">version</td><td style="vertical-align:top;">:</td><td><div></div></td></tr></table></div></td></tr><tr><td style="font-weight:bold;vertical-align:top;">session_id_admin</td><td style="vertical-align:top;">:</td><td><div>127.0.0.1-a748e9fe-255f-4c37-bc00-e304d010b743<table><tr><td style="font-weight:bold;vertical-align:top;">comment</td><td style="vertical-align:top;">:</td><td><div></div></td></tr><tr><td style="font-weight:bold;vertical-align:top;">domain</td><td style="vertical-align:top;">:</td><td><div></div></td></tr><tr><td style="font-weight:bold;vertical-align:top;">expires</td><td style="vertical-align:top;">:</td><td><div></div></td></tr><tr><td style="font-weight:bold;vertical-align:top;">httponly</td><td style="vertical-align:top;">:</td><td><div></div></td></tr><tr><td style="font-weight:bold;vertical-align:top;">max-age</td><td style="vertical-align:top;">:</td><td><div></div></td></tr><tr><td style="font-weight:bold;vertical-align:top;">path</td><td style="vertical-align:top;">:</td><td><div></div></td></tr><tr><td style="font-weight:bold;vertical-align:top;">secure</td><td style="vertical-align:top;">:</td><td><div></div></td></tr><tr><td style="font-weight:bold;vertical-align:top;">version</td><td style="vertical-align:top;">:</td><td><div></div></td></tr></table></div></td></tr><tr><td style="font-weight:bold;vertical-align:top;">session_id_sispio</td><td style="vertical-align:top;">:</td><td><div>127.0.0.1-a3981b6c-07f1-43ae-81a8-11a3cc9576d1<table><tr><td style="font-weight:bold;vertical-align:top;">comment</td><td style="vertical-align:top;">:</td><td><div></div></td></tr><tr><td style="font-weight:bold;vertical-align:top;">domain</td><td style="vertical-align:top;">:</td><td><div></div></td></tr><tr><td style="font-weight:bold;vertical-align:top;">expires</td><td style="vertical-align:top;">:</td><td><div></div></td></tr><tr><td style="font-weight:bold;vertical-align:top;">httponly</td><td style="vertical-align:top;">:</td><td><div></div></td></tr><tr><td style="font-weight:bold;vertical-align:top;">max-age</td><td style="vertical-align:top;">:</td><td><div></div></td></tr><tr><td style="font-weight:bold;vertical-align:top;">path</td><td style="vertical-align:top;">:</td><td><div></div></td></tr><tr><td style="font-weight:bold;vertical-align:top;">secure</td><td style="vertical-align:top;">:</td><td><div></div></td></tr><tr><td style="font-weight:bold;vertical-align:top;">version</td><td style="vertical-align:top;">:</td><td><div></div></td></tr></table></div></td></tr><tr><td style="font-weight:bold;vertical-align:top;">session_id_welcome</td><td style="vertical-align:top;">:</td><td><div>127.0.0.1-34acbcd5-c5a4-4882-af2d-dfad6df2b662<table><tr><td style="font-weight:bold;vertical-align:top;">comment</td><td style="vertical-align:top;">:</td><td><div></div></td></tr><tr><td style="font-weight:bold;vertical-align:top;">domain</td><td style="vertical-align:top;">:</td><td><div></div></td></tr><tr><td style="font-weight:bold;vertical-align:top;">expires</td><td style="vertical-align:top;">:</td><td><div></div></td></tr><tr><td style="font-weight:bold;vertical-align:top;">httponly</td><td style="vertical-align:top;">:</td><td><div></div></td></tr><tr><td style="font-weight:bold;vertical-align:top;">max-age</td><td style="vertical-align:top;">:</td><td><div></div></td></tr><tr><td style="font-weight:bold;vertical-align:top;">path</td><td style="vertical-align:top;">:</td><td><div></div></td></tr><tr><td style="font-weight:bold;vertical-align:top;">secure</td><td style="vertical-align:top;">:</td><td><div></div></td></tr><tr><td style="font-weight:bold;vertical-align:top;">version</td><td style="vertical-align:top;">:</td><td><div></div></td></tr></table></div></td></tr><tr><td style="font-weight:bold;vertical-align:top;">sessionid</td><td style="vertical-align:top;">:</td><td><div>txtvz6yyhobygw0ileton9dqzjy2t3ma<table><tr><td style="font-weight:bold;vertical-align:top;">comment</td><td style="vertical-align:top;">:</td><td><div></div></td></tr><tr><td style="font-weight:bold;vertical-align:top;">domain</td><td style="vertical-align:top;">:</td><td><div></div></td></tr><tr><td style="font-weight:bold;vertical-align:top;">expires</td><td style="vertical-align:top;">:</td><td><div></div></td></tr><tr><td style="font-weight:bold;vertical-align:top;">httponly</td><td style="vertical-align:top;">:</td><td><div></div></td></tr><tr><td style="font-weight:bold;vertical-align:top;">max-age</td><td style="vertical-align:top;">:</td><td><div></div></td></tr><tr><td style="font-weight:bold;vertical-align:top;">path</td><td style="vertical-align:top;">:</td><td><div></div></td></tr><tr><td style="font-weight:bold;vertical-align:top;">secure</td><td style="vertical-align:top;">:</td><td><div></div></td></tr><tr><td style="font-weight:bold;vertical-align:top;">version</td><td style="vertical-align:top;">:</td><td><div></div></td></tr></table></div></td></tr></table></div></td></tr><tr><td style="font-weight:bold;vertical-align:top;">env</td><td style="vertical-align:top;">:</td><td><div><table><tr><td style="font-weight:bold;vertical-align:top;">HTTP_ACCEPT</td><td style="vertical-align:top;">:</td><td><div>text/html,application/xhtml+xml,application/xml;q=0.9,*/*;q=0.8</div></td></tr><tr><td style="font-weight:bold;vertical-align:top;">HTTP_ACCEPT_ENCODING</td><td style="vertical-align:top;">:</td><td><div>gzip, deflate</div></td></tr><tr><td style="font-weight:bold;vertical-align:top;">HTTP_ACCEPT_LANGUAGE</td><td style="vertical-align:top;">:</td><td><div>en-US,en;q=0.5</div></td></tr><tr><td style="font-weight:bold;vertical-align:top;">HTTP_CACHE_CONTROL</td><td style="vertical-align:top;">:</td><td><div>max-age=0</div></td></tr><tr><td style="font-weight:bold;vertical-align:top;">HTTP_CONNECTION</td><td style="vertical-align:top;">:</td><td><div>keep-alive</div></td></tr><tr><td style="font-weight:bold;vertical-align:top;">HTTP_COOKIE</td><td style="vertical-align:top;">:</td><td><div>csrftoken=N4366MX2EgVTLy1IdDWZEHUiZZBpU6SkbB3ObGLTLCZMylAmmC4nqvIN1hE4c7fb; sessionid=txtvz6yyhobygw0ileton9dqzjy2t3ma; session_id_welcome=127.0.0.1-34acbcd5-c5a4-4882-af2d-dfad6df2b662; session_id_admin=127.0.0.1-a748e9fe-255f-4c37-bc00-e304d010b743; session_id_sispio=127.0.0.1-a3981b6c-07f1-43ae-81a8-11a3cc9576d1</div></td></tr><tr><td style="font-weight:bold;vertical-align:top;">HTTP_HOST</td><td style="vertical-align:top;">:</td><td><div>127.0.0.1:8000</div></td></tr><tr><td style="font-weight:bold;vertical-align:top;">HTTP_UPGRADE_INSECURE_REQUESTS</td><td style="vertical-align:top;">:</td><td><div>1</div></td></tr><tr><td style="font-weight:bold;vertical-align:top;">HTTP_USER_AGENT</td><td style="vertical-align:top;">:</td><td><div>Mozilla/5.0 (Windows NT 10.0; Win64; x64; rv:56.0) Gecko/20100101 Firefox/56.0</div></td></tr><tr><td style="font-weight:bold;vertical-align:top;">PATH_INFO</td><td style="vertical-align:top;">:</td><td><div>/SisPIO/default/admin</div></td></tr><tr><td style="font-weight:bold;vertical-align:top;">QUERY_STRING</td><td style="vertical-align:top;">:</td><td><div></div></td></tr><tr><td style="font-weight:bold;vertical-align:top;">REMOTE_ADDR</td><td style="vertical-align:top;">:</td><td><div>127.0.0.1</div></td></tr><tr><td style="font-weight:bold;vertical-align:top;">REMOTE_PORT</td><td style="vertical-align:top;">:</td><td><div>50378</div></td></tr><tr><td style="font-weight:bold;vertical-align:top;">REQUEST_METHOD</td><td style="vertical-align:top;">:</td><td><div>GET</div></td></tr><tr><td style="font-weight:bold;vertical-align:top;">SCRIPT_NAME</td><td style="vertical-align:top;">:</td><td><div></div></td></tr><tr><td style="font-weight:bold;vertical-align:top;">SERVER_NAME</td><td style="vertical-align:top;">:</td><td><div>DESKTOP-FLGPCSQ</div></td></tr><tr><td style="font-weight:bold;vertical-align:top;">SERVER_PORT</td><td style="vertical-align:top;">:</td><td><div>8000</div></td></tr><tr><td style="font-weight:bold;vertical-align:top;">SERVER_PROTOCOL</td><td style="vertical-align:top;">:</td><td><div>HTTP/1.1</div></td></tr><tr><td style="font-weight:bold;vertical-align:top;">SERVER_SOFTWARE</td><td style="vertical-align:top;">:</td><td><div>Rocket 1.2.6</div></td></tr><tr><td style="font-weight:bold;vertical-align:top;">app_folders</td><td style="vertical-align:top;">:</td><td><div>set([&#x27;C:\\\\Users\\\\capf9\\\\Desktop\\\\University\\\\web2py_win\\\\web2py\\\\applications\\\\welcome\\\\&#x27;, &#x27;C:\\\\Users\\\\capf9\\\\Desktop\\\\University\\\\web2py_win\\\\web2py\\\\applications\\\\admin\\\\&#x27;, &#x27;C:\\\\Users\\\\capf9\\\\Desktop\\\\University\\\\web2py_win\\\\web2py\\\\applications\\\\SisPIO\\\\&#x27;])</div></td></tr><tr><td style="font-weight:bold;vertical-align:top;">applications_parent</td><td style="vertical-align:top;">:</td><td><div>C:\\Users\\capf9\\Desktop\\University\\web2py_win\\web2py</div></td></tr><tr><td style="font-weight:bold;vertical-align:top;">cmd_args</td><td style="vertical-align:top;">:</td><td><div><table></table></div></td></tr><tr><td style="font-weight:bold;vertical-align:top;">cmd_options</td><td style="vertical-align:top;">:</td><td><div>&lt;Values at 0x39a9d50: {&#x27;verbose&#x27;: False, &#x27;ip&#x27;: &#x27;127.0.0.1&#x27;, &#x27;debuglevel&#x27;: 30, &#x27;with_scheduler&#x27;: False, &#x27;shutdown_timeout&#x27;: 5, &#x27;taskbar&#x27;: False, &#x27;with_coverage&#x27;: False, &#x27;pid_filename&#x27;: &#x27;httpserver.pid&#x27;, &#x27;maxthreads&#x27;: None, &#x27;softcron&#x27;: False, &#x27;server_name&#x27;: &#x27;DESKTOP-FLGPCSQ&#x27;, &#x27;bpython&#x27;: False, &#x27;nogui&#x27;: False, &#x27;port&#x27;: 8000, &#x27;print_errors&#x27;: False, &#x27;extcron&#x27;: False, &#x27;runcron&#x27;: False, &#x27;run_system_tests&#x27;: False, &#x27;test&#x27;: None, &#x27;folder&#x27;: &#x27;C:\\\\Users\\\\capf9\\\\Desktop\\\\University\\\\web2py_win\\\\web2py&#x27;, &#x27;config&#x27;: &#x27;&#x27;, &#x27;minthreads&#x27;: None, &#x27;shell&#x27;: None, &#x27;run&#x27;: &#x27;&#x27;, &#x27;log_filename&#x27;: &#x27;httpserver.log&#x27;, &#x27;profiler_dir&#x27;: None, &#x27;args&#x27;: [&#x27;&#x27;], &#x27;socket_timeout&#x27;: 5, &#x27;ssl_ca_certificate&#x27;: None, &#x27;scheduler&#x27;: None, &#x27;interfaces&#x27;: None, &#x27;ssl_private_key&#x27;: &#x27;&#x27;, &#x27;gae&#x27;: None, &#x27;password&#x27;: &#x27;******&#x27;, &#x27;request_queue_size&#x27;: 5, &#x27;ssl_certificate&#x27;: &#x27;&#x27;, &#x27;cronjob&#x27;: False, &#x27;numthreads&#x27;: None, &#x27;quiet&#x27;: False, &#x27;import_models&#x27;: False, &#x27;timeout&#x27;: 10, &#x27;plain&#x27;: False, &#x27;nobanner&#x27;: False}&gt;</div></td></tr><tr><td style="font-weight:bold;vertical-align:top;">db_sessions</td><td style="vertical-align:top;">:</td><td><div>set([])</div></td></tr><tr><td style="font-weight:bold;vertical-align:top;">debugging</td><td style="vertical-align:top;">:</td><td><div>False</div></td></tr><tr><td style="font-weight:bold;vertical-align:top;">gluon_parent</td><td style="vertical-align:top;">:</td><td><div>C:\\Users\\capf9\\Desktop\\University\\web2py_win\\web2py</div></td></tr><tr><td style="font-weight:bold;vertical-align:top;">http_accept</td><td style="vertical-align:top;">:</td><td><div>text/html,application/xhtml+xml,application/xml;q=0.9,*/*;q=0.8</div></td></tr><tr><td style="font-weight:bold;vertical-align:top;">http_accept_encoding</td><td style="vertical-align:top;">:</td><td><div>gzip, deflate</div></td></tr><tr><td style="font-weight:bold;vertical-align:top;">http_accept_language</td><td style="vertical-align:top;">:</td><td><div>en-US,en;q=0.5</div></td></tr><tr><td style="font-weight:bold;vertical-align:top;">http_cache_control</td><td style="vertical-align:top;">:</td><td><div>max-age=0</div></td></tr><tr><td style="font-weight:bold;vertical-align:top;">http_connection</td><td style="vertical-align:top;">:</td><td><div>keep-alive</div></td></tr><tr><td style="font-weight:bold;vertical-align:top;">http_cookie</td><td style="vertical-align:top;">:</td><td><div>csrftoken=N4366MX2EgVTLy1IdDWZEHUiZZBpU6SkbB3ObGLTLCZMylAmmC4nqvIN1hE4c7fb; sessionid=txtvz6yyhobygw0ileton9dqzjy2t3ma; session_id_welcome=127.0.0.1-34acbcd5-c5a4-4882-af2d-dfad6df2b662; session_id_admin=127.0.0.1-a748e9fe-255f-4c37-bc00-e304d010b743; session_id_sispio=127.0.0.1-a3981b6c-07f1-43ae-81a8-11a3cc9576d1</div></td></tr><tr><td style="font-weight:bold;vertical-align:top;">http_host</td><td style="vertical-align:top;">:</td><td><div>127.0.0.1:8000</div></td></tr><tr><td style="font-weight:bold;vertical-align:top;">http_upgrade_insecure_requests</td><td style="vertical-align:top;">:</td><td><div>1</div></td></tr><tr><td style="font-weight:bold;vertical-align:top;">http_user_agent</td><td style="vertical-align:top;">:</td><td><div>Mozilla/5.0 (Windows NT 10.0; Win64; x64; rv:56.0) Gecko/20100101 Firefox/56.0</div></td></tr><tr><td style="font-weight:bold;vertical-align:top;">is_jython</td><td style="vertical-align:top;">:</td><td><div>False</div></td></tr><tr><td style="font-weight:bold;vertical-align:top;">is_pypy</td><td style="vertical-align:top;">:</td><td><div>False</div></td></tr><tr><td style="font-weight:bold;vertical-align:top;">is_source</td><td style="vertical-align:top;">:</td><td><div>False</div></td></tr><tr><td style="font-weight:bold;vertical-align:top;">local_hosts</td><td style="vertical-align:top;">:</td><td><div><table><tr><td><div>2001:0:9d38:6abd:815:2811:41b0:34a4</div></td></tr><tr><td><div>192.168.1.10</div></td></tr><tr><td><div>::ffff:127.0.0.1</div></td></tr><tr><td><div>::1</div></td></tr><tr><td><div>fe80::815:2811:41b0:34a4%11</div></td></tr><tr><td><div>127.0.0.1</div></td></tr><tr><td><div>DESKTOP-FLGPCSQ</div></td></tr><tr><td><div>fe80::31f0:99b4:d6f4:33e6%9</div></td></tr></table></div></td></tr><tr><td style="font-weight:bold;vertical-align:top;">path_info</td><td style="vertical-align:top;">:</td><td><div>/SisPIO/default/admin</div></td></tr><tr><td style="font-weight:bold;vertical-align:top;">query_string</td><td style="vertical-align:top;">:</td><td><div></div></td></tr><tr><td style="font-weight:bold;vertical-align:top;">remote_addr</td><td style="vertical-align:top;">:</td><td><div>127.0.0.1</div></td></tr><tr><td style="font-weight:bold;vertical-align:top;">remote_port</td><td style="vertical-align:top;">:</td><td><div>50378</div></td></tr><tr><td style="font-weight:bold;vertical-align:top;">request_method</td><td style="vertical-align:top;">:</td><td><div>GET</div></td></tr><tr><td style="font-weight:bold;vertical-align:top;">request_uri</td><td style="vertical-align:top;">:</td><td><div>/SisPIO/default/admin</div></td></tr><tr><td style="font-weight:bold;vertical-align:top;">script_name</td><td style="vertical-align:top;">:</td><td><div></div></td></tr><tr><td style="font-weight:bold;vertical-align:top;">server_name</td><td style="vertical-align:top;">:</td><td><div>DESKTOP-FLGPCSQ</div></td></tr><tr><td style="font-weight:bold;vertical-align:top;">server_port</td><td style="vertical-align:top;">:</td><td><div>8000</div></td></tr><tr><td style="font-weight:bold;vertical-align:top;">server_protocol</td><td style="vertical-align:top;">:</td><td><div>HTTP/1.1</div></td></tr><tr><td style="font-weight:bold;vertical-align:top;">server_software</td><td style="vertical-align:top;">:</td><td><div>Rocket 1.2.6</div></td></tr><tr><td style="font-weight:bold;vertical-align:top;">web2py_path</td><td style="vertical-align:top;">:</td><td><div>C:\\Users\\capf9\\Desktop\\University\\web2py_win\\web2py</div></td></tr><tr><td style="font-weight:bold;vertical-align:top;">web2py_version</td><td style="vertical-align:top;">:</td><td><div>2.14.6-stable+timestamp.2016.05.10.00.21.47</div></td></tr><tr><td style="font-weight:bold;vertical-align:top;">wsgi.errors</td><td style="vertical-align:top;">:</td><td><div>&lt;open file &#x27;&lt;stderr&gt;&#x27;, mode &#x27;w&#x27; at 0x01F8D0D0&gt;</div></td></tr><tr><td style="font-weight:bold;vertical-align:top;">wsgi.file_wrapper</td><td style="vertical-align:top;">:</td><td><div>&lt;class wsgiref.util.FileWrapper at 0x02D6B030&gt;</div></td></tr><tr><td style="font-weight:bold;vertical-align:top;">wsgi.input</td><td style="vertical-align:top;">:</td><td><div>&lt;socket._fileobject object at 0x039A5CB0&gt;</div></td></tr><tr><td style="font-weight:bold;vertical-align:top;">wsgi.multiprocess</td><td style="vertical-align:top;">:</td><td><div>False</div></td></tr><tr><td style="font-weight:bold;vertical-align:top;">wsgi.multithread</td><td style="vertical-align:top;">:</td><td><div>True</div></td></tr><tr><td style="font-weight:bold;vertical-align:top;">wsgi.run_once</td><td style="vertical-align:top;">:</td><td><div>False</div></td></tr><tr><td style="font-weight:bold;vertical-align:top;">wsgi.url_scheme</td><td style="vertical-align:top;">:</td><td><div>http</div></td></tr><tr><td style="font-weight:bold;vertical-align:top;">wsgi.version</td><td style="vertical-align:top;">:</td><td><div><table><tr><td><div>1</div></td></tr><tr><td><div>0</div></td></tr></table></div></td></tr><tr><td style="font-weight:bold;vertical-align:top;">wsgi_errors</td><td style="vertical-align:top;">:</td><td><div>&lt;open file &#x27;&lt;stderr&gt;&#x27;, mode &#x27;w&#x27; at 0x01F8D0D0&gt;</div></td></tr><tr><td style="font-weight:bold;vertical-align:top;">wsgi_file_wrapper</td><td style="vertical-align:top;">:</td><td><div>&lt;class wsgiref.util.FileWrapper at 0x02D6B030&gt;</div></td></tr><tr><td style="font-weight:bold;vertical-align:top;">wsgi_input</td><td style="vertical-align:top;">:</td><td><div>&lt;socket._fileobject object at 0x039A5CB0&gt;</div></td></tr><tr><td style="font-weight:bold;vertical-align:top;">wsgi_multiprocess</td><td style="vertical-align:top;">:</td><td><div>False</div></td></tr><tr><td style="font-weight:bold;vertical-align:top;">wsgi_multithread</td><td style="vertical-align:top;">:</td><td><div>True</div></td></tr><tr><td style="font-weight:bold;vertical-align:top;">wsgi_run_once</td><td style="vertical-align:top;">:</td><td><div>False</div></td></tr><tr><td style="font-weight:bold;vertical-align:top;">wsgi_url_scheme</td><td style="vertical-align:top;">:</td><td><div>http</div></td></tr><tr><td style="font-weight:bold;vertical-align:top;">wsgi_version</td><td style="vertical-align:top;">:</td><td><div><table><tr><td><div>1</div></td></tr><tr><td><div>0</div></td></tr></table></div></td></tr></table></div></td></tr><tr><td style="font-weight:bold;vertical-align:top;">extension</td><td style="vertical-align:top;">:</td><td><div>html</div></td></tr><tr><td style="font-weight:bold;vertical-align:top;">folder</td><td style="vertical-align:top;">:</td><td><div>C:\\Users\\capf9\\Desktop\\University\\web2py_win\\web2py\\applications\\SisPIO\\</div></td></tr><tr><td style="font-weight:bold;vertical-align:top;">function</td><td style="vertical-align:top;">:</td><td><div>admin</div></td></tr><tr><td style="font-weight:bold;vertical-align:top;">global_settings</td><td style="vertical-align:top;">:</td><td><div><table><tr><td style="font-weight:bold;vertical-align:top;">app_folders</td><td style="vertical-align:top;">:</td><td><div>set([&#x27;C:\\\\Users\\\\capf9\\\\Desktop\\\\University\\\\web2py_win\\\\web2py\\\\applications\\\\welcome\\\\&#x27;, &#x27;C:\\\\Users\\\\capf9\\\\Desktop\\\\University\\\\web2py_win\\\\web2py\\\\applications\\\\admin\\\\&#x27;, &#x27;C:\\\\Users\\\\capf9\\\\Desktop\\\\University\\\\web2py_win\\\\web2py\\\\applications\\\\SisPIO\\\\&#x27;])</div></td></tr><tr><td style="font-weight:bold;vertical-align:top;">applications_parent</td><td style="vertical-align:top;">:</td><td><div>C:\\Users\\capf9\\Desktop\\University\\web2py_win\\web2py</div></td></tr><tr><td style="font-weight:bold;vertical-align:top;">cmd_args</td><td style="vertical-align:top;">:</td><td><div><table></table></div></td></tr><tr><td style="font-weight:bold;vertical-align:top;">cmd_options</td><td style="vertical-align:top;">:</td><td><div>&lt;Values at 0x39a9d50: {&#x27;verbose&#x27;: False, &#x27;ip&#x27;: &#x27;127.0.0.1&#x27;, &#x27;debuglevel&#x27;: 30, &#x27;with_scheduler&#x27;: False, &#x27;shutdown_timeout&#x27;: 5, &#x27;taskbar&#x27;: False, &#x27;with_coverage&#x27;: False, &#x27;pid_filename&#x27;: &#x27;httpserver.pid&#x27;, &#x27;maxthreads&#x27;: None, &#x27;softcron&#x27;: False, &#x27;server_name&#x27;: &#x27;DESKTOP-FLGPCSQ&#x27;, &#x27;bpython&#x27;: False, &#x27;nogui&#x27;: False, &#x27;port&#x27;: 8000, &#x27;print_errors&#x27;: False, &#x27;extcron&#x27;: False, &#x27;runcron&#x27;: False, &#x27;run_system_tests&#x27;: False, &#x27;test&#x27;: None, &#x27;folder&#x27;: &#x27;C:\\\\Users\\\\capf9\\\\Desktop\\\\University\\\\web2py_win\\\\web2py&#x27;, &#x27;config&#x27;: &#x27;&#x27;, &#x27;minthreads&#x27;: None, &#x27;shell&#x27;: None, &#x27;run&#x27;: &#x27;&#x27;, &#x27;log_filename&#x27;: &#x27;httpserver.log&#x27;, &#x27;profiler_dir&#x27;: None, &#x27;args&#x27;: [&#x27;&#x27;], &#x27;socket_timeout&#x27;: 5, &#x27;ssl_ca_certificate&#x27;: None, &#x27;scheduler&#x27;: None, &#x27;interfaces&#x27;: None, &#x27;ssl_private_key&#x27;: &#x27;&#x27;, &#x27;gae&#x27;: None, &#x27;password&#x27;: &#x27;******&#x27;, &#x27;request_queue_size&#x27;: 5, &#x27;ssl_certificate&#x27;: &#x27;&#x27;, &#x27;cronjob&#x27;: False, &#x27;numthreads&#x27;: None, &#x27;quiet&#x27;: False, &#x27;import_models&#x27;: False, &#x27;timeout&#x27;: 10, &#x27;plain&#x27;: False, &#x27;nobanner&#x27;: False}&gt;</div></td></tr><tr><td style="font-weight:bold;vertical-align:top;">db_sessions</td><td style="vertical-align:top;">:</td><td><div>set([])</div></td></tr><tr><td style="font-weight:bold;vertical-align:top;">debugging</td><td style="vertical-align:top;">:</td><td><div>False</div></td></tr><tr><td style="font-weight:bold;vertical-align:top;">gluon_parent</td><td style="vertical-align:top;">:</td><td><div>C:\\Users\\capf9\\Desktop\\University\\web2py_win\\web2py</div></td></tr><tr><td style="font-weight:bold;vertical-align:top;">is_jython</td><td style="vertical-align:top;">:</td><td><div>False</div></td></tr><tr><td style="font-weight:bold;vertical-align:top;">is_pypy</td><td style="vertical-align:top;">:</td><td><div>False</div></td></tr><tr><td style="font-weight:bold;vertical-align:top;">is_source</td><td style="vertical-align:top;">:</td><td><div>False</div></td></tr><tr><td style="font-weight:bold;vertical-align:top;">local_hosts</td><td style="vertical-align:top;">:</td><td><div><table><tr><td><div>2001:0:9d38:6abd:815:2811:41b0:34a4</div></td></tr><tr><td><div>192.168.1.10</div></td></tr><tr><td><div>::ffff:127.0.0.1</div></td></tr><tr><td><div>::1</div></td></tr><tr><td><div>fe80::815:2811:41b0:34a4%11</div></td></tr><tr><td><div>127.0.0.1</div></td></tr><tr><td><div>DESKTOP-FLGPCSQ</div></td></tr><tr><td><div>fe80::31f0:99b4:d6f4:33e6%9</div></td></tr></table></div></td></tr><tr><td style="font-weight:bold;vertical-align:top;">web2py_version</td><td style="vertical-align:top;">:</td><td><div>2.14.6-stable+timestamp.2016.05.10.00.21.47</div></td></tr></table></div></td></tr><tr><td style="font-weight:bold;vertical-align:top;">is_https</td><td style="vertical-align:top;">:</td><td><div>False</div></td></tr><tr><td style="font-weight:bold;vertical-align:top;">is_local</td><td style="vertical-align:top;">:</td><td><div>True</div></td></tr><tr><td style="font-weight:bold;vertical-align:top;">is_restful</td><td style="vertical-align:top;">:</td><td><div>False</div></td></tr><tr><td style="font-weight:bold;vertical-align:top;">is_scheduler</td><td style="vertical-align:top;">:</td><td><div>False</div></td></tr><tr><td style="font-weight:bold;vertical-align:top;">is_shell</td><td style="vertical-align:top;">:</td><td><div>False</div></td></tr><tr><td style="font-weight:bold;vertical-align:top;">now</td><td style="vertical-align:top;">:</td><td><div>datetime.datetime(2017, 11, 4, 14, 6, 37, 191000)</div></td></tr><tr><td style="font-weight:bold;vertical-align:top;">raw_args</td><td style="vertical-align:top;">:</td><td><div></div></td></tr><tr><td style="font-weight:bold;vertical-align:top;">raw_extension</td><td style="vertical-align:top;">:</td><td><div>None</div></td></tr><tr><td style="font-weight:bold;vertical-align:top;">url</td><td style="vertical-align:top;">:</td><td><div>/SisPIO/default/admin</div></td></tr><tr><td style="font-weight:bold;vertical-align:top;">utcnow</td><td style="vertical-align:top;">:</td><td><div>datetime.datetime(2017, 11, 4, 18, 6, 37, 191000)</div></td></tr><tr><td style="font-weight:bold;vertical-align:top;">wsgi</td><td style="vertical-align:top;">:</td><td><div>&lt;gluon.main.LazyWSGI object at 0x03D877D0&gt;</div></td></tr></table></div>'
tRp70
sS'frames'
p71
(lp72
(dp73
S'file'
p74
S'C:\\Users\\capf9\\Desktop\\University\\web2py_win\\web2py\\gluon\\restricted.py'
p75
sS'dump'
p76
(dp77
S'code'
p78
S'r"response.write(\'<!DOCTYPE html>\\r\\n\\r\\n \', escap...UERY-->\\r\\n</body>\\r\\n</html>\\r\\n\', escape=False)"'
p79
sS'layer'
p80
S"r'C:\\Users\\capf9\\Desktop\\University\\web2py_win\\web2py\\applications\\SisPIO\\views\\default/admin.html'"
p81
sS'global compile2'
p82
S'<function compile2>'
p83
sS'ccode'
p84
S'undefined'
p85
ssS'lnum'
p86
I226
sS'lines'
p87
(dp88
I224
S'            ccode = code'
p89
sI225
S'        else:'
p90
sI226
S'            ccode = compile2(code, layer)'
p91
sI227
S'        exec ccode in environment'
p92
sI228
S'    except HTTP:'
p93
sI229
S'        raise'
p94
sI230
S'    except RestrictedError:'
p95
sI221
S"    environment['__name__'] = '__restricted__'"
p96
sI222
S'    try:'
p97
sI223
S'        if isinstance(code, types.CodeType):'
p98
ssS'call'
p99
S'(code=r"response.write(\'<!DOCTYPE html>\\r\\n\\r\\n \', escap...UERY-->\\r\\n</body>\\r\\n</html>\\r\\n\', escape=False)", environment={\'A\': <class \'gluon.html.A\'>, \'ANY_OF\': <class \'gluon.validators.ANY_OF\'>, \'ASSIGNJS\': <function ASSIGNJS>, \'AppConfig\': <function AppConfig>, \'Auth\': <class \'gluon.tools.Auth\'>, \'B\': <class \'gluon.html.B\'>, \'BEAUTIFY\': <class \'gluon.html.BEAUTIFY\'>, \'BODY\': <class \'gluon.html.BODY\'>, \'BR\': <class \'gluon.html.BR\'>, \'BUTTON\': <class \'gluon.html.BUTTON\'>, ...}, layer=r\'C:\\Users\\capf9\\Desktop\\University\\web2py_win\\web2py\\applications\\SisPIO\\views\\default/admin.html\')'
p100
sS'func'
p101
S'restricted'
p102
sa(dp103
g74
S'C:\\Users\\capf9\\Desktop\\University\\web2py_win\\web2py\\gluon\\restricted.py'
p104
sg76
(dp105
S'builtincompile'
p106
S'<built-in function compile>'
p107
sS'code'
p108
S'r"response.write(\'<!DOCTYPE html>\\r\\n\\r\\n \', escap...UERY-->\\r\\n</body>\\r\\n</html>\\r\\n\', escape=False)"'
p109
sS'code.rstrip'
p110
S'<built-in method rstrip of str object>'
p111
sS').replace'
p112
g85
sS'layer'
p113
S"r'C:\\Users\\capf9\\Desktop\\University\\web2py_win\\web2py\\applications\\SisPIO\\views\\default/admin.html'"
p114
ssg86
I209
sg87
(dp115
I204
S'def compile2(code, layer):'
p116
sI205
S'    """'
p117
sI206
S"    The ``+'\\\\n'`` is necessary else compile fails when code ends in a comment."
p118
sI207
S'    """'
p119
sI208
S''
sI209
S"    return compile(code.rstrip().replace('\\r\\n', '\\n') + '\\n', layer, 'exec')"
p120
sI210
S''
sI211
S''
sI212
S"def restricted(code, environment=None, layer='Unknown'):"
p121
sI213
S'    """'
p122
ssg99
S'(code=r"response.write(\'<!DOCTYPE html>\\r\\n\\r\\n \', escap...UERY-->\\r\\n</body>\\r\\n</html>\\r\\n\', escape=False)", layer=r\'C:\\Users\\capf9\\Desktop\\University\\web2py_win\\web2py\\applications\\SisPIO\\views\\default/admin.html\')'
p123
sg101
S'compile2'
p124
sasS'pyver'
p125
S'Python 2.7.9: C:\\Users\\capf9\\Desktop\\University\\web2py_win\\web2py\\web2py.exe (prefix: )'
p126
sS'session'
p127
g69
(S'sp\t\x00\x00<div><table><tr><td style="font-weight:bold;vertical-align:top;">auth</td><td style="vertical-align:top;">:</td><td><div><table><tr><td style="font-weight:bold;vertical-align:top;">expiration</td><td style="vertical-align:top;">:</td><td><div>3600</div></td></tr><tr><td style="font-weight:bold;vertical-align:top;">hmac_key</td><td style="vertical-align:top;">:</td><td><div>7d482ca8-a25f-40ac-8a5d-f9a5e540b883</div></td></tr><tr><td style="font-weight:bold;vertical-align:top;">last_visit</td><td style="vertical-align:top;">:</td><td><div>datetime.datetime(2017, 11, 4, 14, 6, 37, 191000)</div></td></tr><tr><td style="font-weight:bold;vertical-align:top;">remember_me</td><td style="vertical-align:top;">:</td><td><div>False</div></td></tr><tr><td style="font-weight:bold;vertical-align:top;">user</td><td style="vertical-align:top;">:</td><td><div><table><tr><td style="font-weight:bold;vertical-align:top;">email</td><td style="vertical-align:top;">:</td><td><div>admin@usb.ve</div></td></tr><tr><td style="font-weight:bold;vertical-align:top;">first_name</td><td style="vertical-align:top;">:</td><td><div>SisPIO</div></td></tr><tr><td style="font-weight:bold;vertical-align:top;">id</td><td style="vertical-align:top;">:</td><td><div>1L</div></td></tr><tr><td style="font-weight:bold;vertical-align:top;">last_name</td><td style="vertical-align:top;">:</td><td><div>Admin</div></td></tr><tr><td style="font-weight:bold;vertical-align:top;">registration_id</td><td style="vertical-align:top;">:</td><td><div></div></td></tr><tr><td style="font-weight:bold;vertical-align:top;">registration_key</td><td style="vertical-align:top;">:</td><td><div></div></td></tr><tr><td style="font-weight:bold;vertical-align:top;">reset_password_key</td><td style="vertical-align:top;">:</td><td><div></div></td></tr><tr><td style="font-weight:bold;vertical-align:top;">username</td><td style="vertical-align:top;">:</td><td><div>admin</div></td></tr></table></div></td></tr><tr><td style="font-weight:bold;vertical-align:top;">user_groups</td><td style="vertical-align:top;">:</td><td><div><table><tr><td style="font-weight:bold;vertical-align:top;">5</td><td style="vertical-align:top;">:</td><td><div>Administrador</div></td></tr></table></div></td></tr></table></div></td></tr><tr><td style="font-weight:bold;vertical-align:top;">flash</td><td style="vertical-align:top;">:</td><td><div>None</div></td></tr></table></div>'
tRp128
sS'etype'
p129
S"<type 'exceptions.SyntaxError'>"
p130
sS'date'
p131
S'Sat Nov 04 14:06:37 2017'
p132
sS'response'
p133
g69
(S's\xe6?\x00\x00<div><table><tr><td style="font-weight:bold;vertical-align:top;">body</td><td style="vertical-align:top;">:</td><td><div>&lt;cStringIO.StringO object at 0x03D873C0&gt;</div></td></tr><tr><td style="font-weight:bold;vertical-align:top;">cookies</td><td style="vertical-align:top;">:</td><td><div><table><tr><td style="font-weight:bold;vertical-align:top;">session_id_sispio</td><td style="vertical-align:top;">:</td><td><div>127.0.0.1-a3981b6c-07f1-43ae-81a8-11a3cc9576d1<table><tr><td style="font-weight:bold;vertical-align:top;">comment</td><td style="vertical-align:top;">:</td><td><div></div></td></tr><tr><td style="font-weight:bold;vertical-align:top;">domain</td><td style="vertical-align:top;">:</td><td><div></div></td></tr><tr><td style="font-weight:bold;vertical-align:top;">expires</td><td style="vertical-align:top;">:</td><td><div></div></td></tr><tr><td style="font-weight:bold;vertical-align:top;">httponly</td><td style="vertical-align:top;">:</td><td><div></div></td></tr><tr><td style="font-weight:bold;vertical-align:top;">max-age</td><td style="vertical-align:top;">:</td><td><div></div></td></tr><tr><td style="font-weight:bold;vertical-align:top;">path</td><td style="vertical-align:top;">:</td><td><div>/</div></td></tr><tr><td style="font-weight:bold;vertical-align:top;">secure</td><td style="vertical-align:top;">:</td><td><div></div></td></tr><tr><td style="font-weight:bold;vertical-align:top;">version</td><td style="vertical-align:top;">:</td><td><div></div></td></tr></table></div></td></tr></table></div></td></tr><tr><td style="font-weight:bold;vertical-align:top;">delimiters</td><td style="vertical-align:top;">:</td><td><div><table><tr><td><div>{{</div></td></tr><tr><td><div>}}</div></td></tr></table></div></td></tr><tr><td style="font-weight:bold;vertical-align:top;">files</td><td style="vertical-align:top;">:</td><td><div><table></table></div></td></tr><tr><td style="font-weight:bold;vertical-align:top;">flash</td><td style="vertical-align:top;">:</td><td><div></div></td></tr><tr><td style="font-weight:bold;vertical-align:top;">form_label_separator</td><td style="vertical-align:top;">:</td><td><div></div></td></tr><tr><td style="font-weight:bold;vertical-align:top;">formstyle</td><td style="vertical-align:top;">:</td><td><div>bootstrap3_inline</div></td></tr><tr><td style="font-weight:bold;vertical-align:top;">generic_patterns</td><td style="vertical-align:top;">:</td><td><div><table><tr><td><div>*</div></td></tr></table></div></td></tr><tr><td style="font-weight:bold;vertical-align:top;">google_analytics_id</td><td style="vertical-align:top;">:</td><td><div>None</div></td></tr><tr><td style="font-weight:bold;vertical-align:top;">headers</td><td style="vertical-align:top;">:</td><td><div><table><tr><td style="font-weight:bold;vertical-align:top;">X-Powered-By</td><td style="vertical-align:top;">:</td><td><div>web2py</div></td></tr></table></div></td></tr><tr><td style="font-weight:bold;vertical-align:top;">logo</td><td style="vertical-align:top;">:</td><td><div><a class="navbar-brand" href="http://www.web2py.com/" id="web2py-logo"><b>web<span>2</span>py</b>&trade;&nbsp;</a></div></td></tr><tr><td style="font-weight:bold;vertical-align:top;">menu</td><td style="vertical-align:top;">:</td><td><div><table><tr><td><div><table><tr><td><div>Inicio</div></td></tr><tr><td><div>False</div></td></tr><tr><td><div>/SisPIO/default/index</div></td></tr><tr><td><div><table></table></div></td></tr></table></div></td></tr><tr><td><div><table><tr><td><div>Mis Sitios</div></td></tr><tr><td><div>False</div></td></tr><tr><td><div>/admin/default/site</div></td></tr></table></div></td></tr><tr><td><div><table><tr><td><div>Esta Aplicaci\xc3\xb3n</div></td></tr><tr><td><div>False</div></td></tr><tr><td><div>#</div></td></tr><tr><td><div><table><tr><td><div><table><tr><td><div>Design</div></td></tr><tr><td><div>False</div></td></tr><tr><td><div>/admin/default/design/SisPIO</div></td></tr></table></div></td></tr><tr><td><div><li class="divider"></li></div></td></tr><tr><td><div><table><tr><td><div>Controlador</div></td></tr><tr><td><div>False</div></td></tr><tr><td><div>/admin/default/edit/SisPIO/controllers/default.py</div></td></tr></table></div></td></tr><tr><td><div><table><tr><td><div>Vista</div></td></tr><tr><td><div>False</div></td></tr><tr><td><div>/admin/default/edit/SisPIO/views/default/admin.html</div></td></tr></table></div></td></tr><tr><td><div><table><tr><td><div>Modelo BDD</div></td></tr><tr><td><div>False</div></td></tr><tr><td><div>/admin/default/edit/SisPIO/models/db.py</div></td></tr></table></div></td></tr><tr><td><div><table><tr><td><div>Modelo "menu"</div></td></tr><tr><td><div>False</div></td></tr><tr><td><div>/admin/default/edit/SisPIO/models/menu.py</div></td></tr></table></div></td></tr><tr><td><div><table><tr><td><div>Config.ini</div></td></tr><tr><td><div>False</div></td></tr><tr><td><div>/admin/default/edit/SisPIO/private/appconfig.ini</div></td></tr></table></div></td></tr><tr><td><div><table><tr><td><div>Dise\xc3\xb1o de p\xc3\xa1gina</div></td></tr><tr><td><div>False</div></td></tr><tr><td><div>/admin/default/edit/SisPIO/views/layout.html</div></td></tr></table></div></td></tr><tr><td><div><table><tr><td><div>Hoja de estilo</div></td></tr><tr><td><div>False</div></td></tr><tr><td><div>/admin/default/edit/SisPIO/static/css/web2py-bootstrap3.css</div></td></tr></table></div></td></tr><tr><td><div><table><tr><td><div>Base de datos</div></td></tr><tr><td><div>False</div></td></tr><tr><td><div>/SisPIO/appadmin/index</div></td></tr></table></div></td></tr><tr><td><div><table><tr><td><div>Errores</div></td></tr><tr><td><div>False</div></td></tr><tr><td><div>/admin/default/errors/SisPIO</div></td></tr></table></div></td></tr><tr><td><div><table><tr><td><div>Acerca de</div></td></tr><tr><td><div>False</div></td></tr><tr><td><div>/admin/default/about/SisPIO</div></td></tr></table></div></td></tr></table></div></td></tr></table></div></td></tr><tr><td><div><table><tr><td><div>web2py.com</div></td></tr><tr><td><div>False</div></td></tr><tr><td><div>#</div></td></tr><tr><td><div><table><tr><td><div><table><tr><td><div>Descargas</div></td></tr><tr><td><div>False</div></td></tr><tr><td><div>http://www.web2py.com/examples/default/download</div></td></tr></table></div></td></tr><tr><td><div><table><tr><td><div>Soporte</div></td></tr><tr><td><div>False</div></td></tr><tr><td><div>http://www.web2py.com/examples/default/support</div></td></tr></table></div></td></tr><tr><td><div><table><tr><td><div>Demostraci\xc3\xb3n</div></td></tr><tr><td><div>False</div></td></tr><tr><td><div>http://web2py.com/demo_admin</div></td></tr></table></div></td></tr><tr><td><div><table><tr><td><div>Ejemplos R\xc3\xa1pidos</div></td></tr><tr><td><div>False</div></td></tr><tr><td><div>http://web2py.com/examples/default/examples</div></td></tr></table></div></td></tr><tr><td><div><table><tr><td><div>FAQ</div></td></tr><tr><td><div>False</div></td></tr><tr><td><div>http://web2py.com/AlterEgo</div></td></tr></table></div></td></tr><tr><td><div><table><tr><td><div>V\xc3\xaddeos</div></td></tr><tr><td><div>False</div></td></tr><tr><td><div>http://www.web2py.com/examples/default/videos/</div></td></tr></table></div></td></tr><tr><td><div><table><tr><td><div>Aplicaciones Libres</div></td></tr><tr><td><div>False</div></td></tr><tr><td><div>http://web2py.com/appliances</div></td></tr></table></div></td></tr><tr><td><div><table><tr><td><div>Plugins</div></td></tr><tr><td><div>False</div></td></tr><tr><td><div>http://web2py.com/plugins</div></td></tr></table></div></td></tr><tr><td><div><table><tr><td><div>Recetas</div></td></tr><tr><td><div>False</div></td></tr><tr><td><div>http://web2pyslices.com/</div></td></tr></table></div></td></tr></table></div></td></tr></table></div></td></tr><tr><td><div><table><tr><td><div>Documentaci\xc3\xb3n</div></td></tr><tr><td><div>False</div></td></tr><tr><td><div>#</div></td></tr><tr><td><div><table><tr><td><div><table><tr><td><div>Online book</div></td></tr><tr><td><div>False</div></td></tr><tr><td><div>http://www.web2py.com/book</div></td></tr></table></div></td></tr><tr><td><div><li class="divider"></li></div></td></tr><tr><td><div><table><tr><td><div>Prefacio</div></td></tr><tr><td><div>False</div></td></tr><tr><td><div>http://www.web2py.com/book/default/chapter/00</div></td></tr></table></div></td></tr><tr><td><div><table><tr><td><div>Introducci\xc3\xb3n</div></td></tr><tr><td><div>False</div></td></tr><tr><td><div>http://www.web2py.com/book/default/chapter/01</div></td></tr></table></div></td></tr><tr><td><div><table><tr><td><div>Python</div></td></tr><tr><td><div>False</div></td></tr><tr><td><div>http://www.web2py.com/book/default/chapter/02</div></td></tr></table></div></td></tr><tr><td><div><table><tr><td><div>Resumen</div></td></tr><tr><td><div>False</div></td></tr><tr><td><div>http://www.web2py.com/book/default/chapter/03</div></td></tr></table></div></td></tr><tr><td><div><table><tr><td><div>El N\xc3\xbacleo</div></td></tr><tr><td><div>False</div></td></tr><tr><td><div>http://www.web2py.com/book/default/chapter/04</div></td></tr></table></div></td></tr><tr><td><div><table><tr><td><div>Las Vistas</div></td></tr><tr><td><div>False</div></td></tr><tr><td><div>http://www.web2py.com/book/default/chapter/05</div></td></tr></table></div></td></tr><tr><td><div><table><tr><td><div>Base de datos</div></td></tr><tr><td><div>False</div></td></tr><tr><td><div>http://www.web2py.com/book/default/chapter/06</div></td></tr></table></div></td></tr><tr><td><div><table><tr><td><div>Formularios y validadores</div></td></tr><tr><td><div>False</div></td></tr><tr><td><div>http://www.web2py.com/book/default/chapter/07</div></td></tr></table></div></td></tr><tr><td><div><table><tr><td><div>Correo electr\xc3\xb3nico y SMS</div></td></tr><tr><td><div>False</div></td></tr><tr><td><div>http://www.web2py.com/book/default/chapter/08</div></td></tr></table></div></td></tr><tr><td><div><table><tr><td><div>Control de Acceso</div></td></tr><tr><td><div>False</div></td></tr><tr><td><div>http://www.web2py.com/book/default/chapter/09</div></td></tr></table></div></td></tr><tr><td><div><table><tr><td><div>Servicios</div></td></tr><tr><td><div>False</div></td></tr><tr><td><div>http://www.web2py.com/book/default/chapter/10</div></td></tr></table></div></td></tr><tr><td><div><table><tr><td><div>Recetas AJAX</div></td></tr><tr><td><div>False</div></td></tr><tr><td><div>http://www.web2py.com/book/default/chapter/11</div></td></tr></table></div></td></tr><tr><td><div><table><tr><td><div>Componentes y Plugins</div></td></tr><tr><td><div>False</div></td></tr><tr><td><div>http://www.web2py.com/book/default/chapter/12</div></td></tr></table></div></td></tr><tr><td><div><table><tr><td><div>Recetas de despliegue</div></td></tr><tr><td><div>False</div></td></tr><tr><td><div>http://www.web2py.com/book/default/chapter/13</div></td></tr></table></div></td></tr><tr><td><div><table><tr><td><div>Otras Recetas</div></td></tr><tr><td><div>False</div></td></tr><tr><td><div>http://www.web2py.com/book/default/chapter/14</div></td></tr></table></div></td></tr><tr><td><div><table><tr><td><div>Helping web2py</div></td></tr><tr><td><div>False</div></td></tr><tr><td><div>http://www.web2py.com/book/default/chapter/15</div></td></tr></table></div></td></tr><tr><td><div><table><tr><td><div>Buy web2py\'s book</div></td></tr><tr><td><div>False</div></td></tr><tr><td><div>http://stores.lulu.com/web2py</div></td></tr></table></div></td></tr></table></div></td></tr></table></div></td></tr><tr><td><div><table><tr><td><div>Comunidad</div></td></tr><tr><td><div>False</div></td></tr><tr><td><div>None</div></td></tr><tr><td><div><table><tr><td><div><table><tr><td><div>Grupos</div></td></tr><tr><td><div>False</div></td></tr><tr><td><div>http://www.web2py.com/examples/default/usergroups</div></td></tr></table></div></td></tr><tr><td><div><table><tr><td><div>Twitter</div></td></tr><tr><td><div>False</div></td></tr><tr><td><div>http://twitter.com/web2py</div></td></tr></table></div></td></tr><tr><td><div><table><tr><td><div>Chat en vivo</div></td></tr><tr><td><div>False</div></td></tr><tr><td><div>http://webchat.freenode.net/?channels=web2py</div></td></tr></table></div></td></tr></table></div></td></tr></table></div></td></tr></table></div></td></tr><tr><td style="font-weight:bold;vertical-align:top;">meta</td><td style="vertical-align:top;">:</td><td><div><table><tr><td style="font-weight:bold;vertical-align:top;">author</td><td style="vertical-align:top;">:</td><td><div>Your Name &lt;you@example.com&gt;</div></td></tr><tr><td style="font-weight:bold;vertical-align:top;">description</td><td style="vertical-align:top;">:</td><td><div>a cool new app</div></td></tr><tr><td style="font-weight:bold;vertical-align:top;">generator</td><td style="vertical-align:top;">:</td><td><div>Web2py Web Framework</div></td></tr><tr><td style="font-weight:bold;vertical-align:top;">keywords</td><td style="vertical-align:top;">:</td><td><div><table><tr><td><div>web2py</div></td></tr><tr><td><div>python</div></td></tr><tr><td><div>framework</div></td></tr></table></div></td></tr></table></div></td></tr><tr><td style="font-weight:bold;vertical-align:top;">models_to_run</td><td style="vertical-align:top;">:</td><td><div><table><tr><td><div>^\\w+\\.py$</div></td></tr><tr><td><div>^default/\\w+\\.py$</div></td></tr><tr><td><div>^default/admin/\\w+\\.py$</div></td></tr></table></div></td></tr><tr><td style="font-weight:bold;vertical-align:top;">postprocessing</td><td style="vertical-align:top;">:</td><td><div><table></table></div></td></tr><tr><td style="font-weight:bold;vertical-align:top;">session_client</td><td style="vertical-align:top;">:</td><td><div>127.0.0.1</div></td></tr><tr><td style="font-weight:bold;vertical-align:top;">session_cookie_compression_level</td><td style="vertical-align:top;">:</td><td><div>None</div></td></tr><tr><td style="font-weight:bold;vertical-align:top;">session_cookie_expires</td><td style="vertical-align:top;">:</td><td><div>None</div></td></tr><tr><td style="font-weight:bold;vertical-align:top;">session_data_name</td><td style="vertical-align:top;">:</td><td><div>session_data_sispio</div></td></tr><tr><td style="font-weight:bold;vertical-align:top;">session_file</td><td style="vertical-align:top;">:</td><td><div>&lt;open file &#x27;C:\\\\Users\\\\capf9\\\\Desktop\\\\University\\\\web2py_win\\\\web2py\\\\applications\\\\SisPIO\\\\sessions\\\\160\\\\1cf\\\\127.0.0.1-a3981b6c-07f1-43ae-81a8-11a3cc9576d1&#x27;, mode &#x27;rb+&#x27; at 0x03E59D88&gt;</div></td></tr><tr><td style="font-weight:bold;vertical-align:top;">session_filename</td><td style="vertical-align:top;">:</td><td><div>C:\\Users\\capf9\\Desktop\\University\\web2py_win\\web2py\\applications\\SisPIO\\sessions\\127.0.0.1-a3981b6c-07f1-43ae-81a8-11a3cc9576d1</div></td></tr><tr><td style="font-weight:bold;vertical-align:top;">session_hash</td><td style="vertical-align:top;">:</td><td><div>800b5d5e23cc82cc40d2fbb52d52c8d4</div></td></tr><tr><td style="font-weight:bold;vertical-align:top;">session_id</td><td style="vertical-align:top;">:</td><td><div>127.0.0.1-a3981b6c-07f1-43ae-81a8-11a3cc9576d1</div></td></tr><tr><td style="font-weight:bold;vertical-align:top;">session_id_name</td><td style="vertical-align:top;">:</td><td><div>session_id_sispio</div></td></tr><tr><td style="font-weight:bold;vertical-align:top;">session_locked</td><td style="vertical-align:top;">:</td><td><div>True</div></td></tr><tr><td style="font-weight:bold;vertical-align:top;">session_masterapp</td><td style="vertical-align:top;">:</td><td><div>SisPIO</div></td></tr><tr><td style="font-weight:bold;vertical-align:top;">session_new</td><td style="vertical-align:top;">:</td><td><div>False</div></td></tr><tr><td style="font-weight:bold;vertical-align:top;">session_storage_type</td><td style="vertical-align:top;">:</td><td><div>file</div></td></tr><tr><td style="font-weight:bold;vertical-align:top;">status</td><td style="vertical-align:top;">:</td><td><div>200</div></td></tr><tr><td style="font-weight:bold;vertical-align:top;">subtitle</td><td style="vertical-align:top;">:</td><td><div></div></td></tr><tr><td style="font-weight:bold;vertical-align:top;">title</td><td style="vertical-align:top;">:</td><td><div>Sispio</div></td></tr><tr><td style="font-weight:bold;vertical-align:top;">view</td><td style="vertical-align:top;">:</td><td><div>default/admin.html</div></td></tr></table></div>'
tRp134
sS'locals'
p135
(dp136
g4
S"r'C:\\Users\\capf9\\Desktop\\University\\web2py_win\\web2py\\applications\\SisPIO\\views\\default/admin.html'"
p137
sg6
S'r"response.write(\'<!DOCTYPE html>\\r\\n\\r\\n \', escap...UERY-->\\r\\n</body>\\r\\n</html>\\r\\n\', escape=False)"'
p138
sssS'traceback'
p139
S'Traceback (most recent call last):\n  File "C:\\Users\\capf9\\Desktop\\University\\web2py_win\\web2py\\gluon\\restricted.py", line 226, in restricted\n    ccode = compile2(code, layer)\n  File "C:\\Users\\capf9\\Desktop\\University\\web2py_win\\web2py\\gluon\\restricted.py", line 209, in compile2\n    return compile(code.rstrip().replace(\'\\r\\n\', \'\\n\') + \'\\n\', layer, \'exec\')\n  File "C:\\Users\\capf9\\Desktop\\University\\web2py_win\\web2py\\applications\\SisPIO\\views\\default/admin.html", line 26\n    URL=(\'default\', \'user\', args=\'logout\')\n                                ^\nSyntaxError: invalid syntax\n'
p140
s.