(dp1
S'output'
p2
S"<class 'psycopg2.IntegrityError'> el valor null para la columna \xc2\xabtipo\xc2\xbb viola la restricci\xc3\xb3n not null\nDETAIL:  La fila que falla contiene (6, Colegio Perez Bonalde, null,  ).\n"
p3
sS'layer'
p4
S'C:\\Users\\Mike\\Desktop\\web2py\\applications\\SisPIOMaria\\controllers/default.py'
p5
sS'code'
p6
S'# -*- coding: utf-8 -*-\n# this file is released under public domain and you can use without limitations\n\n# -------------------------------------------------------------------------\n# This is a sample controller\n# - index is the default action of any application\n# - user is required for authentication and authorization\n# - download is for downloading files uploaded in the db (does streaming)\n# -------------------------------------------------------------------------\nimport os\n\ndef user():\n    """\n    exposes:\n    http://..../[app]/default/user/login\n    http://..../[app]/default/user/logout\n    http://..../[app]/default/user/register\n    http://..../[app]/default/user/profile\n    http://..../[app]/default/user/retrieve_password\n    http://..../[app]/default/user/change_password\n    http://..../[app]/default/user/bulk_register\n    use @auth.requires_login()\n        @auth.requires_membership(\'group name\')\n        @auth.requires_permission(\'read\',\'table name\',record_id)\n    to decorate functions that need access control\n    also notice there is http://..../[app]/appadmin/manage/auth to allow administrator to manage users\n    """\n    if not(request.args):\n        if auth.is_logged_in():\n            redirect(URL(\'redireccionando\'))\n        else:\n            redirect(URL(\'index\'))\n    else:\n        if request.args[0] == \'login\':\n            if auth.is_logged_in():\n                redirect(URL(\'redireccionando\'))\n            else:\n                redirect(URL(\'index\'))\n    return dict(form=auth())\n\n\n@cache.action()\ndef download():\n    """\n    allows downloading of uploaded files\n    http://..../[app]/default/download/[filename]\n    """\n    return response.download(request, db)\n\n@auth.requires_login()\ndef call():\n    """\n    exposes services. for example:\n    http://..../[app]/default/call/jsonrpc\n    decorate with @services.jsonrpc the functions to expose\n    supports xml, json, xmlrpc, jsonrpc, amfrpc, rss, csv\n    """\n    return service()\n\ndef index():\n    if auth.is_logged_in():\n        redirect(URL(\'default\', \'user\', args=\'logout\')) # Si ya hay un usuario conectado, desconectarlo\n    return dict(form=auth.login())\n\ndef redireccionando():\n    if auth.is_logged_in():\n        if \'Administrador\' in auth.user_groups.values():\n            redirect(URL(\'admin\'))\n        elif \'Estudiante\' in auth.user_groups.values():\n            redirect(URL(\'welcome\'))\n        elif \'Profesor\' in auth.user_groups.values():\n            redirect(URL(\'profesor\'))\n        elif \'Representante_liceo\' in auth.user_groups.values():\n            redirect(URL(\'coordinadorLiceo\'))\n        elif \'Representante_sede\' in auth.user_groups.values():\n            redirect(URL(\'coordinadorPio\'))\n        else:\n            redirect(URL(\'default\', \'user\', args=\'logout\'))\n    else:\n        redirect(URL(\'index\'))\n    return dict()\n\n@auth.requires_membership(\'Administrador\')\n@auth.requires_login()\ndef admin():\n\n    ##################\n    # Carga de archivo\n    ##################\n    erroresCarga = [] # Los errores en la carga van aqui\n    cargaExitosa = [] # Los usuarios agregados exitosamente van aqui\n    cohorte = db(db.cohorte.activo==True).select()[0].identificador # Cohorte Actual\n    formularioArchivo = FORM(\n                            INPUT(_name=\'tituloArchivo\', _type=\'text\'),\n                            INPUT(_name=\'archivo\', _type=\'file\')\n                            )\n    if formularioArchivo.accepts(request.vars,formname=\'formularioArchivo\'): # Chequeamos si hay un archivo cargado\n        archivo =request.vars.fileToUpload.filename.split(".")  # Separamos el nombre del archivo de la extension\n        nombreArchivo, extension = archivo[0], archivo[1]\n        if extension == "csv":          # Chequeamos la extension del archivo\n            ######################\n            # Cargando Estudiantes\n            ######################\n            if request.vars.optradio == "estudiante":   # Chequeamos el tipo de usuario a agregar\n                f = request.vars.fileToUpload.file      # Archivo cargado\n                texto = f.read().splitlines()           # Leer el archivo\n                cabecera = texto[0].split(";")          # Extraemos la cabecera\n                liceo = texto[1].split(";")             # Extraemos la linea que contiene el nombre del liceo\n                texto.remove(texto[1])                  # Eliminamos del texto la linea del liceo para no iterar sobre ella\n                texto.remove(texto[0])                  # Eliminamos del texto la cabecera para no iterar sobre ella\n                if ((cabecera[0]=="C.I." and cabecera[1]==\'Nombres\' and\n                cabecera[2]==\'Apellidos\' and cabecera[3]==\'Promedio (00.00)\') and\n                (liceo[0] == "Nombre del Liceo:") and liceo[1] == "" and liceo[2] != ""): # Verificamos que la cabecera y la linea del liceo tenga el formato correcto\n                    liceo = liceo[2]                    # Seleccionamos el nombre del liceo\n                    datos = []                          # Los usuarios a agregar van aqui\n                    for i in texto:\n                        if i != ";;;;":\n                            dato = i.split(";")         # Separamos los datos del usuario\n                            datos.append(dato)          # Agregamos el usuario a la lista de usuarios por agregar\n\n                    for i in datos:\n                        if (not(db(db.usuario.username == i[0]).select()) and\n                           not(db(db.estudiante.ci == i[0]).select())):         # Verificar que no existe un usuario para esa cedula\n                            if 0 <= float(i[3]) <= 20:                          # Verificamos que el indice sea correcto\n                                if db(db.liceo.nombre == liceo).select():       # Verificamos que el liceo este en la base de datos\n                                    id = db.usuario.insert(first_name = i[1],last_name = i[2], email = "", username = i[0],\n                                                  password = db.usuario.password.validate(i[0])[0], registration_key = "",\n                                                  reset_password_key = "", registration_id = "" )       # Agregar el usuario\n                                    db.auth_membership.insert(user_id = id, group_id= 1)                # Agregar permisos de estudiante (group_id=1)\n                                    db.estudiante.insert(ci=i[0], promedio=float(i[3]), direccion="", telefono_habitacion="",\n                                                    telefono_otro="", fecha_nacimiento="", sexo="", estatus="Pre-inscrito",\n                                                    cohorte=cohorte, ci_representante="", nombre_representante="",\n                                                    apellido_representante="", sexo_representante="", correo_representante="",\n                                                    direccion_representante="", nombre_liceo=liceo, telefono_representante_oficina="",\n                                                    telefono_representante_otro="", sufre_enfermedad="", enfermedad="",\n                                                    indicaciones_enfermedad="")     # Agregamos el estudiante Cohorte deberia ser una variable global\n                                    cargaExitosa.append(i)                          # Agregarlo a los estudiantes cargados exitosamente\n                                else:\n                                    erroresCarga.append([i,"Su liceo no esta en la base de datos. Contacte al administrador"])  # Error de Carga\n                            else:\n                                erroresCarga.append([i,"El promedio debe ser un numero entre 0 y 20"])                          # Error de Carga\n                        else:\n                            erroresCarga.append([i,"Ya existe un usuario en el sistema con esta cedula"])                       # Error de Carga\n\n                else: #Error\n                    erroresCarga.append("Formato de los datos del archivo invalido. Consulte el manual")                        # Error de Carga\n            #################################\n            # Cargando Representantes de sede\n            #################################\n            elif request.vars.optradio == "sede":\n                f = request.vars.fileToUpload.file      # Archivo cargado\n                texto = f.read().splitlines()           # Leer el archivo\n                cabecera = texto[0].split(";")          # Extraemos la cabecera\n                texto.remove(texto[0])                  # Eliminamos del texto la cabecera para no iterar sobre ella\n                if (cabecera[0]=="C.I." and cabecera[1]==\'Nombres\' and\n                    cabecera[2]==\'Apellidos\' and cabecera[3]==\'Sede\'): # Verificamos que la cabecera tenga el formato correcto\n                    datos = []                          # Los usuarios a agregar van aqui\n                    for i in texto:\n                        if i != ";;;;":\n                            dato = i.split(";")         # Separamos los datos del usuario\n                            datos.append(dato)          # Agregamos el usuario a la lista de usuarios por agregar\n\n                    for i in datos:\n                        if (not(db(db.usuario.username == i[0]).select()) and\n                            not(db(db.representante_sede.ci == i[0]).select())):    # Verificar que no existe un usuario para esa cedula\n                            #if db(db.sede.nombre == i[3]).select():                # Verificamos que la sede este en la base de datos\n                            id = db.usuario.insert(first_name = i[1],last_name = i[2], email = "", username = i[0],\n                                          password = db.usuario.password.validate(i[0])[0], registration_key = "",\n                                          reset_password_key = "", registration_id = "" ) # Agregar el usuario\n                            db.auth_membership.insert(user_id = id, group_id=4) # Agregar permisos de representante sede (group_id=4)\n                            db.representante_sede.insert(ci=i[0], sede=i[3]) # Agregar el representante de sede\n                            cargaExitosa.append(i) # Agregarlo a los usuarios cargados exitosamente\n                            #else:\n                                #erroresCarga.append([i,"Su sede no esta en la base de datos. Contacte al administrador"])  # Error de Carga\n                        else:\n                            erroresCarga.append([i,"Ya existe un usuario en el sistema con esta cedula"])                   # Error de Carga\n                else: #Error\n                    erroresCarga.append("Formato de los datos del archivo invalido. Consulte el manual")                    # Error de Carga\n            ##################################\n            # Cargando Representante de liceos\n            ##################################\n            elif request.vars.optradio == "liceo":\n                f = request.vars.fileToUpload.file      # Archivo cargado\n                texto = f.read().splitlines()           # Leer el archivo\n                cabecera = texto[0].split(";")          # Extraemos la cabecera\n                texto.remove(texto[0])                  # Eliminamos del texto la cabecera para no iterar sobre ella\n                if (cabecera[0]=="C.I." and cabecera[1]==\'Nombres\' and\n                cabecera[2]==\'Apellidos\' and cabecera[3]==\'Liceo\'): # Verificamos que la cabecera tenga el formato correcto\n                    datos = []                          # Los usuarios a agregar van aqui\n                    for i in texto:\n                        if i != ";;;;":\n                            dato = i.split(";")         # Separamos los datos del usuario\n                            datos.append(dato)          # Agregamos el usuario a la lista de usuarios por agregar\n\n                    for i in datos:\n                        if (not(db(db.usuario.username == i[0]).select()) and\n                            not(db(db.representante_liceo.ci == i[0]).select())):    # Verificar que no existe un usuario para esa cedula\n                            if db(db.liceo.nombre == i[3]).select():                # Verificamos que el liceo este en la base de datos\n                                id = db.usuario.insert(first_name = i[1],last_name = i[2], email = "", username = i[0],\n                                              password = db.usuario.password.validate(i[0])[0], registration_key = "",\n                                              reset_password_key = "", registration_id = "" ) # Agregar el usuario\n                                db.auth_membership.insert(user_id = id, group_id=3) # Agregar permisos de representante liceo (group_id=3)\n                                db.representante_liceo.insert(ci=i[0], nombre_liceo=i[3]) # Agregar el representante de liceo\n                                cargaExitosa.append(i) # Agregarlo a los usuarios cargados exitosamente\n                            else:\n                                erroresCarga.append([i,"Su liceo no esta en la base de datos. Contacte al administrador"])  # Error de Carga\n                        else:\n                            erroresCarga.append([i,"Ya existe un usuario en el sistema con esta cedula"])                   # Error de Carga\n                else: #Error\n                    erroresCarga.append("Formato de los datos del archivo invalido. Consulte el manual")                    # Error de Carga\n            #####################\n            # Cargando Profesores\n            #####################\n            elif request.vars.optradio == "profesor":\n                erroresCarga.append("Opcion no disponible por el momento. Disculpe las molestias")\n            #####################\n            # Cargando Liceos\n            #####################\n            elif request.vars.optradio == "liceos":\n                f = request.vars.fileToUpload.file      # Archivo cargado\n                texto = f.read().splitlines()           # Leer el archivo\n                cabecera = texto[0].split(";")          # Extraemos la cabecera\n                texto.remove(texto[0])                  # Eliminamos del texto la cabecera para no iterar sobre ella\n                if (cabecera[0]=="Nombre del Liceo" and cabecera[2]==\'Tipo del Liceo\' and\n                cabecera[4]==\'Zona\'):                   # Verificamos que la cabecera tenga el formato correcto\n                    datos = []                          # Los liceos a agregar van aqui\n                    for i in texto:\n                        if i != ";;;;":\n                            dato = i.split(";")         # Separamos los datos del usuario\n                            datos.append(dato)          # Agregamos el usuario a la lista de usuarios por agregar\n\n                    for i in datos:\n                        if not(db(db.liceo.nombre == i[0]).select()):               # Verificar que no existe un liceo con ese nombre\n                            db.liceo.insert(nombre = i[0], tipo = i[2], zona = i[4]) # Agregar el liceos\n                            cargaExitosa.append(i) # Agregarlo a los liceos cargados exitosamente\n                        else:\n                            erroresCarga.append([i,"Ya existe un liceo en el sistema con ese nombre"])                      # Error de Carga\n                else: #Error\n                    erroresCarga.append("Formato de los datos del archivo invalido. Consulte el manual")                    # Error de Carga\n        else: #Error\n            erroresCarga.append("El formato del archivo debe ser \\".csv\\". Consulte el manual de usuario")\n    else:\n        pass\n\n    ######################\n    # Fin Carga de Archivo\n    ######################\n\n    ###############\n    # Eliminar\n    ###############\n    eliminando =  None\n    tipoUserEliminando = "none"\n    formularioEliminar = FORM()\n    if formularioEliminar.accepts(request.vars,formname=\'formularioEliminar\'): # Chequeamos si hay una cedula para revisar\n        if db(db.usuario.username==request.vars.ci).select():       # chequeamos si existe un usuario con la cedula introducidad\n            user = request.vars.ci                                  # Guardamos la cedula para usarla mas tarde\n            session.eliminar = user                                 # Guardamos la cedula para usarla en el siguiente formulario\n            eliminando = db(db.usuario.username==user).select()     # Seleccionamos el usuario a eliminar\n            tipoUserEliminando = db(db.auth_membership.user_id==eliminando[0].id).select()[0].group_id # Numero del grupo al que pertenece el user a eliminar\n            tipoUserEliminando = db(db.auth_group.id==tipoUserEliminando).select()[0].role              # Buscamos el nombre correspondiente al grupo\n        else:\n            eliminando = "No hay un usuario con esa cedula"\n\n    # Si se confirma la eliminacion\n    confirmacionEliminar = FORM()\n    if confirmacionEliminar.accepts(request.vars,formname=\'confirmacionEliminar\'): # Chequeamos si hay una cedula para revisar\n        db(db.usuario.username==session.eliminar).delete()          # Eliminamos el usuario\n        db(db.estudiante.ci==session.eliminar).delete()             # Eliminamos el estudiante\n        db(db.representante_sede.ci==session.eliminar).delete()     # Eliminamos el representante de sede\n        db(db.representante_liceo.ci==session.eliminar).delete()    # Eliminamos el representante de liceo\n        session.eliminar = None                                     # Destruimos la variable para evitar bugs\n        eliminando = "Eliminado exitosamente"\n    ################\n    # Fin Eliminar\n    ################\n\n    #############\n    # Modificar\n    ############\n    modificando = None\n    formularioModificar = None\n    cedulaModificar = FORM()\n    if cedulaModificar.accepts(request.vars,formname="cedulaModificar"):    # Verificamos que se haya introducido una cedula\n        if db(db.estudiante.ci==request.vars.ci).select():\n            session.tipo = "Estudiante"\n            session.cedula = request.vars.ci\n        elif db(db.representante_sede.ci==request.vars.ci).select():\n            session.tipo = "Representante de sede"\n            session.cedula = request.vars.ci\n        elif db(db.representante_liceo.ci==request.vars.ci).select():\n            session.tipo = "Representante de liceo"\n            session.cedula = request.vars.ci\n\n    if session.tipo:\n        if session.tipo == "Estudiante":\n            if db(db.estudiante.ci==session.cedula).select():\n                modificando = [session.tipo, db(db.estudiante.ci==session.cedula).select()]\n                formularioModificar = SQLFORM(db.estudiante, modificando[1][0],showid=False)\n        elif session.tipo == "Representante de sede":\n            if db(db.representante_sede.ci==session.cedula).select():\n                modificando = [session.tipo, db(db.representante_sede.ci==session.cedula).select()]\n                formularioModificar = SQLFORM(db.representante_sede, modificando[1][0],showid=False)\n        elif session.tipo == "Representante de liceo":\n            if db(db.representante_liceo.ci==session.cedula).select():\n                modificando = [session.tipo, db(db.representante_liceo.ci==session.cedula).select()]\n                formularioModificar = SQLFORM(db.representante_liceo, modificando[1][0],showid=False)\n\n        if formularioModificar:\n            if formularioModificar.accepts(request.vars,formname=\'formularioModificar\'):            # Procesamos el formulario\n                db(db.usuario.username==session.cedula).update(email=request.vars.correo)           # Se cambia el correo de ser necesario\n                db(db.usuario.username==session.cedula).update(username=request.vars.ci)            # Se cambia el username si se cambia la cedula\n    ##################\n    # Fin de modificar\n    ##################\n#################\n    # Agregar Manualmente Estudiante\n    #################\n    formulario = FORM()\n    mensaje = ["Mensaje del formulario", "Registro de Estudiante exisotoso", "ERROR! El liceo no se encuentra registrado", "ERROR! El promedio del estudiante debe ser un n\xc3\xbamero entre 0 y 20",\n              "ERROR! Ya existe un estudiante con esa cedula", "Coordinador de Liceo registrado exitosamente", "ERROR! El liceo no est\xc3\xa1 registrado", "ERROR! Ya existe un coordiandor con esa cedula",\n              "Representante de Sede registrado existosamente", "ERROR! La sede no ha sido registrada", "ERROR! Ya existe un representante de sede con esa cedula",\n              "ERROR! La funcionalidad del profesor no ha sido implementada. Disculpe las molestias ocasionadas", "ERROR! Formulario de Registro de Usuario es incorrecto",\n              "El liceo ha sido registrado exitosamente", "ERROR! ya existe un liceo con ese nombre", "El formulario introducido se complet\xc3\xb3 de manera incorrecta"]\n              \n    numeroMensaje = 0\n\n    #SI ha pasado correctamente el formulario\n    if formulario.accepts(request.vars,formname="formulario"):\n        if request.vars.cargarManual == "estudiante":\n            if (not(db(db.usuario.username == request.vars.cedula).select()) and not(db(db.estudiante.ci == request.vars.cedula).select())):  \n                if 0 <= int(request.vars.PromedioEntero) + float(request.vars.PromedioDecimal)/100 <= 20:\n                    if db(db.liceo.nombre == request.vars.liceo).select():\n                        #Insertamos el usuario\n                        usuario_nuevo = db.usuario.insert(\n                                            username=request.vars.cedula,\n                                            first_name=request.vars.nombre,\n                                            last_name=request.vars.apellido,\n                                            email=request.vars.email,\n                                            password=db.usuario.password.validate(request.vars.cedula)[0],\n                                            registration_key = "",\n                                            reset_password_key = "",\n                                            registration_id = ""\n                            )\n                        db.auth_membership.insert(user_id = usuario_nuevo, group_id= 1) # Agregar permisos de estudiante\n\n                        db.estudiante.insert(\n                                            ci=request.vars.cedula, \n                                            promedio=int(request.vars.PromedioEntero) + float(request.vars.PromedioDecimal)/100, \n                                            direccion="", \n                                            telefono_habitacion="",\n                                            telefono_otro="", \n                                            fecha_nacimiento="", \n                                            sexo="", \n                                            estatus="Pre-inscrito",\n                                            cohorte="2017/2018", \n                                            ci_representante="", \n                                            nombre_representante="",\n                                            apellido_representante="", \n                                            sexo_representante="", \n                                            correo_representante="",\n                                            direccion_representante="", \n                                            nombre_liceo=request.vars.liceo, \n                                            telefono_representante_oficina="",\n                                            telefono_representante_otro="", \n                                            sufre_enfermedad="", \n                                            enfermedad="",\n                                            indicaciones_enfermedad="")\n                        numeroMensaje = 1\n                    else:\n                        numeroMensaje = 2\n                else:\n                    numeroMensaje = 3\n            else:\n                numeroMensaje = 4\n           \n        #######################\n        # Agregar coordinador de liceo manualmente\n        #######################\n        \n        elif request.vars.cargarManual == "coordinadorLiceo":\n            if (not(db(db.usuario.username == request.vars.cedula).select()) and not(db(db.representante_liceo.ci == request.vars.cedula).select())):\n                if db(db.liceo.nombre == request.vars.liceo).select():                # Verificamos que el liceo este en la base de datos\n                    id = db.usuario.insert(first_name = request.vars.nombre ,\n                                           last_name = request.vars.apellido, \n                                           email = "", \n                                           username = request.vars.cedula,\n                                           password = db.usuario.password.validate(request.vars.cedula)[0],\n                                           registration_key = "",\n                                           reset_password_key = "",\n                                           registration_id = "" ) # Agregar el usuario\n                    \n                    db.auth_membership.insert(user_id = id, group_id=3) # Agregar permisos de representante liceo (group_id=3)\n                    \n                    db.representante_liceo.insert(ci=request.vars.cedula, \n                                                  nombre_liceo=request.vars.liceo) # Agregar el representante de liceo\n                    numeroMensaje = 5\n                else:\n                    numeroMensaje = 6\n            else:\n                numeroMensaje = 7                 \n                            \n        #######################\n        # Agregar coordinador pio manualmente\n        #######################\n                            \n        elif request.vars.cargarManual == "coordinadorSede":\n            if (not(db(db.usuario.username == request.vars.cedula).select()) and not(db(db.representante_sede.ci == request.vars.cedula).select())):\n                if request.vars.sede=="Sartenejas" or request.vars.sede=="Litoral" or request.vars.sede=="Higuerote" or request.vars.sede=="Guarenas":\n                    representante_nuevo = db.usuario.insert(first_name = request.vars.nombre,\n                                                            last_name = request.vars.apellido,\n                                                            email = "",\n                                                            username = request.vars.cedula,\n                                                            password = db.usuario.password.validate(request.vars.cedula)[0],\n                                                            registration_key = "",\n                                                            reset_password_key = "",\n                                                            registration_id = "" ) # Agregar el usuario\n                            \n                    db.auth_membership.insert(user_id = representante_nuevo, group_id=4) # Agregar permisos de representante sede (group_id=4)\n                            \n                    db.representante_sede.insert(ci=request.vars.cedula,\n                                                 sede=request.vars.sede) # Agregar el representante de sede\n                    numeroMensaje = 8\n                else:\n                    numeroMensaje = 9\n            else:\n                numeroMensaje = 10 \n\n                    \n        #######################\n        # Agregar profesor manualmente\n        #######################\n        \n        elif request.vars.cargarManual == "profesor":\n            numeroMensaje = 11\n            \n        elif request.vars.cargarManual == "admin":\n            if (not(db(db.usuario.username == request.vars.cedula).select())):\n                    admin_nuevo = db.usuario.insert(first_name = request.vars.nombre,\n                                                    last_name = request.vars.apellido,\n                                                    email = request.vars.email,\n                                                    username = request.vars.cedula,\n                                                    password = db.usuario.password.validate(request.vars.cedula)[0],\n                                                    registration_key = "",\n                                                    reset_password_key = "",\n                                                    registration_id = "" ) # Agregar el usuario\n                            \n                    db.auth_membership.insert(user_id = admin_nuevo, group_id= 5) # Agregar permisos de estudiant            \n            else:\n                pass\n                \n\n    else:\n        numeroMensaje = 12\n        \n\n                \n        #######################\n        # Agregar liceo manualmente\n        #######################\n        \n    formularioAgregarLiceo = FORM()\n\n    if formularioAgregarLiceo.accepts(request.vars,formname="formularioAgregarLiceo"):\n        if not(db(db.liceo.nombre == request.vars.liceo).select()):               # Verificar que no existe un liceo con ese nombre\n            db.liceo.insert(nombre = request.vars.Nombre,\n                            tipo = request.vars.tipo,\n                            zona = request.vars.zona) # Agregar el liceos\n            numeroMensaje = 13\n        else:\n            numeroMensaje = 14                     \n    else:\n        numeroMensaje = 15\n\n    ########################\n    ###Consula de datos\n    ########################\n    T.force(\'es\')\n    username = auth.user.username\n    usuario = db(db.usuario.username==username).select().first()\n\n    formAdministrador = SQLFORM.factory(\n        Field(\'first_name\' +  \'last_name\',\n            type=\'string\',\n            default=usuario.first_name + " " + usuario.last_name,\n            requires=db.usuario.first_name.requires and db.usuario.last_name.requires,\n            label=\'nombre\'\n            ),\n        Field(\'username\',\n            type=\'string\',\n            notnull = True,\n            default=usuario.username,\n            requires=db.usuario.username.requires,\n            label=\'ci\'\n            ),\n        Field(\'email\',\n            type=\'string\',\n            default=usuario.email,\n            requires=db.usuario.email.requires,\n            label=\'email\'),\n        readonly = True\n        )\n\n    if formAdministrador.process(session=None, formname=\'perfil del administrador\', keepvalues=True).accepted:\n        response.flash = \'El formulario fue aceptado exitosamente.\'\n\n    elif formAdministrador.errors:\n        #error = True\n        response.flash = \'Hay un error en un campo.\'\n    ############################\n    ###fin de Consula de datos\n    ############################\n\n    #######################\n    # Para los desplegables\n    #######################\n\n    liceos = db(db.liceo.id>0).select()\n\n    sedes = ["Sartenejas","Higuerote","Litoral","Guarenas"]\n    profesores = db(db.profesor.id>0).select()\n    cohortes = db(db.cohorte.id>0).select()\n\n    ##########################\n    # Fin de los desplegables\n    ##########################\n\n    #############\n    # Consulta\n    #############\n    consulta = None\n    formularioConsulta = FORM()\n    consultarTodo = FORM()\n\n    if consultarTodo.accepts(request.vars,formname="consultarTodo"):\n        consulta = db(db.usuario.id>0).select()\n\n    if formularioConsulta.accepts(request.vars,formname="formularioConsulta"):\n        pass\n\n    #############\n    # Fin Consulta\n    #############\n    return dict(formAdministrador=formAdministrador, erroresCarga=erroresCarga,\n                cargaExitosa=cargaExitosa, eliminando=eliminando,\n                tipoUserEliminando=tipoUserEliminando, modificando=modificando,\n                formularioModificar = formularioModificar, liceos=liceos,\n                sedes=sedes, profesores=profesores, cohortes=cohortes,\n                consulta=consulta, formulario=formulario, formularioAgregarLiceo=formularioAgregarLiceo,\n                mensaje=mensaje, numeroMensaje=numeroMensaje)\n\n\n@auth.requires_membership(\'Profesor\')\n@auth.requires_login()\ndef profesor():\n    return dict()\n\n@auth.requires_membership(\'Representante_liceo\')\n@auth.requires_login()\ndef coordinadorLiceo():\n\n    ##################\n    # Carga de archivo\n    ##################\n    erroresCarga = [] # Los errores en la carga van aqui\n    cargaExitosa = [] # Los usuarios agregados exitosamente van aqui\n    cohorte = db(db.cohorte.activo==True).select()[0].identificador # Cohorte Actual\n    liceo = db(db.representante_liceo.ci == auth.user.username).select()[0].nombre_liceo # Liceo al que pertenece el representante logiado\n\n    formularioArchivo = FORM(\n                            INPUT(_name=\'tituloArchivo\', _type=\'text\'),\n                            INPUT(_name=\'archivo\', _type=\'file\')\n                            )\n    if formularioArchivo.accepts(request.vars,formname=\'formularioArchivo\'): # Chequeamos si hay un archivo cargado\n        archivo =request.vars.fileToUpload.filename.split(".")  # Separamos el nombre del archivo de la extension\n        nombreArchivo, extension = archivo[0], archivo[1]\n        if extension == "csv":          # Chequeamos la extension del archivo\n            ######################\n            # Cargando Estudiantes\n            ######################\n            f = request.vars.fileToUpload.file      # Archivo cargado\n            texto = f.read().splitlines()           # Leer el archivo\n            cabecera = texto[0].split(";")          # Extraemos la cabecera\n            chequeoFormato = texto[1].split(";")    # Extraemos la segunda linea del archivo\n            texto.remove(texto[1])                  # Eliminamos la segunda linea del archivo para no iterar sobre ella\n            texto.remove(texto[0])                  # Eliminamos del texto la cabecera para no iterar sobre ella\n            if (cabecera[0]=="C.I." and cabecera[1]==\'Nombres\' and\n                cabecera[2]==\'Apellidos\' and cabecera[3]==\'Promedio (00.00)\' and\n                chequeoFormato[0]=="A continuacion coloque sus estudiantes con el formato indicado"): # Verificamos que la cabecera tenga el formato correcto\n                datos = []                          # Los usuarios a agregar van aqui\n                for i in texto:\n                    if i != ";;;;":\n                        dato = i.split(";")         # Separamos los datos del usuario\n                        datos.append(dato)          # Agregamos el usuario a la lista de usuarios por agregar\n\n                for i in datos:\n                    if (not(db(db.usuario.username == i[0]).select()) and\n                       not(db(db.estudiante.ci == i[0]).select())):         # Verificar que no existe un usuario para esa cedula\n                        if 0 <= float(i[3]) <= 20:                          # Verificamos que el indice sea correcto\n                            if db(db.liceo.nombre == liceo).select():       # Verificamos que el liceo este en la base de datos\n                                id = db.usuario.insert(first_name = i[1],last_name = i[2], email = "", username = i[0],\n                                              password = db.usuario.password.validate(i[0])[0], registration_key = "",\n                                              reset_password_key = "", registration_id = "" )       # Agregar el usuario\n                                db.auth_membership.insert(user_id = id, group_id= 1)                # Agregar permisos de estudiante (group_id=1)\n                                db.estudiante.insert(ci=i[0], promedio=float(i[3]), direccion="", telefono_habitacion="",\n                                                telefono_otro="", fecha_nacimiento="", sexo="", estatus="Pre-inscrito",\n                                                cohorte=cohorte, ci_representante="", nombre_representante="",\n                                                apellido_representante="", sexo_representante="", correo_representante="",\n                                                direccion_representante="", nombre_liceo=liceo, telefono_representante_oficina="",\n                                                telefono_representante_otro="", sufre_enfermedad="", enfermedad="",\n                                                indicaciones_enfermedad="")     # Agregamos el estudiante Cohorte deberia ser una variable global\n                                cargaExitosa.append(i)                          # Agregarlo a los estudiantes cargados exitosamente\n                            else:\n                                erroresCarga.append([i,"Su liceo no esta en la base de datos. Contacte al administrador"])  # Error de Carga\n                        else:\n                            erroresCarga.append([i,"El promedio debe ser un numero entre 0 y 20"])                          # Error de Carga\n                    else:\n                        erroresCarga.append([i,"Ya existe un usuario en el sistema con esta cedula"])                       # Error de Carga\n\n            else: #Error\n                erroresCarga.append("Formato de los datos del archivo invalido. Consulte el manual")                        # Error de Carga\n\n        else: #Error\n            erroresCarga.append("El formato del archivo debe ser \\".csv\\". Consulte el manual de usuario")\n    else:\n        pass\n\n    ######################\n    # Fin Carga de Archivo\n    ######################\n    ########################\n    ###Consula de datos\n    ########################\n    T.force(\'es\')\n    username = auth.user.username\n    representante_liceo=db(db.representante_liceo.ci==username).select().first()\n    usuario = db(db.usuario.username==username).select().first()\n    #tipo=""\n    #error = False\n\n    formDatosBasicos = SQLFORM.factory(\n        Field(\'first_name\' +  \'last_name\',\n            type=\'string\',\n            default=usuario.first_name + " " + usuario.last_name,\n            requires=db.usuario.first_name.requires and db.usuario.last_name.requires,\n            label=\'nombre\'\n            ),\n        Field(\'username\',\n            type=\'string\',\n            notnull = True,\n            default=usuario.username,\n            requires=db.usuario.username.requires,\n            label=\'ci\'\n            ),\n        Field(\'email\',\n            type=\'string\',\n            default=usuario.email,\n            requires=db.usuario.email.requires,\n            label=\'email\'),\n        readonly = True\n        )\n\n    if formDatosBasicos.process(session=None, formname=\'perfil basico del Representante liceo de sede\', keepvalues=True).accepted:\n        response.flash = \'El formulario fue aceptado exitosamente.\'\n\n    elif formDatosBasicos.errors:\n        #error = True\n        response.flash = \'Hay un error en un campo.\'\n\n    formCoordinadorLiceo = SQLFORM.factory(\n        Field(\'ci\',\n            type=\'string\',\n            notnull=True,\n            default=representante_liceo.ci,\n            requires=db.representante_liceo.ci.requires,\n            label=\'ci\'\n            ),\n        Field(\'first_name\' +  \'last_name\',\n            type=\'string\',\n            default=usuario.first_name + " " + usuario.last_name,\n            requires=db.usuario.first_name.requires and db.usuario.last_name.requires,\n            label=\'nombre\'\n            ),\n        Field(\'nombre_liceo\',\n            type=\'string\',\n            default=representante_liceo.nombre_liceo,\n            requires=db.representante_liceo.nombre_liceo.requires,\n            label=\'nombre_liceo\'\n            ),\n        Field(\'email\',\n            type=\'date\',\n            default=usuario.email,\n            requires=db.usuario.email.requires,\n            label=\'email\'),\n        readonly = True\n        )\n\n    if formCoordinadorLiceo.process(session=None, formname=\'perfil del Representante Liceo de sede\', keepvalues=True).accepted:\n        response.flash = \'El formulario fue aceptado exitosamente.\'\n\n    elif formCoordinadorLiceo.errors:\n        #error = True\n        response.flash = \'Hay un error en un campo.\'\n    ############################\n    ###fin de Consula de datos\n    ############################\n\n    return dict(formCoordinadorLiceo=formCoordinadorLiceo, formDatosBasicos=formDatosBasicos, erroresCarga=erroresCarga, cargaExitosa=cargaExitosa)\n\n@auth.requires_membership(\'Representante_sede\')\n@auth.requires_login()\ndef coordinadorPio():\n\n    ########################\n    ###Consula de datos\n    ########################\n    T.force(\'es\')\n    username = auth.user.username\n    representante_sede=db(db.representante_sede.ci==username).select().first()\n    usuario = db(db.usuario.username==username).select().first()\n    #tipo=""\n    #error = False\n\n    formDatosBasicos = SQLFORM.factory(\n        Field(\'first_name\' +  \'last_name\',\n            type=\'string\',\n            default=usuario.first_name + " " + usuario.last_name,\n            requires=db.usuario.first_name.requires and db.usuario.last_name.requires,\n            label=\'nombre\'\n            ),\n        Field(\'username\',\n            type=\'string\',\n            notnull = True,\n            default=usuario.username,\n            requires=db.usuario.username.requires,\n            label=\'ci\'\n            ),\n        Field(\'email\',\n            type=\'string\',\n            default=usuario.email,\n            requires=db.usuario.email.requires,\n            label=\'email\'),\n        readonly = True\n        )\n\n    if formDatosBasicos.process(session=None, formname=\'perfil basico del Representante PIO de sede\', keepvalues=True).accepted:\n        response.flash = \'El formulario fue aceptado exitosamente.\'\n\n    elif formDatosBasicos.errors:\n        #error = True\n        response.flash = \'Hay un error en un campo.\'\n\n    formCoordinadorPio = SQLFORM.factory(\n        Field(\'ci\',\n            type=\'string\',\n            notnull=True,\n            default=representante_sede.ci,\n            requires=db.representante_sede.ci.requires,\n            label=\'ci\'\n            ),\n        Field(\'first_name\' +  \'last_name\',\n            type=\'string\',\n            default=usuario.first_name + " " + usuario.last_name,\n            requires=db.usuario.first_name.requires and db.usuario.last_name.requires,\n            label=\'nombre\'\n            ),\n        Field(\'sede\',\n            type=\'string\',\n            default=representante_sede.sede,\n            requires=db.representante_sede.sede.requires,\n            label=\'sede\'\n            ),\n        Field(\'email\',\n            type=\'date\',\n            default=usuario.email,\n            requires=db.usuario.email.requires,\n            label=\'email\'),\n        readonly = True\n        )\n\n    if formCoordinadorPio.process(session=None, formname=\'perfil del Representante PIO de sede\', keepvalues=True).accepted:\n        response.flash = \'El formulario fue aceptado exitosamente.\'\n\n    elif formCoordinadorPio.errors:\n        #error = True\n        response.flash = \'Hay un error en un campo.\'\n    ############################\n    ###fin de Consula de datos\n    ############################\n\n    return dict(formDatosBasicos=formDatosBasicos, formCoordinadorPio=formCoordinadorPio)\n\n@auth.requires_membership(\'Estudiante\')\n@auth.requires_login()\ndef welcome():\n\n    ########################\n    ###Consula de datos\n    ########################\n    T.force(\'es\')\n    username = auth.user.username\n    estudiante=db(db.estudiante.ci==username).select().first()\n    usuario = db(db.usuario.username==username).select().first()\n    #tipo=""\n    #error = False\n\n    formDatosBasicos = SQLFORM.factory(\n        Field(\'first_name\' +  \'last_name\',\n            type=\'string\',\n            default=usuario.first_name + " " + usuario.last_name,\n            requires=db.usuario.first_name.requires and db.usuario.last_name.requires,\n            label=\'nombre\'\n            ),\n        Field(\'username\',\n            type=\'string\',\n            notnull = True,\n            default=usuario.username,\n            requires=db.usuario.username.requires,\n            label=\'ci\'\n            ),\n        Field(\'email\',\n            type=\'string\',\n            default=usuario.email,\n            requires=db.usuario.email.requires,\n            label=\'email\'),\n        readonly = True\n        )\n\n    if formDatosBasicos.process(session=None, formname=\'perfil basico del Estudiante\', keepvalues=True).accepted:\n        response.flash = \'El formulario fue aceptado exitosamente.\'\n\n    elif formDatosBasicos.errors:\n        #error = True\n        response.flash = \'Hay un error en un campo.\'\n\n    formEstudiante = SQLFORM.factory(\n        Field(\'ci\',\n            type=\'string\',\n            notnull=True,\n            default=estudiante.ci,\n            requires=db.estudiante.ci.requires,\n            label=\'ci\'\n            ),\n        Field(\'first_name\',\n            type=\'string\',\n            default=usuario.first_name,\n            requires=db.usuario.first_name.requires and db.usuario.last_name.requires,\n            label=\'nombre\'\n            ),\n        Field(\'last_name\',\n            type=\'string\',\n            default=usuario.last_name,\n            requires=db.usuario.first_name.requires and db.usuario.last_name.requires,\n            label=\'apellido\'\n            ),\n\n        Field(\'sexo\',\n            type=\'string\',\n            default=estudiante.sexo,\n            requires=db.estudiante.sexo.requires,\n            label=\'sexo\'\n            ),\n        Field(\'fecha_nacimiento\',\n            type=\'date\',\n            default=estudiante.fecha_nacimiento,\n            requires=db.estudiante.fecha_nacimiento.requires,\n            label=\'fecha_de_nacimiento\'\n            ),\n        Field(\'promedio\',\n            type=\'string\',\n            default= estudiante.promedio,\n            requires=db.estudiante.promedio.requires,\n            label=\'promedio\'\n            ),\n        Field(\'nombre_liceo\',\n            type=\'string\',\n            default="            "+estudiante.nombre_liceo,\n            requires=db.estudiante.nombre_liceo.requires,\n            label=\'nombre_liceo\'\n            ),\n        Field(\'email\',\n            type=\'string\',\n            default=usuario.email,\n            requires=db.usuario.email.requires,\n            label=\'email\',\n            ),\n        Field(\'telefono_habitacion\',\n            type=\'integer\',\n            default=estudiante.telefono_habitacion,\n            requires=db.estudiante.telefono_habitacion.requires,\n            label=\'telefono_habitacion\',\n            ),\n        Field(\'direccion\',\n            type=\'string\',\n            default= estudiante.direccion,\n            requires=db.estudiante.direccion.requires,\n            label=\'direccion\'),\n        readonly = True\n        )\n\n    if formEstudiante.process(session=None, formname=\'perfil del Estudiante\', keepvalues=True).accepted:\n        response.flash = \'El formulario fue aceptado exitosamente.\'\n\n    elif formEstudiante.errors:\n        #error = True\n        response.flash = \'Hay un error en un campo.\'\n\n    ############################\n    ###fin de Consula de datos\n    ############################\n\n    return dict(formDatosBasicos = formDatosBasicos, formEstudiante = formEstudiante)\n\nresponse._vars=response._caller(admin)\n'
p7
sS'snapshot'
p8
(dp9
S'exception'
p10
(dp11
S'__module__'
p12
S"'psycopg2'"
p13
sS'__getslice__'
p14
S"<method-wrapper '__getslice__' of IntegrityError object>"
p15
sS'__str__'
p16
S"<method-wrapper '__str__' of IntegrityError object>"
p17
sS'__reduce__'
p18
S'<built-in method __reduce__ of IntegrityError object>'
p19
sS'__dict__'
p20
S'{}'
p21
sS'__sizeof__'
p22
S'<built-in method __sizeof__ of IntegrityError object>'
p23
sS'__weakref__'
p24
S'None'
p25
sS'__init__'
p26
S"<method-wrapper '__init__' of IntegrityError object>"
p27
sS'__setattr__'
p28
S"<method-wrapper '__setattr__' of IntegrityError object>"
p29
sS'__reduce_ex__'
p30
S'<built-in method __reduce_ex__ of IntegrityError object>'
p31
sS'__new__'
p32
S'<built-in method __new__ of type object>'
p33
sS'diag'
p34
S'<psycopg2._psycopg.Diagnostics object>'
p35
sS'__format__'
p36
S'<built-in method __format__ of IntegrityError object>'
p37
sS'__class__'
p38
S"<class 'psycopg2.IntegrityError'>"
p39
sS'pgerror'
p40
S"'ERROR:  el valor null para la columna \\xc2\\xabtipo\\xc2\\xbb v...la contiene (6, Colegio Perez Bonalde, null,  ).\\n'"
p41
sS'__doc__'
p42
S"'Error related to database integrity.'"
p43
sS'__getitem__'
p44
S"<method-wrapper '__getitem__' of IntegrityError object>"
p45
sS'__setstate__'
p46
S'<built-in method __setstate__ of IntegrityError object>'
p47
sS'__getattribute__'
p48
S"<method-wrapper '__getattribute__' of IntegrityError object>"
p49
sS'args'
p50
S"('el valor null para la columna \\xc2\\xabtipo\\xc2\\xbb viola la ...la contiene (6, Colegio Perez Bonalde, null,  ).\\n',)"
p51
sS'__subclasshook__'
p52
S'<built-in method __subclasshook__ of type object>'
p53
sS'pgcode'
p54
S"'23502'"
p55
sS'__unicode__'
p56
S'<built-in method __unicode__ of IntegrityError object>'
p57
sS'cursor'
p58
S'<cursor object at 0x08935A30; closed: 0>'
p59
sS'__delattr__'
p60
S"<method-wrapper '__delattr__' of IntegrityError object>"
p61
sS'__repr__'
p62
S"<method-wrapper '__repr__' of IntegrityError object>"
p63
sS'__hash__'
p64
S"<method-wrapper '__hash__' of IntegrityError object>"
p65
ssS'evalue'
p66
S'el valor null para la columna \xc2\xabtipo\xc2\xbb viola la restricci\xc3\xb3n not null\nDETAIL:  La fila que falla contiene (6, Colegio Perez Bonalde, null,  ).\n'
p67
sS'request'
p68
cgluon.html
XML_unpickle
p69
(S's\xebd\x00\x00<div><table><tr><td style="font-weight:bold;vertical-align:top;">ajax</td><td style="vertical-align:top;">:</td><td><div>False</div></td></tr><tr><td style="font-weight:bold;vertical-align:top;">application</td><td style="vertical-align:top;">:</td><td><div>SisPIOMaria</div></td></tr><tr><td style="font-weight:bold;vertical-align:top;">args</td><td style="vertical-align:top;">:</td><td><div><table></table></div></td></tr><tr><td style="font-weight:bold;vertical-align:top;">cid</td><td style="vertical-align:top;">:</td><td><div>None</div></td></tr><tr><td style="font-weight:bold;vertical-align:top;">client</td><td style="vertical-align:top;">:</td><td><div>127.0.0.1</div></td></tr><tr><td style="font-weight:bold;vertical-align:top;">controller</td><td style="vertical-align:top;">:</td><td><div>default</div></td></tr><tr><td style="font-weight:bold;vertical-align:top;">cookies</td><td style="vertical-align:top;">:</td><td><div><table><tr><td style="font-weight:bold;vertical-align:top;">session_id_admin</td><td style="vertical-align:top;">:</td><td><div>127.0.0.1-403a9a58-7155-47e2-9692-e46450a9271e<table><tr><td style="font-weight:bold;vertical-align:top;">comment</td><td style="vertical-align:top;">:</td><td><div></div></td></tr><tr><td style="font-weight:bold;vertical-align:top;">domain</td><td style="vertical-align:top;">:</td><td><div></div></td></tr><tr><td style="font-weight:bold;vertical-align:top;">expires</td><td style="vertical-align:top;">:</td><td><div></div></td></tr><tr><td style="font-weight:bold;vertical-align:top;">httponly</td><td style="vertical-align:top;">:</td><td><div></div></td></tr><tr><td style="font-weight:bold;vertical-align:top;">max-age</td><td style="vertical-align:top;">:</td><td><div></div></td></tr><tr><td style="font-weight:bold;vertical-align:top;">path</td><td style="vertical-align:top;">:</td><td><div></div></td></tr><tr><td style="font-weight:bold;vertical-align:top;">secure</td><td style="vertical-align:top;">:</td><td><div></div></td></tr><tr><td style="font-weight:bold;vertical-align:top;">version</td><td style="vertical-align:top;">:</td><td><div></div></td></tr></table></div></td></tr><tr><td style="font-weight:bold;vertical-align:top;">session_id_sispio</td><td style="vertical-align:top;">:</td><td><div>127.0.0.1-c875f9b4-eab5-478f-9b0b-9697f358a251<table><tr><td style="font-weight:bold;vertical-align:top;">comment</td><td style="vertical-align:top;">:</td><td><div></div></td></tr><tr><td style="font-weight:bold;vertical-align:top;">domain</td><td style="vertical-align:top;">:</td><td><div></div></td></tr><tr><td style="font-weight:bold;vertical-align:top;">expires</td><td style="vertical-align:top;">:</td><td><div></div></td></tr><tr><td style="font-weight:bold;vertical-align:top;">httponly</td><td style="vertical-align:top;">:</td><td><div></div></td></tr><tr><td style="font-weight:bold;vertical-align:top;">max-age</td><td style="vertical-align:top;">:</td><td><div></div></td></tr><tr><td style="font-weight:bold;vertical-align:top;">path</td><td style="vertical-align:top;">:</td><td><div></div></td></tr><tr><td style="font-weight:bold;vertical-align:top;">secure</td><td style="vertical-align:top;">:</td><td><div></div></td></tr><tr><td style="font-weight:bold;vertical-align:top;">version</td><td style="vertical-align:top;">:</td><td><div></div></td></tr></table></div></td></tr><tr><td style="font-weight:bold;vertical-align:top;">session_id_sispiomaria</td><td style="vertical-align:top;">:</td><td><div>127.0.0.1-0676c559-a2c2-4c0f-a248-c278c2ae11b1<table><tr><td style="font-weight:bold;vertical-align:top;">comment</td><td style="vertical-align:top;">:</td><td><div></div></td></tr><tr><td style="font-weight:bold;vertical-align:top;">domain</td><td style="vertical-align:top;">:</td><td><div></div></td></tr><tr><td style="font-weight:bold;vertical-align:top;">expires</td><td style="vertical-align:top;">:</td><td><div></div></td></tr><tr><td style="font-weight:bold;vertical-align:top;">httponly</td><td style="vertical-align:top;">:</td><td><div></div></td></tr><tr><td style="font-weight:bold;vertical-align:top;">max-age</td><td style="vertical-align:top;">:</td><td><div></div></td></tr><tr><td style="font-weight:bold;vertical-align:top;">path</td><td style="vertical-align:top;">:</td><td><div></div></td></tr><tr><td style="font-weight:bold;vertical-align:top;">secure</td><td style="vertical-align:top;">:</td><td><div></div></td></tr><tr><td style="font-weight:bold;vertical-align:top;">version</td><td style="vertical-align:top;">:</td><td><div></div></td></tr></table></div></td></tr><tr><td style="font-weight:bold;vertical-align:top;">session_id_welcome</td><td style="vertical-align:top;">:</td><td><div>127.0.0.1-b535052a-d53c-4df6-a848-b5ea5376e64e<table><tr><td style="font-weight:bold;vertical-align:top;">comment</td><td style="vertical-align:top;">:</td><td><div></div></td></tr><tr><td style="font-weight:bold;vertical-align:top;">domain</td><td style="vertical-align:top;">:</td><td><div></div></td></tr><tr><td style="font-weight:bold;vertical-align:top;">expires</td><td style="vertical-align:top;">:</td><td><div></div></td></tr><tr><td style="font-weight:bold;vertical-align:top;">httponly</td><td style="vertical-align:top;">:</td><td><div></div></td></tr><tr><td style="font-weight:bold;vertical-align:top;">max-age</td><td style="vertical-align:top;">:</td><td><div></div></td></tr><tr><td style="font-weight:bold;vertical-align:top;">path</td><td style="vertical-align:top;">:</td><td><div></div></td></tr><tr><td style="font-weight:bold;vertical-align:top;">secure</td><td style="vertical-align:top;">:</td><td><div></div></td></tr><tr><td style="font-weight:bold;vertical-align:top;">version</td><td style="vertical-align:top;">:</td><td><div></div></td></tr></table></div></td></tr></table></div></td></tr><tr><td style="font-weight:bold;vertical-align:top;">env</td><td style="vertical-align:top;">:</td><td><div><table><tr><td style="font-weight:bold;vertical-align:top;">HTTP_ACCEPT</td><td style="vertical-align:top;">:</td><td><div>text/html,application/xhtml+xml,application/xml;q=0.9,image/webp,image/apng,*/*;q=0.8</div></td></tr><tr><td style="font-weight:bold;vertical-align:top;">HTTP_ACCEPT_ENCODING</td><td style="vertical-align:top;">:</td><td><div>gzip, deflate, br</div></td></tr><tr><td style="font-weight:bold;vertical-align:top;">HTTP_ACCEPT_LANGUAGE</td><td style="vertical-align:top;">:</td><td><div>es-ES,es;q=0.8,en;q=0.6</div></td></tr><tr><td style="font-weight:bold;vertical-align:top;">HTTP_CONNECTION</td><td style="vertical-align:top;">:</td><td><div>keep-alive</div></td></tr><tr><td style="font-weight:bold;vertical-align:top;">HTTP_COOKIE</td><td style="vertical-align:top;">:</td><td><div>session_id_welcome=127.0.0.1-b535052a-d53c-4df6-a848-b5ea5376e64e; session_id_sispio=127.0.0.1-c875f9b4-eab5-478f-9b0b-9697f358a251; session_id_admin=127.0.0.1-403a9a58-7155-47e2-9692-e46450a9271e; session_id_sispiomaria=127.0.0.1-0676c559-a2c2-4c0f-a248-c278c2ae11b1</div></td></tr><tr><td style="font-weight:bold;vertical-align:top;">HTTP_HOST</td><td style="vertical-align:top;">:</td><td><div>127.0.0.1:8000</div></td></tr><tr><td style="font-weight:bold;vertical-align:top;">HTTP_REFERER</td><td style="vertical-align:top;">:</td><td><div>http://127.0.0.1:8000/SisPIOMaria/default/admin</div></td></tr><tr><td style="font-weight:bold;vertical-align:top;">HTTP_UPGRADE_INSECURE_REQUESTS</td><td style="vertical-align:top;">:</td><td><div>1</div></td></tr><tr><td style="font-weight:bold;vertical-align:top;">HTTP_USER_AGENT</td><td style="vertical-align:top;">:</td><td><div>Mozilla/5.0 (Windows NT 10.0; Win64; x64) AppleWebKit/537.36 (KHTML, like Gecko) Chrome/61.0.3163.100 Safari/537.36</div></td></tr><tr><td style="font-weight:bold;vertical-align:top;">PATH_INFO</td><td style="vertical-align:top;">:</td><td><div>/SisPIOMaria/default/admin</div></td></tr><tr><td style="font-weight:bold;vertical-align:top;">QUERY_STRING</td><td style="vertical-align:top;">:</td><td><div>Nombre=Colegio+Perez+Bonalde&amp;Mobile=&amp;zona=+&amp;_formname=formularioAgregarLiceo</div></td></tr><tr><td style="font-weight:bold;vertical-align:top;">REMOTE_ADDR</td><td style="vertical-align:top;">:</td><td><div>127.0.0.1</div></td></tr><tr><td style="font-weight:bold;vertical-align:top;">REMOTE_PORT</td><td style="vertical-align:top;">:</td><td><div>56257</div></td></tr><tr><td style="font-weight:bold;vertical-align:top;">REQUEST_METHOD</td><td style="vertical-align:top;">:</td><td><div>GET</div></td></tr><tr><td style="font-weight:bold;vertical-align:top;">SCRIPT_NAME</td><td style="vertical-align:top;">:</td><td><div></div></td></tr><tr><td style="font-weight:bold;vertical-align:top;">SERVER_NAME</td><td style="vertical-align:top;">:</td><td><div>Miguel</div></td></tr><tr><td style="font-weight:bold;vertical-align:top;">SERVER_PORT</td><td style="vertical-align:top;">:</td><td><div>8000</div></td></tr><tr><td style="font-weight:bold;vertical-align:top;">SERVER_PROTOCOL</td><td style="vertical-align:top;">:</td><td><div>HTTP/1.1</div></td></tr><tr><td style="font-weight:bold;vertical-align:top;">SERVER_SOFTWARE</td><td style="vertical-align:top;">:</td><td><div>Rocket 1.2.6</div></td></tr><tr><td style="font-weight:bold;vertical-align:top;">app_folders</td><td style="vertical-align:top;">:</td><td><div>set([&#x27;C:\\\\Users\\\\Mike\\\\Desktop\\\\web2py\\\\applications\\\\admin\\\\&#x27;, &#x27;C:\\\\Users\\\\Mike\\\\Desktop\\\\web2py\\\\applications\\\\SisPIOMaria\\\\&#x27;, &#x27;C:\\\\Users\\\\Mike\\\\Desktop\\\\web2py\\\\applications\\\\welcome\\\\&#x27;, &#x27;C:\\\\Users\\\\Mike\\\\Desktop\\\\web2py\\\\applications\\\\SisPIO\\\\&#x27;])</div></td></tr><tr><td style="font-weight:bold;vertical-align:top;">applications_parent</td><td style="vertical-align:top;">:</td><td><div>C:\\Users\\Mike\\Desktop\\web2py</div></td></tr><tr><td style="font-weight:bold;vertical-align:top;">cmd_args</td><td style="vertical-align:top;">:</td><td><div><table></table></div></td></tr><tr><td style="font-weight:bold;vertical-align:top;">cmd_options</td><td style="vertical-align:top;">:</td><td><div>&lt;Values at 0x2d83da0: {&#x27;verbose&#x27;: False, &#x27;ip&#x27;: &#x27;127.0.0.1&#x27;, &#x27;debuglevel&#x27;: 30, &#x27;with_scheduler&#x27;: False, &#x27;shutdown_timeout&#x27;: 5, &#x27;taskbar&#x27;: False, &#x27;with_coverage&#x27;: False, &#x27;pid_filename&#x27;: &#x27;httpserver.pid&#x27;, &#x27;maxthreads&#x27;: None, &#x27;softcron&#x27;: False, &#x27;server_name&#x27;: &#x27;Miguel&#x27;, &#x27;bpython&#x27;: False, &#x27;nogui&#x27;: False, &#x27;port&#x27;: 8000, &#x27;print_errors&#x27;: False, &#x27;extcron&#x27;: False, &#x27;runcron&#x27;: False, &#x27;run_system_tests&#x27;: False, &#x27;test&#x27;: None, &#x27;folder&#x27;: &#x27;C:\\\\Users\\\\Mike\\\\Desktop\\\\web2py&#x27;, &#x27;config&#x27;: &#x27;&#x27;, &#x27;minthreads&#x27;: None, &#x27;shell&#x27;: None, &#x27;run&#x27;: &#x27;&#x27;, &#x27;log_filename&#x27;: &#x27;httpserver.log&#x27;, &#x27;profiler_dir&#x27;: None, &#x27;args&#x27;: [&#x27;&#x27;], &#x27;socket_timeout&#x27;: 5, &#x27;ssl_ca_certificate&#x27;: None, &#x27;scheduler&#x27;: None, &#x27;interfaces&#x27;: None, &#x27;ssl_private_key&#x27;: &#x27;&#x27;, &#x27;gae&#x27;: None, &#x27;password&#x27;: &#x27;******&#x27;, &#x27;request_queue_size&#x27;: 5, &#x27;ssl_certificate&#x27;: &#x27;&#x27;, &#x27;cronjob&#x27;: False, &#x27;numthreads&#x27;: None, &#x27;quiet&#x27;: False, &#x27;import_models&#x27;: False, &#x27;timeout&#x27;: 10, &#x27;plain&#x27;: False, &#x27;nobanner&#x27;: False}&gt;</div></td></tr><tr><td style="font-weight:bold;vertical-align:top;">db_sessions</td><td style="vertical-align:top;">:</td><td><div>set([])</div></td></tr><tr><td style="font-weight:bold;vertical-align:top;">debugging</td><td style="vertical-align:top;">:</td><td><div>False</div></td></tr><tr><td style="font-weight:bold;vertical-align:top;">gluon_parent</td><td style="vertical-align:top;">:</td><td><div>C:\\Users\\Mike\\Desktop\\web2py</div></td></tr><tr><td style="font-weight:bold;vertical-align:top;">http_accept</td><td style="vertical-align:top;">:</td><td><div>text/html,application/xhtml+xml,application/xml;q=0.9,image/webp,image/apng,*/*;q=0.8</div></td></tr><tr><td style="font-weight:bold;vertical-align:top;">http_accept_encoding</td><td style="vertical-align:top;">:</td><td><div>gzip, deflate, br</div></td></tr><tr><td style="font-weight:bold;vertical-align:top;">http_accept_language</td><td style="vertical-align:top;">:</td><td><div>es-ES,es;q=0.8,en;q=0.6</div></td></tr><tr><td style="font-weight:bold;vertical-align:top;">http_connection</td><td style="vertical-align:top;">:</td><td><div>keep-alive</div></td></tr><tr><td style="font-weight:bold;vertical-align:top;">http_cookie</td><td style="vertical-align:top;">:</td><td><div>session_id_welcome=127.0.0.1-b535052a-d53c-4df6-a848-b5ea5376e64e; session_id_sispio=127.0.0.1-c875f9b4-eab5-478f-9b0b-9697f358a251; session_id_admin=127.0.0.1-403a9a58-7155-47e2-9692-e46450a9271e; session_id_sispiomaria=127.0.0.1-0676c559-a2c2-4c0f-a248-c278c2ae11b1</div></td></tr><tr><td style="font-weight:bold;vertical-align:top;">http_host</td><td style="vertical-align:top;">:</td><td><div>127.0.0.1:8000</div></td></tr><tr><td style="font-weight:bold;vertical-align:top;">http_referer</td><td style="vertical-align:top;">:</td><td><div>http://127.0.0.1:8000/SisPIOMaria/default/admin</div></td></tr><tr><td style="font-weight:bold;vertical-align:top;">http_upgrade_insecure_requests</td><td style="vertical-align:top;">:</td><td><div>1</div></td></tr><tr><td style="font-weight:bold;vertical-align:top;">http_user_agent</td><td style="vertical-align:top;">:</td><td><div>Mozilla/5.0 (Windows NT 10.0; Win64; x64) AppleWebKit/537.36 (KHTML, like Gecko) Chrome/61.0.3163.100 Safari/537.36</div></td></tr><tr><td style="font-weight:bold;vertical-align:top;">is_jython</td><td style="vertical-align:top;">:</td><td><div>False</div></td></tr><tr><td style="font-weight:bold;vertical-align:top;">is_pypy</td><td style="vertical-align:top;">:</td><td><div>False</div></td></tr><tr><td style="font-weight:bold;vertical-align:top;">is_source</td><td style="vertical-align:top;">:</td><td><div>False</div></td></tr><tr><td style="font-weight:bold;vertical-align:top;">local_hosts</td><td style="vertical-align:top;">:</td><td><div><table><tr><td><div>fe80::20ff:9df6:4558:aa0%21</div></td></tr><tr><td><div>::ffff:127.0.0.1</div></td></tr><tr><td><div>::1</div></td></tr><tr><td><div>172.20.10.3</div></td></tr><tr><td><div>Miguel</div></td></tr><tr><td><div>fe80::243f:92a0:a01c:9d11%17</div></td></tr><tr><td><div>2001:0:5ef5:79fd:20ff:9df6:4558:aa0</div></td></tr><tr><td><div>fe80::75cf:e5c8:80c7:3ed6%18</div></td></tr><tr><td><div>127.0.0.1</div></td></tr><tr><td><div>192.168.56.1</div></td></tr></table></div></td></tr><tr><td style="font-weight:bold;vertical-align:top;">path_info</td><td style="vertical-align:top;">:</td><td><div>/SisPIOMaria/default/admin</div></td></tr><tr><td style="font-weight:bold;vertical-align:top;">query_string</td><td style="vertical-align:top;">:</td><td><div>Nombre=Colegio+Perez+Bonalde&amp;Mobile=&amp;zona=+&amp;_formname=formularioAgregarLiceo</div></td></tr><tr><td style="font-weight:bold;vertical-align:top;">remote_addr</td><td style="vertical-align:top;">:</td><td><div>127.0.0.1</div></td></tr><tr><td style="font-weight:bold;vertical-align:top;">remote_port</td><td style="vertical-align:top;">:</td><td><div>56257</div></td></tr><tr><td style="font-weight:bold;vertical-align:top;">request_method</td><td style="vertical-align:top;">:</td><td><div>GET</div></td></tr><tr><td style="font-weight:bold;vertical-align:top;">request_uri</td><td style="vertical-align:top;">:</td><td><div>/SisPIOMaria/default/admin?Nombre=Colegio+Perez+Bonalde&amp;Mobile=&amp;zona=+&amp;_formname=formularioAgregarLiceo</div></td></tr><tr><td style="font-weight:bold;vertical-align:top;">script_name</td><td style="vertical-align:top;">:</td><td><div></div></td></tr><tr><td style="font-weight:bold;vertical-align:top;">server_name</td><td style="vertical-align:top;">:</td><td><div>Miguel</div></td></tr><tr><td style="font-weight:bold;vertical-align:top;">server_port</td><td style="vertical-align:top;">:</td><td><div>8000</div></td></tr><tr><td style="font-weight:bold;vertical-align:top;">server_protocol</td><td style="vertical-align:top;">:</td><td><div>HTTP/1.1</div></td></tr><tr><td style="font-weight:bold;vertical-align:top;">server_software</td><td style="vertical-align:top;">:</td><td><div>Rocket 1.2.6</div></td></tr><tr><td style="font-weight:bold;vertical-align:top;">web2py_path</td><td style="vertical-align:top;">:</td><td><div>C:\\Users\\Mike\\Desktop\\web2py</div></td></tr><tr><td style="font-weight:bold;vertical-align:top;">web2py_version</td><td style="vertical-align:top;">:</td><td><div>2.14.6-stable+timestamp.2016.05.10.00.21.47</div></td></tr><tr><td style="font-weight:bold;vertical-align:top;">wsgi.errors</td><td style="vertical-align:top;">:</td><td><div>&lt;open file &#x27;&lt;stderr&gt;&#x27;, mode &#x27;w&#x27; at 0x0207D0D0&gt;</div></td></tr><tr><td style="font-weight:bold;vertical-align:top;">wsgi.file_wrapper</td><td style="vertical-align:top;">:</td><td><div>&lt;class wsgiref.util.FileWrapper at 0x03190308&gt;</div></td></tr><tr><td style="font-weight:bold;vertical-align:top;">wsgi.input</td><td style="vertical-align:top;">:</td><td><div>&lt;socket._fileobject object at 0x089A8330&gt;</div></td></tr><tr><td style="font-weight:bold;vertical-align:top;">wsgi.multiprocess</td><td style="vertical-align:top;">:</td><td><div>False</div></td></tr><tr><td style="font-weight:bold;vertical-align:top;">wsgi.multithread</td><td style="vertical-align:top;">:</td><td><div>True</div></td></tr><tr><td style="font-weight:bold;vertical-align:top;">wsgi.run_once</td><td style="vertical-align:top;">:</td><td><div>False</div></td></tr><tr><td style="font-weight:bold;vertical-align:top;">wsgi.url_scheme</td><td style="vertical-align:top;">:</td><td><div>http</div></td></tr><tr><td style="font-weight:bold;vertical-align:top;">wsgi.version</td><td style="vertical-align:top;">:</td><td><div><table><tr><td><div>1</div></td></tr><tr><td><div>0</div></td></tr></table></div></td></tr><tr><td style="font-weight:bold;vertical-align:top;">wsgi_errors</td><td style="vertical-align:top;">:</td><td><div>&lt;open file &#x27;&lt;stderr&gt;&#x27;, mode &#x27;w&#x27; at 0x0207D0D0&gt;</div></td></tr><tr><td style="font-weight:bold;vertical-align:top;">wsgi_file_wrapper</td><td style="vertical-align:top;">:</td><td><div>&lt;class wsgiref.util.FileWrapper at 0x03190308&gt;</div></td></tr><tr><td style="font-weight:bold;vertical-align:top;">wsgi_input</td><td style="vertical-align:top;">:</td><td><div>&lt;socket._fileobject object at 0x089A8330&gt;</div></td></tr><tr><td style="font-weight:bold;vertical-align:top;">wsgi_multiprocess</td><td style="vertical-align:top;">:</td><td><div>False</div></td></tr><tr><td style="font-weight:bold;vertical-align:top;">wsgi_multithread</td><td style="vertical-align:top;">:</td><td><div>True</div></td></tr><tr><td style="font-weight:bold;vertical-align:top;">wsgi_run_once</td><td style="vertical-align:top;">:</td><td><div>False</div></td></tr><tr><td style="font-weight:bold;vertical-align:top;">wsgi_url_scheme</td><td style="vertical-align:top;">:</td><td><div>http</div></td></tr><tr><td style="font-weight:bold;vertical-align:top;">wsgi_version</td><td style="vertical-align:top;">:</td><td><div><table><tr><td><div>1</div></td></tr><tr><td><div>0</div></td></tr></table></div></td></tr></table></div></td></tr><tr><td style="font-weight:bold;vertical-align:top;">extension</td><td style="vertical-align:top;">:</td><td><div>html</div></td></tr><tr><td style="font-weight:bold;vertical-align:top;">folder</td><td style="vertical-align:top;">:</td><td><div>C:\\Users\\Mike\\Desktop\\web2py\\applications\\SisPIOMaria\\</div></td></tr><tr><td style="font-weight:bold;vertical-align:top;">function</td><td style="vertical-align:top;">:</td><td><div>admin</div></td></tr><tr><td style="font-weight:bold;vertical-align:top;">global_settings</td><td style="vertical-align:top;">:</td><td><div><table><tr><td style="font-weight:bold;vertical-align:top;">app_folders</td><td style="vertical-align:top;">:</td><td><div>set([&#x27;C:\\\\Users\\\\Mike\\\\Desktop\\\\web2py\\\\applications\\\\admin\\\\&#x27;, &#x27;C:\\\\Users\\\\Mike\\\\Desktop\\\\web2py\\\\applications\\\\SisPIOMaria\\\\&#x27;, &#x27;C:\\\\Users\\\\Mike\\\\Desktop\\\\web2py\\\\applications\\\\welcome\\\\&#x27;, &#x27;C:\\\\Users\\\\Mike\\\\Desktop\\\\web2py\\\\applications\\\\SisPIO\\\\&#x27;])</div></td></tr><tr><td style="font-weight:bold;vertical-align:top;">applications_parent</td><td style="vertical-align:top;">:</td><td><div>C:\\Users\\Mike\\Desktop\\web2py</div></td></tr><tr><td style="font-weight:bold;vertical-align:top;">cmd_args</td><td style="vertical-align:top;">:</td><td><div><table></table></div></td></tr><tr><td style="font-weight:bold;vertical-align:top;">cmd_options</td><td style="vertical-align:top;">:</td><td><div>&lt;Values at 0x2d83da0: {&#x27;verbose&#x27;: False, &#x27;ip&#x27;: &#x27;127.0.0.1&#x27;, &#x27;debuglevel&#x27;: 30, &#x27;with_scheduler&#x27;: False, &#x27;shutdown_timeout&#x27;: 5, &#x27;taskbar&#x27;: False, &#x27;with_coverage&#x27;: False, &#x27;pid_filename&#x27;: &#x27;httpserver.pid&#x27;, &#x27;maxthreads&#x27;: None, &#x27;softcron&#x27;: False, &#x27;server_name&#x27;: &#x27;Miguel&#x27;, &#x27;bpython&#x27;: False, &#x27;nogui&#x27;: False, &#x27;port&#x27;: 8000, &#x27;print_errors&#x27;: False, &#x27;extcron&#x27;: False, &#x27;runcron&#x27;: False, &#x27;run_system_tests&#x27;: False, &#x27;test&#x27;: None, &#x27;folder&#x27;: &#x27;C:\\\\Users\\\\Mike\\\\Desktop\\\\web2py&#x27;, &#x27;config&#x27;: &#x27;&#x27;, &#x27;minthreads&#x27;: None, &#x27;shell&#x27;: None, &#x27;run&#x27;: &#x27;&#x27;, &#x27;log_filename&#x27;: &#x27;httpserver.log&#x27;, &#x27;profiler_dir&#x27;: None, &#x27;args&#x27;: [&#x27;&#x27;], &#x27;socket_timeout&#x27;: 5, &#x27;ssl_ca_certificate&#x27;: None, &#x27;scheduler&#x27;: None, &#x27;interfaces&#x27;: None, &#x27;ssl_private_key&#x27;: &#x27;&#x27;, &#x27;gae&#x27;: None, &#x27;password&#x27;: &#x27;******&#x27;, &#x27;request_queue_size&#x27;: 5, &#x27;ssl_certificate&#x27;: &#x27;&#x27;, &#x27;cronjob&#x27;: False, &#x27;numthreads&#x27;: None, &#x27;quiet&#x27;: False, &#x27;import_models&#x27;: False, &#x27;timeout&#x27;: 10, &#x27;plain&#x27;: False, &#x27;nobanner&#x27;: False}&gt;</div></td></tr><tr><td style="font-weight:bold;vertical-align:top;">db_sessions</td><td style="vertical-align:top;">:</td><td><div>set([])</div></td></tr><tr><td style="font-weight:bold;vertical-align:top;">debugging</td><td style="vertical-align:top;">:</td><td><div>False</div></td></tr><tr><td style="font-weight:bold;vertical-align:top;">gluon_parent</td><td style="vertical-align:top;">:</td><td><div>C:\\Users\\Mike\\Desktop\\web2py</div></td></tr><tr><td style="font-weight:bold;vertical-align:top;">is_jython</td><td style="vertical-align:top;">:</td><td><div>False</div></td></tr><tr><td style="font-weight:bold;vertical-align:top;">is_pypy</td><td style="vertical-align:top;">:</td><td><div>False</div></td></tr><tr><td style="font-weight:bold;vertical-align:top;">is_source</td><td style="vertical-align:top;">:</td><td><div>False</div></td></tr><tr><td style="font-weight:bold;vertical-align:top;">local_hosts</td><td style="vertical-align:top;">:</td><td><div><table><tr><td><div>fe80::20ff:9df6:4558:aa0%21</div></td></tr><tr><td><div>::ffff:127.0.0.1</div></td></tr><tr><td><div>::1</div></td></tr><tr><td><div>172.20.10.3</div></td></tr><tr><td><div>Miguel</div></td></tr><tr><td><div>fe80::243f:92a0:a01c:9d11%17</div></td></tr><tr><td><div>2001:0:5ef5:79fd:20ff:9df6:4558:aa0</div></td></tr><tr><td><div>fe80::75cf:e5c8:80c7:3ed6%18</div></td></tr><tr><td><div>127.0.0.1</div></td></tr><tr><td><div>192.168.56.1</div></td></tr></table></div></td></tr><tr><td style="font-weight:bold;vertical-align:top;">web2py_version</td><td style="vertical-align:top;">:</td><td><div>2.14.6-stable+timestamp.2016.05.10.00.21.47</div></td></tr></table></div></td></tr><tr><td style="font-weight:bold;vertical-align:top;">is_https</td><td style="vertical-align:top;">:</td><td><div>False</div></td></tr><tr><td style="font-weight:bold;vertical-align:top;">is_local</td><td style="vertical-align:top;">:</td><td><div>True</div></td></tr><tr><td style="font-weight:bold;vertical-align:top;">is_restful</td><td style="vertical-align:top;">:</td><td><div>False</div></td></tr><tr><td style="font-weight:bold;vertical-align:top;">is_scheduler</td><td style="vertical-align:top;">:</td><td><div>False</div></td></tr><tr><td style="font-weight:bold;vertical-align:top;">is_shell</td><td style="vertical-align:top;">:</td><td><div>False</div></td></tr><tr><td style="font-weight:bold;vertical-align:top;">now</td><td style="vertical-align:top;">:</td><td><div>datetime.datetime(2017, 10, 26, 13, 23, 48, 931000)</div></td></tr><tr><td style="font-weight:bold;vertical-align:top;">raw_args</td><td style="vertical-align:top;">:</td><td><div></div></td></tr><tr><td style="font-weight:bold;vertical-align:top;">raw_extension</td><td style="vertical-align:top;">:</td><td><div>None</div></td></tr><tr><td style="font-weight:bold;vertical-align:top;">url</td><td style="vertical-align:top;">:</td><td><div>/SisPIOMaria/default/admin</div></td></tr><tr><td style="font-weight:bold;vertical-align:top;">utcnow</td><td style="vertical-align:top;">:</td><td><div>datetime.datetime(2017, 10, 26, 17, 23, 48, 931000)</div></td></tr><tr><td style="font-weight:bold;vertical-align:top;">wsgi</td><td style="vertical-align:top;">:</td><td><div>&lt;gluon.main.LazyWSGI object at 0x0866CCB0&gt;</div></td></tr></table></div>'
tRp70
sS'frames'
p71
(lp72
(dp73
S'file'
p74
S'C:\\Users\\Mike\\Desktop\\web2py\\gluon\\restricted.py'
p75
sS'dump'
p76
(dp77
S'environment'
p78
S"{'A': <class 'gluon.html.A'>, 'ANY_OF': <class 'gluon.validators.ANY_OF'>, 'ASSIGNJS': <function ASSIGNJS>, 'AppConfig': <function AppConfig>, 'Auth': <class 'gluon.tools.Auth'>, 'B': <class 'gluon.html.B'>, 'BEAUTIFY': <class 'gluon.html.BEAUTIFY'>, 'BODY': <class 'gluon.html.BODY'>, 'BR': <class 'gluon.html.BR'>, 'BUTTON': <class 'gluon.html.BUTTON'>, ...}"
p79
sS'ccode'
p80
S'<code object <module> at 0890DF98, file "C:\\User...ons\\SisPIOMaria\\controllers/default.py", line 10>'
p81
ssS'lnum'
p82
I227
sS'lines'
p83
(dp84
I224
S'            ccode = code'
p85
sI225
S'        else:'
p86
sI226
S'            ccode = compile2(code, layer)'
p87
sI227
S'        exec ccode in environment'
p88
sI228
S'    except HTTP:'
p89
sI229
S'        raise'
p90
sI230
S'    except RestrictedError:'
p91
sI231
S'        # do not encapsulate (obfuscate) the original RestrictedError'
p92
sI222
S'    try:'
p93
sI223
S'        if isinstance(code, types.CodeType):'
p94
ssS'call'
p95
S"(code='# -*- coding: utf-8 -*-\\n# this file is released ...udiante)\\n\\nresponse._vars=response._caller(admin)\\n', environment={'A': <class 'gluon.html.A'>, 'ANY_OF': <class 'gluon.validators.ANY_OF'>, 'ASSIGNJS': <function ASSIGNJS>, 'AppConfig': <function AppConfig>, 'Auth': <class 'gluon.tools.Auth'>, 'B': <class 'gluon.html.B'>, 'BEAUTIFY': <class 'gluon.html.BEAUTIFY'>, 'BODY': <class 'gluon.html.BODY'>, 'BR': <class 'gluon.html.BR'>, 'BUTTON': <class 'gluon.html.BUTTON'>, ...}, layer=r'C:\\Users\\Mike\\Desktop\\web2py\\applications\\SisPIOMaria\\controllers/default.py')"
p96
sS'func'
p97
S'restricted'
p98
sa(dp99
g74
S'C:\\Users\\Mike\\Desktop\\web2py\\applications\\SisPIOMaria\\controllers\\default.py'
p100
sg76
(dp101
sg82
I914
sg83
(dp102
I903
S''
sI904
S'    elif formEstudiante.errors:'
p103
sI905
S'        #error = True'
p104
sI906
S"        response.flash = 'Hay un error en un campo.'"
p105
sI907
S''
sI908
S'    ############################'
p106
sI909
S'    ###fin de Consula de datos'
p107
sI910
S'    ############################'
p108
sI911
S''
sI912
S'    return dict(formDatosBasicos = formDatosBasicos, formEstudiante = formEstudiante)'
p109
ssg95
S'()'
p110
sg97
S'<module>'
p111
sa(dp112
g74
S'C:\\Users\\Mike\\Desktop\\web2py\\gluon\\globals.py'
p113
sg76
(dp114
S'self'
p115
S'undefined'
p116
sS'f'
S'<function admin>'
p117
ssg82
I417
sg83
(dp118
I416
S'        self._vars = None'
p119
sI417
S'        self._caller = lambda f: f()'
p120
sI418
S'        self._view_environment = None'
p121
sI419
S'        self._custom_commit = None'
p122
sI420
S'        self._custom_rollback = None'
p123
sI421
S"        self.generic_patterns = ['*']"
p124
sI412
S"        self.flash = ''            # used by the default view layout"
p125
sI413
S'        self.meta = Storage()      # used by web2py_ajax.html'
p126
sI414
S'        self.menu = []             # used by the default view layout'
p127
sI415
S'        self.files = []            # used by web2py_ajax.html'
p128
ssg95
S'(f=<function admin>)'
p129
sg97
S'<lambda>'
p130
sa(dp131
g74
S'C:\\Users\\Mike\\Desktop\\web2py\\gluon\\tools.py'
p132
sg76
(dp133
S'action'
p134
S'<function admin>'
p135
sS'a'
S'()'
p136
sS'b'
g21
ssg82
I4241
sg83
(dp137
I4236
S'                    flag = condition'
p138
sI4237
S'                if not flag:'
p139
sI4238
S'                    current.session.flash = self.messages.access_denied'
p140
sI4239
S'                    return call_or_redirect('
p141
sI4240
S'                        self.settings.on_failed_authorization)'
p142
sI4241
S'                return action(*a, **b)'
p143
sI4242
S'            f.__doc__ = action.__doc__'
p144
sI4243
S'            f.__name__ = action.__name__'
p145
sI4244
S'            f.__dict__.update(action.__dict__)'
p146
sI4245
S'            return f'
p147
ssg95
S'(*a=(), **b={})'
p148
sg97
S'f'
sa(dp149
g74
S'C:\\Users\\Mike\\Desktop\\web2py\\gluon\\tools.py'
p150
sg76
(dp151
S'action'
p152
S'<function admin>'
p153
sS'a'
S'()'
p154
sS'b'
g21
ssg82
I4241
sg83
(dp155
I4236
S'                    flag = condition'
p156
sI4237
S'                if not flag:'
p157
sI4238
S'                    current.session.flash = self.messages.access_denied'
p158
sI4239
S'                    return call_or_redirect('
p159
sI4240
S'                        self.settings.on_failed_authorization)'
p160
sI4241
S'                return action(*a, **b)'
p161
sI4242
S'            f.__doc__ = action.__doc__'
p162
sI4243
S'            f.__name__ = action.__name__'
p163
sI4244
S'            f.__dict__.update(action.__dict__)'
p164
sI4245
S'            return f'
p165
ssg95
S'(*a=(), **b={})'
p166
sg97
S'f'
sa(dp167
g74
S'C:\\Users\\Mike\\Desktop\\web2py\\applications\\SisPIOMaria\\controllers\\default.py'
p168
sg76
(dp169
S'global request'
p170
S"<Storage {'_vars': <Storage {'Mobile': '', 'Nomb...\\\\Desktop\\\\web2py\\\\applications\\\\SisPIOMaria\\\\'}>"
p171
sS'request.vars'
p172
S"<Storage {'Mobile': '', 'Nombre': 'Colegio Perez...na': ' ', '_formname': 'formularioAgregarLiceo'}>"
p173
sS'zona'
p174
g116
sS'request.vars.zona'
p175
S"' '"
p176
ssg82
I468
sg83
(dp177
I463
S''
sI464
S'    if formularioAgregarLiceo.accepts(request.vars,formname="formularioAgregarLiceo"):'
p178
sI465
S'        if not(db(db.liceo.nombre == request.vars.liceo).select()):               # Verificar que no existe un liceo con ese nombre'
p179
sI466
S'            db.liceo.insert(nombre = request.vars.Nombre,'
p180
sI467
S'                            tipo = request.vars.tipo,'
p181
sI468
S'                            zona = request.vars.zona) # Agregar el liceos'
p182
sI469
S'            numeroMensaje = 13'
p183
sI470
S'        else:'
p184
sI471
S'            numeroMensaje = 14'
p185
sI472
S'    else:'
p186
ssg95
S'()'
p187
sg97
S'admin'
p188
sa(dp189
g74
S'C:\\Users\\Mike\\Desktop\\web2py\\gluon\\packages\\dal\\pydal\\objects.py'
p190
sg76
(dp191
S'self._listify'
p192
S'<bound method Table._listify of <Table liceo (id, nombre, tipo, zona)>>'
p193
sS'fields'
p194
S"{'nombre': 'Colegio Perez Bonalde', 'tipo': None, 'zona': ' '}"
p195
sS'self'
p196
S'<Table liceo (id, nombre, tipo, zona)>'
p197
sS'ret'
p198
g116
sS'self._db._adapter'
p199
S'<pydal.adapters.postgres.PostgreSQLAdapter object>'
p200
sS'self._db._adapter.insert'
p201
S'<bound method PostgreSQLAdapter.insert of <pydal.adapters.postgres.PostgreSQLAdapter object>>'
p202
sS'self._db'
p203
S'<DAL uri="postgres:******@localhost/SisPIO">'
p204
ssg82
I726
sg83
(dp205
I721
S'    def insert(self, **fields):'
p206
sI722
S'        fields = self._defaults(fields)'
p207
sI723
S'        self._attempt_upload(fields)'
p208
sI724
S'        if any(f(fields) for f in self._before_insert):'
p209
sI725
S'            return 0'
p210
sI726
S'        ret = self._db._adapter.insert(self, self._listify(fields))'
p211
sI727
S'        if ret and self._after_insert:'
p212
sI728
S'            fields = Row(fields)'
p213
sI729
S'            [f(fields, ret) for f in self._after_insert]'
p214
sI730
S'        return ret'
p215
ssg95
S"(self=<Table liceo (id, nombre, tipo, zona)>, **fields={'nombre': 'Colegio Perez Bonalde', 'tipo': None, 'zona': ' '})"
p216
sg97
S'insert'
p217
sa(dp218
g74
S'C:\\Users\\Mike\\Desktop\\web2py\\gluon\\packages\\dal\\pydal\\adapters\\base.py'
p219
sg76
(dp220
S'e'
S"IntegrityError('el valor null para la columna \\x...ontiene (6, Colegio Perez Bonalde, null,  ).\\n',)"
p221
ssg82
I746
sg83
(dp222
I741
S'            self.execute(query)'
p223
sI742
S'        except Exception:'
p224
sI743
S'            e = sys.exc_info()[1]'
p225
sI744
S"            if hasattr(table,'_on_insert_error'):"
p226
sI745
S'                return table._on_insert_error(table,fields,e)'
p227
sI746
S'            raise e'
p228
sI747
S"        if hasattr(table, '_primarykey'):"
p229
sI748
S'            mydict = dict([(k[0].name, k[1]) for k in fields if k[0].name in table._primarykey])'
p230
sI749
S'            if mydict != {}:'
p231
sI750
S'                return mydict'
p232
ssg95
S"(self=<pydal.adapters.postgres.PostgreSQLAdapter object>, table=<Table liceo (id, nombre, tipo, zona)>, fields=[(<pydal.objects.Field object>, 'Colegio Perez Bonalde'), (<pydal.objects.Field object>, ' '), (<pydal.objects.Field object>, None)])"
p233
sg97
g217
sasS'pyver'
p234
S'Python 2.7.9: C:\\Users\\Mike\\Desktop\\web2py\\web2py.exe (prefix: )'
p235
sS'session'
p236
g69
(S's\x90\n\x00\x00<div><table><tr><td style="font-weight:bold;vertical-align:top;">auth</td><td style="vertical-align:top;">:</td><td><div><table><tr><td style="font-weight:bold;vertical-align:top;">expiration</td><td style="vertical-align:top;">:</td><td><div>3600</div></td></tr><tr><td style="font-weight:bold;vertical-align:top;">hmac_key</td><td style="vertical-align:top;">:</td><td><div>24225dd3-91f9-43e6-a4b6-38799573fd32</div></td></tr><tr><td style="font-weight:bold;vertical-align:top;">last_visit</td><td style="vertical-align:top;">:</td><td><div>datetime.datetime(2017, 10, 26, 13, 22, 55, 572000)</div></td></tr><tr><td style="font-weight:bold;vertical-align:top;">remember_me</td><td style="vertical-align:top;">:</td><td><div>False</div></td></tr><tr><td style="font-weight:bold;vertical-align:top;">user</td><td style="vertical-align:top;">:</td><td><div><table><tr><td style="font-weight:bold;vertical-align:top;">email</td><td style="vertical-align:top;">:</td><td><div>admin@usb.ve</div></td></tr><tr><td style="font-weight:bold;vertical-align:top;">first_name</td><td style="vertical-align:top;">:</td><td><div>SisPIO</div></td></tr><tr><td style="font-weight:bold;vertical-align:top;">id</td><td style="vertical-align:top;">:</td><td><div>1L</div></td></tr><tr><td style="font-weight:bold;vertical-align:top;">last_name</td><td style="vertical-align:top;">:</td><td><div>Admin</div></td></tr><tr><td style="font-weight:bold;vertical-align:top;">registration_id</td><td style="vertical-align:top;">:</td><td><div></div></td></tr><tr><td style="font-weight:bold;vertical-align:top;">registration_key</td><td style="vertical-align:top;">:</td><td><div></div></td></tr><tr><td style="font-weight:bold;vertical-align:top;">reset_password_key</td><td style="vertical-align:top;">:</td><td><div></div></td></tr><tr><td style="font-weight:bold;vertical-align:top;">username</td><td style="vertical-align:top;">:</td><td><div>admin</div></td></tr></table></div></td></tr><tr><td style="font-weight:bold;vertical-align:top;">user_groups</td><td style="vertical-align:top;">:</td><td><div><table><tr><td style="font-weight:bold;vertical-align:top;">5</td><td style="vertical-align:top;">:</td><td><div>Administrador</div></td></tr></table></div></td></tr></table></div></td></tr><tr><td style="font-weight:bold;vertical-align:top;">flash</td><td style="vertical-align:top;">:</td><td><div>None</div></td></tr><tr><td style="font-weight:bold;vertical-align:top;">last_orderby</td><td style="vertical-align:top;">:</td><td><div>None</div></td></tr><tr><td style="font-weight:bold;vertical-align:top;">last_query</td><td style="vertical-align:top;">:</td><td><div>db.usuario.id&gt;0</div></td></tr></table></div>'
tRp237
sS'etype'
p238
S"<class 'psycopg2.IntegrityError'>"
p239
sS'date'
p240
S'Thu Oct 26 13:23:49 2017'
p241
sS'response'
p242
g69
(S's\x15@\x00\x00<div><table><tr><td style="font-weight:bold;vertical-align:top;">body</td><td style="vertical-align:top;">:</td><td><div>&lt;cStringIO.StringO object at 0x08E59FE0&gt;</div></td></tr><tr><td style="font-weight:bold;vertical-align:top;">cookies</td><td style="vertical-align:top;">:</td><td><div><table><tr><td style="font-weight:bold;vertical-align:top;">session_id_sispiomaria</td><td style="vertical-align:top;">:</td><td><div>127.0.0.1-0676c559-a2c2-4c0f-a248-c278c2ae11b1<table><tr><td style="font-weight:bold;vertical-align:top;">comment</td><td style="vertical-align:top;">:</td><td><div></div></td></tr><tr><td style="font-weight:bold;vertical-align:top;">domain</td><td style="vertical-align:top;">:</td><td><div></div></td></tr><tr><td style="font-weight:bold;vertical-align:top;">expires</td><td style="vertical-align:top;">:</td><td><div></div></td></tr><tr><td style="font-weight:bold;vertical-align:top;">httponly</td><td style="vertical-align:top;">:</td><td><div></div></td></tr><tr><td style="font-weight:bold;vertical-align:top;">max-age</td><td style="vertical-align:top;">:</td><td><div></div></td></tr><tr><td style="font-weight:bold;vertical-align:top;">path</td><td style="vertical-align:top;">:</td><td><div>/</div></td></tr><tr><td style="font-weight:bold;vertical-align:top;">secure</td><td style="vertical-align:top;">:</td><td><div></div></td></tr><tr><td style="font-weight:bold;vertical-align:top;">version</td><td style="vertical-align:top;">:</td><td><div></div></td></tr></table></div></td></tr></table></div></td></tr><tr><td style="font-weight:bold;vertical-align:top;">delimiters</td><td style="vertical-align:top;">:</td><td><div><table><tr><td><div>{{</div></td></tr><tr><td><div>}}</div></td></tr></table></div></td></tr><tr><td style="font-weight:bold;vertical-align:top;">files</td><td style="vertical-align:top;">:</td><td><div><table></table></div></td></tr><tr><td style="font-weight:bold;vertical-align:top;">flash</td><td style="vertical-align:top;">:</td><td><div></div></td></tr><tr><td style="font-weight:bold;vertical-align:top;">form_label_separator</td><td style="vertical-align:top;">:</td><td><div></div></td></tr><tr><td style="font-weight:bold;vertical-align:top;">formstyle</td><td style="vertical-align:top;">:</td><td><div>bootstrap3_inline</div></td></tr><tr><td style="font-weight:bold;vertical-align:top;">generic_patterns</td><td style="vertical-align:top;">:</td><td><div><table><tr><td><div>*</div></td></tr></table></div></td></tr><tr><td style="font-weight:bold;vertical-align:top;">google_analytics_id</td><td style="vertical-align:top;">:</td><td><div>None</div></td></tr><tr><td style="font-weight:bold;vertical-align:top;">headers</td><td style="vertical-align:top;">:</td><td><div><table><tr><td style="font-weight:bold;vertical-align:top;">X-Powered-By</td><td style="vertical-align:top;">:</td><td><div>web2py</div></td></tr></table></div></td></tr><tr><td style="font-weight:bold;vertical-align:top;">logo</td><td style="vertical-align:top;">:</td><td><div><a class="navbar-brand" href="http://www.web2py.com/" id="web2py-logo"><b>web<span>2</span>py</b>&trade;&nbsp;</a></div></td></tr><tr><td style="font-weight:bold;vertical-align:top;">menu</td><td style="vertical-align:top;">:</td><td><div><table><tr><td><div><table><tr><td><div>Inicio</div></td></tr><tr><td><div>False</div></td></tr><tr><td><div>/SisPIOMaria/default/index</div></td></tr><tr><td><div><table></table></div></td></tr></table></div></td></tr><tr><td><div><table><tr><td><div>Mis Sitios</div></td></tr><tr><td><div>False</div></td></tr><tr><td><div>/admin/default/site</div></td></tr></table></div></td></tr><tr><td><div><table><tr><td><div>Esta Aplicaci\xc3\xb3n</div></td></tr><tr><td><div>False</div></td></tr><tr><td><div>#</div></td></tr><tr><td><div><table><tr><td><div><table><tr><td><div>Design</div></td></tr><tr><td><div>False</div></td></tr><tr><td><div>/admin/default/design/SisPIOMaria</div></td></tr></table></div></td></tr><tr><td><div><li class="divider"></li></div></td></tr><tr><td><div><table><tr><td><div>Controlador</div></td></tr><tr><td><div>False</div></td></tr><tr><td><div>/admin/default/edit/SisPIOMaria/controllers/default.py</div></td></tr></table></div></td></tr><tr><td><div><table><tr><td><div>Vista</div></td></tr><tr><td><div>False</div></td></tr><tr><td><div>/admin/default/edit/SisPIOMaria/views/default/admin.html</div></td></tr></table></div></td></tr><tr><td><div><table><tr><td><div>Modelo BDD</div></td></tr><tr><td><div>False</div></td></tr><tr><td><div>/admin/default/edit/SisPIOMaria/models/db.py</div></td></tr></table></div></td></tr><tr><td><div><table><tr><td><div>Modelo "menu"</div></td></tr><tr><td><div>False</div></td></tr><tr><td><div>/admin/default/edit/SisPIOMaria/models/menu.py</div></td></tr></table></div></td></tr><tr><td><div><table><tr><td><div>Config.ini</div></td></tr><tr><td><div>False</div></td></tr><tr><td><div>/admin/default/edit/SisPIOMaria/private/appconfig.ini</div></td></tr></table></div></td></tr><tr><td><div><table><tr><td><div>Dise\xc3\xb1o de p\xc3\xa1gina</div></td></tr><tr><td><div>False</div></td></tr><tr><td><div>/admin/default/edit/SisPIOMaria/views/layout.html</div></td></tr></table></div></td></tr><tr><td><div><table><tr><td><div>Hoja de estilo</div></td></tr><tr><td><div>False</div></td></tr><tr><td><div>/admin/default/edit/SisPIOMaria/static/css/web2py-bootstrap3.css</div></td></tr></table></div></td></tr><tr><td><div><table><tr><td><div>Base de datos</div></td></tr><tr><td><div>False</div></td></tr><tr><td><div>/SisPIOMaria/appadmin/index</div></td></tr></table></div></td></tr><tr><td><div><table><tr><td><div>Errores</div></td></tr><tr><td><div>False</div></td></tr><tr><td><div>/admin/default/errors/SisPIOMaria</div></td></tr></table></div></td></tr><tr><td><div><table><tr><td><div>Acerca de</div></td></tr><tr><td><div>False</div></td></tr><tr><td><div>/admin/default/about/SisPIOMaria</div></td></tr></table></div></td></tr></table></div></td></tr></table></div></td></tr><tr><td><div><table><tr><td><div>web2py.com</div></td></tr><tr><td><div>False</div></td></tr><tr><td><div>#</div></td></tr><tr><td><div><table><tr><td><div><table><tr><td><div>Descargas</div></td></tr><tr><td><div>False</div></td></tr><tr><td><div>http://www.web2py.com/examples/default/download</div></td></tr></table></div></td></tr><tr><td><div><table><tr><td><div>Soporte</div></td></tr><tr><td><div>False</div></td></tr><tr><td><div>http://www.web2py.com/examples/default/support</div></td></tr></table></div></td></tr><tr><td><div><table><tr><td><div>Demostraci\xc3\xb3n</div></td></tr><tr><td><div>False</div></td></tr><tr><td><div>http://web2py.com/demo_admin</div></td></tr></table></div></td></tr><tr><td><div><table><tr><td><div>Ejemplos R\xc3\xa1pidos</div></td></tr><tr><td><div>False</div></td></tr><tr><td><div>http://web2py.com/examples/default/examples</div></td></tr></table></div></td></tr><tr><td><div><table><tr><td><div>FAQ</div></td></tr><tr><td><div>False</div></td></tr><tr><td><div>http://web2py.com/AlterEgo</div></td></tr></table></div></td></tr><tr><td><div><table><tr><td><div>V\xc3\xaddeos</div></td></tr><tr><td><div>False</div></td></tr><tr><td><div>http://www.web2py.com/examples/default/videos/</div></td></tr></table></div></td></tr><tr><td><div><table><tr><td><div>Aplicaciones Libres</div></td></tr><tr><td><div>False</div></td></tr><tr><td><div>http://web2py.com/appliances</div></td></tr></table></div></td></tr><tr><td><div><table><tr><td><div>Plugins</div></td></tr><tr><td><div>False</div></td></tr><tr><td><div>http://web2py.com/plugins</div></td></tr></table></div></td></tr><tr><td><div><table><tr><td><div>Recetas</div></td></tr><tr><td><div>False</div></td></tr><tr><td><div>http://web2pyslices.com/</div></td></tr></table></div></td></tr></table></div></td></tr></table></div></td></tr><tr><td><div><table><tr><td><div>Documentaci\xc3\xb3n</div></td></tr><tr><td><div>False</div></td></tr><tr><td><div>#</div></td></tr><tr><td><div><table><tr><td><div><table><tr><td><div>Online book</div></td></tr><tr><td><div>False</div></td></tr><tr><td><div>http://www.web2py.com/book</div></td></tr></table></div></td></tr><tr><td><div><li class="divider"></li></div></td></tr><tr><td><div><table><tr><td><div>Prefacio</div></td></tr><tr><td><div>False</div></td></tr><tr><td><div>http://www.web2py.com/book/default/chapter/00</div></td></tr></table></div></td></tr><tr><td><div><table><tr><td><div>Introducci\xc3\xb3n</div></td></tr><tr><td><div>False</div></td></tr><tr><td><div>http://www.web2py.com/book/default/chapter/01</div></td></tr></table></div></td></tr><tr><td><div><table><tr><td><div>Python</div></td></tr><tr><td><div>False</div></td></tr><tr><td><div>http://www.web2py.com/book/default/chapter/02</div></td></tr></table></div></td></tr><tr><td><div><table><tr><td><div>Resumen</div></td></tr><tr><td><div>False</div></td></tr><tr><td><div>http://www.web2py.com/book/default/chapter/03</div></td></tr></table></div></td></tr><tr><td><div><table><tr><td><div>El N\xc3\xbacleo</div></td></tr><tr><td><div>False</div></td></tr><tr><td><div>http://www.web2py.com/book/default/chapter/04</div></td></tr></table></div></td></tr><tr><td><div><table><tr><td><div>Las Vistas</div></td></tr><tr><td><div>False</div></td></tr><tr><td><div>http://www.web2py.com/book/default/chapter/05</div></td></tr></table></div></td></tr><tr><td><div><table><tr><td><div>Base de datos</div></td></tr><tr><td><div>False</div></td></tr><tr><td><div>http://www.web2py.com/book/default/chapter/06</div></td></tr></table></div></td></tr><tr><td><div><table><tr><td><div>Formularios y validadores</div></td></tr><tr><td><div>False</div></td></tr><tr><td><div>http://www.web2py.com/book/default/chapter/07</div></td></tr></table></div></td></tr><tr><td><div><table><tr><td><div>Correo electr\xc3\xb3nico y SMS</div></td></tr><tr><td><div>False</div></td></tr><tr><td><div>http://www.web2py.com/book/default/chapter/08</div></td></tr></table></div></td></tr><tr><td><div><table><tr><td><div>Control de Acceso</div></td></tr><tr><td><div>False</div></td></tr><tr><td><div>http://www.web2py.com/book/default/chapter/09</div></td></tr></table></div></td></tr><tr><td><div><table><tr><td><div>Servicios</div></td></tr><tr><td><div>False</div></td></tr><tr><td><div>http://www.web2py.com/book/default/chapter/10</div></td></tr></table></div></td></tr><tr><td><div><table><tr><td><div>Recetas AJAX</div></td></tr><tr><td><div>False</div></td></tr><tr><td><div>http://www.web2py.com/book/default/chapter/11</div></td></tr></table></div></td></tr><tr><td><div><table><tr><td><div>Componentes y Plugins</div></td></tr><tr><td><div>False</div></td></tr><tr><td><div>http://www.web2py.com/book/default/chapter/12</div></td></tr></table></div></td></tr><tr><td><div><table><tr><td><div>Recetas de despliegue</div></td></tr><tr><td><div>False</div></td></tr><tr><td><div>http://www.web2py.com/book/default/chapter/13</div></td></tr></table></div></td></tr><tr><td><div><table><tr><td><div>Otras Recetas</div></td></tr><tr><td><div>False</div></td></tr><tr><td><div>http://www.web2py.com/book/default/chapter/14</div></td></tr></table></div></td></tr><tr><td><div><table><tr><td><div>Helping web2py</div></td></tr><tr><td><div>False</div></td></tr><tr><td><div>http://www.web2py.com/book/default/chapter/15</div></td></tr></table></div></td></tr><tr><td><div><table><tr><td><div>Buy web2py\'s book</div></td></tr><tr><td><div>False</div></td></tr><tr><td><div>http://stores.lulu.com/web2py</div></td></tr></table></div></td></tr></table></div></td></tr></table></div></td></tr><tr><td><div><table><tr><td><div>Comunidad</div></td></tr><tr><td><div>False</div></td></tr><tr><td><div>None</div></td></tr><tr><td><div><table><tr><td><div><table><tr><td><div>Grupos</div></td></tr><tr><td><div>False</div></td></tr><tr><td><div>http://www.web2py.com/examples/default/usergroups</div></td></tr></table></div></td></tr><tr><td><div><table><tr><td><div>Twitter</div></td></tr><tr><td><div>False</div></td></tr><tr><td><div>http://twitter.com/web2py</div></td></tr></table></div></td></tr><tr><td><div><table><tr><td><div>Chat en vivo</div></td></tr><tr><td><div>False</div></td></tr><tr><td><div>http://webchat.freenode.net/?channels=web2py</div></td></tr></table></div></td></tr></table></div></td></tr></table></div></td></tr></table></div></td></tr><tr><td style="font-weight:bold;vertical-align:top;">meta</td><td style="vertical-align:top;">:</td><td><div><table><tr><td style="font-weight:bold;vertical-align:top;">author</td><td style="vertical-align:top;">:</td><td><div>Your Name &lt;you@example.com&gt;</div></td></tr><tr><td style="font-weight:bold;vertical-align:top;">description</td><td style="vertical-align:top;">:</td><td><div>a cool new app</div></td></tr><tr><td style="font-weight:bold;vertical-align:top;">generator</td><td style="vertical-align:top;">:</td><td><div>Web2py Web Framework</div></td></tr><tr><td style="font-weight:bold;vertical-align:top;">keywords</td><td style="vertical-align:top;">:</td><td><div><table><tr><td><div>web2py</div></td></tr><tr><td><div>python</div></td></tr><tr><td><div>framework</div></td></tr></table></div></td></tr></table></div></td></tr><tr><td style="font-weight:bold;vertical-align:top;">models_to_run</td><td style="vertical-align:top;">:</td><td><div><table><tr><td><div>^\\w+\\.py$</div></td></tr><tr><td><div>^default/\\w+\\.py$</div></td></tr><tr><td><div>^default/admin/\\w+\\.py$</div></td></tr></table></div></td></tr><tr><td style="font-weight:bold;vertical-align:top;">postprocessing</td><td style="vertical-align:top;">:</td><td><div><table></table></div></td></tr><tr><td style="font-weight:bold;vertical-align:top;">session_client</td><td style="vertical-align:top;">:</td><td><div>127.0.0.1</div></td></tr><tr><td style="font-weight:bold;vertical-align:top;">session_cookie_compression_level</td><td style="vertical-align:top;">:</td><td><div>None</div></td></tr><tr><td style="font-weight:bold;vertical-align:top;">session_cookie_expires</td><td style="vertical-align:top;">:</td><td><div>None</div></td></tr><tr><td style="font-weight:bold;vertical-align:top;">session_data_name</td><td style="vertical-align:top;">:</td><td><div>session_data_sispiomaria</div></td></tr><tr><td style="font-weight:bold;vertical-align:top;">session_file</td><td style="vertical-align:top;">:</td><td><div>&lt;open file &#x27;C:\\\\Users\\\\Mike\\\\Desktop\\\\web2py\\\\applications\\\\SisPIOMaria\\\\sessions\\\\090\\\\0c3\\\\127.0.0.1-0676c559-a2c2-4c0f-a248-c278c2ae11b1&#x27;, mode &#x27;rb+&#x27; at 0x088A1D30&gt;</div></td></tr><tr><td style="font-weight:bold;vertical-align:top;">session_filename</td><td style="vertical-align:top;">:</td><td><div>C:\\Users\\Mike\\Desktop\\web2py\\applications\\SisPIOMaria\\sessions\\127.0.0.1-0676c559-a2c2-4c0f-a248-c278c2ae11b1</div></td></tr><tr><td style="font-weight:bold;vertical-align:top;">session_hash</td><td style="vertical-align:top;">:</td><td><div>9c6adf2b9be9808c5c7b8c721a2d39f8</div></td></tr><tr><td style="font-weight:bold;vertical-align:top;">session_id</td><td style="vertical-align:top;">:</td><td><div>127.0.0.1-0676c559-a2c2-4c0f-a248-c278c2ae11b1</div></td></tr><tr><td style="font-weight:bold;vertical-align:top;">session_id_name</td><td style="vertical-align:top;">:</td><td><div>session_id_sispiomaria</div></td></tr><tr><td style="font-weight:bold;vertical-align:top;">session_locked</td><td style="vertical-align:top;">:</td><td><div>True</div></td></tr><tr><td style="font-weight:bold;vertical-align:top;">session_masterapp</td><td style="vertical-align:top;">:</td><td><div>SisPIOMaria</div></td></tr><tr><td style="font-weight:bold;vertical-align:top;">session_new</td><td style="vertical-align:top;">:</td><td><div>False</div></td></tr><tr><td style="font-weight:bold;vertical-align:top;">session_storage_type</td><td style="vertical-align:top;">:</td><td><div>file</div></td></tr><tr><td style="font-weight:bold;vertical-align:top;">status</td><td style="vertical-align:top;">:</td><td><div>200</div></td></tr><tr><td style="font-weight:bold;vertical-align:top;">subtitle</td><td style="vertical-align:top;">:</td><td><div></div></td></tr><tr><td style="font-weight:bold;vertical-align:top;">title</td><td style="vertical-align:top;">:</td><td><div>Sispiomaria</div></td></tr><tr><td style="font-weight:bold;vertical-align:top;">view</td><td style="vertical-align:top;">:</td><td><div>default/admin.html</div></td></tr></table></div>'
tRp243
sS'locals'
p244
(dp245
S'query'
p246
S'"INSERT INTO liceo(nombre,zona,tipo) VALUES (\'Colegio Perez Bonalde\',\' \',NULL) RETURNING id;"'
p247
sS'self'
p248
S'<pydal.adapters.postgres.PostgreSQLAdapter object>'
p249
sS'e'
S"IntegrityError('el valor null para la columna \\x...ontiene (6, Colegio Perez Bonalde, null,  ).\\n',)"
p250
sS'fields'
p251
S"[(<pydal.objects.Field object>, 'Colegio Perez Bonalde'), (<pydal.objects.Field object>, ' '), (<pydal.objects.Field object>, None)]"
p252
sS'table'
p253
S'<Table liceo (id, nombre, tipo, zona)>'
p254
sssS'traceback'
p255
S'Traceback (most recent call last):\n  File "C:\\Users\\Mike\\Desktop\\web2py\\gluon\\restricted.py", line 227, in restricted\n    exec ccode in environment\n  File "C:\\Users\\Mike\\Desktop\\web2py\\applications\\SisPIOMaria\\controllers/default.py", line 914, in <module>\n  File "C:\\Users\\Mike\\Desktop\\web2py\\gluon\\globals.py", line 417, in <lambda>\n    self._caller = lambda f: f()\n  File "C:\\Users\\Mike\\Desktop\\web2py\\gluon\\tools.py", line 4241, in f\n    return action(*a, **b)\n  File "C:\\Users\\Mike\\Desktop\\web2py\\gluon\\tools.py", line 4241, in f\n    return action(*a, **b)\n  File "C:\\Users\\Mike\\Desktop\\web2py\\applications\\SisPIOMaria\\controllers/default.py", line 468, in admin\n    zona = request.vars.zona) # Agregar el liceos\n  File "C:\\Users\\Mike\\Desktop\\web2py\\gluon\\packages\\dal\\pydal\\objects.py", line 726, in insert\n    ret = self._db._adapter.insert(self, self._listify(fields))\n  File "C:\\Users\\Mike\\Desktop\\web2py\\gluon\\packages\\dal\\pydal\\adapters\\base.py", line 746, in insert\n    raise e\nIntegrityError: el valor null para la columna \xc2\xabtipo\xc2\xbb viola la restricci\xc3\xb3n not null\nDETAIL:  La fila que falla contiene (6, Colegio Perez Bonalde, null,  ).\n\n'
p256
s.