(dp1
S'output'
p2
S"<type 'exceptions.NameError'> name 'liceos' is not defined"
p3
sS'layer'
p4
S'C:\\Users\\capf9\\Desktop\\University\\web2py_win\\web2py\\applications\\SisPIO\\views\\admin/modificarRepresentanteLiceo.html'
p5
sS'code'
p6
S'response.write(\'<!DOCTYPE html>\\r\\n\\r\\n<link href="\', escape=False)\nresponse.write(URL(\'static\', \'css/admin/agregarManual.css\'))\nresponse.write(\'" rel="stylesheet">\\r\\n\\r\\n \', escape=False)\nresponse.write(\'<html lang="es">\\r\\n\\r\\n<head>\\r\\n    <meta charset="utf-8">\\r\\n    <meta http-equiv="X-UA-Compatible" content="IE=edge">\\r\\n    <meta name="viewport" content="width=device-width, initial-scale=1">\\r\\n    <!-- The above 3 meta tags *must* come first in the head; any other head content must come *after* these tags. Will make it responsive-->\\r\\n    <title>Sistema PIO</title>\\r\\n    <link rel="shortcut icon" href="\', escape=False)\nresponse.write(URL(\'static\', \'images/logoUSB.png\'))\nresponse.write(\'" />\\r\\n     <!-- Bootstrap -->\\r\\n    <link href="\', escape=False)\nresponse.write(URL(\'static\', \'css/bootstrap.min.css\'))\nresponse.write(\'" rel="stylesheet">\\r\\n    <link href="\', escape=False)\nresponse.write(URL(\'static\', \'css/bootstrap-theme.min.css\'))\nresponse.write(\'" rel="stylesheet">\\r\\n    <link href="\', escape=False)\nresponse.write(URL(\'static\', \'css/index.css\'))\nresponse.write(\'" rel="stylesheet">\\r\\n\\r\\n\\r\\n    <!-- HTML5 shim and Respond.js for IE8 support of HTML5 elements and media queries -->\\r\\n    <!-- WARNING: Respond.js doesn\\\'t work if you view the page via file:// -->\\r\\n    <!--[if lt IE 9]>\\r\\n      <script src="https://oss.maxcdn.com/html5shiv/3.7.3/html5shiv.min.js"></script>\\r\\n      <script src="https://oss.maxcdn.com/respond/1.4.2/respond.min.js"></script>\\r\\n    <![endif]-->\\r\\n</head>\\r\\n<div class="container">\\r\\n        <div class="row">\\r\\n            <!--HEADER --> \\r\\n            <div class="col-sm-12">\\r\\n                <img id="Logo" class="img-responsive" src="\', escape=False)\nresponse.write(URL(\'static\', \'images/bar7.png\'))\nresponse.write(\'" >\\r\\n            </div>\\r\\n            \\r\\n             <!--Navbar -->\\r\\n            <div class=" col-sm-12">\\r\\n                \\r\\n                <nav class="navbar navbar-default inicioSesion">\\r\\n                  <div class="container-fluid">\\r\\n                    <!-- Brand and toggle get grouped for better mobile display -->\\r\\n                    <div class="navbar-header">\\r\\n                      <button type="button" class="navbar-toggle collapsed" data-toggle="collapse" data-target="#bs-example-navbar-collapse-1" aria-expanded="false">\\r\\n                        <span class="sr-only">Toggle navigation</span>\\r\\n                        <span class="icon-bar"></span>\\r\\n                        <span class="icon-bar"></span>\\r\\n                        <span class="icon-bar"></span>\\r\\n                      </button>\\r\\n                    </div>\\r\\n\\r\\n                    <!-- Collect the nav links, forms, and other content for toggling -->\\r\\n                    <div class="collapse navbar-collapse" id="bs-example-navbar-collapse-1">\\r\\n                      <ul class="nav navbar-nav navbar-right">\\r\\n                          <li class="dropdown">\\r\\n                            \', escape=False)\nif auth.is_logged_in():\n    response.write(\'\\r\\n                              <a href="#" class="dropdown-toggle" data-toggle="dropdown" role="button" aria-haspopup="true" aria-expanded="false">\', escape=False)\n    response.write(auth.user.first_name)\n    response.write(\'<span class="caret"></span></a>\\r\\n                              \', escape=False)\nelse:\n    response.write(\'\\r\\n                               <a href="#" class="dropdown-toggle" data-toggle="dropdown" role="button" aria-haspopup="true" aria-expanded="false">Usuario<span class="caret"></span></a>\\r\\n                               \', escape=False)\n    pass\nresponse.write(\'\\r\\n                              <ul class="dropdown-menu">\\r\\n                                    <li id="userinfo"><a href="#"><span class="glyphicon glyphicon-user "></span> Mi perfil </a></li>\\r\\n                                    <li id="enviar"><a href="#"><span class="glyphicon glyphicon-envelope"></span> Contactanos</a></li>\\r\\n                                    <li role="separator" class="divider"></li>\\r\\n                                    <li><a href="\', escape=False)\nresponse.write(URL(\'default\', \'user\', args=\'logout\'))\nresponse.write(\'"><span class="glyphicon glyphicon-log-out"></span> Salir </a></li>\\r\\n                              </ul>\\r\\n                          </li>\\r\\n                        </ul>\\r\\n                    </div><!-- /.navbar-collapse -->\\r\\n                  </div><!-- /.container-fluid -->\\r\\n                </nav>\\r\\n            </div><!--col12-->\\r\\n        </div><!--row-->\\r\\n            \\r\\n    </div><!--container-->\\r\\n<div class="w2p_flash alert alert-dismissable">\', escape=False)\nresponse.write(response.flash or \'\')\nresponse.write(\'</div>\\r\\n\', escape=False)\nresponse.write(\'\\r\\n\\r\\n    <div  class="container">\\r\\n        <div id="inicio" class="row">\\r\\n            <div class="col-md-12">  \\r\\n              \', escape=False)\nresponse.write(\'\\r\\n<!-- Information-->\\r\\n    <div class="col-md-3">\\r\\n      <div class="row">\\r\\n            <a href="\', escape=False)\nresponse.write(URL(\'admin\', \'index\'))\nresponse.write(\'"><button class="accordion2" id="principal">Inicio</button></a>\\r\\n            <button class="accordion">Gestion de usuarios<span class="caret"></span></button>\\r\\n            <div class="panel">\\r\\n            <a href="\', escape=False)\nresponse.write(URL(\'admin\', \'agregarManual\'))\nresponse.write(\'"><button class="accordion2" id="add"><span class="glyphicon glyphicon-pencil"></span>  Agregar usuario</span></button></a>\\r\\n            <a href="\', escape=False)\nresponse.write(URL(\'admin\', \'modificarUsuario\'))\nresponse.write(\'"><button class="accordion2" id="edit"><span class="glyphicon glyphicon-pencil"></span>  Modificar usuario</span></button></a>\\r\\n            </div>\\r\\n            <button class="accordion">Gestion de instituciones<span class="caret"></span></button>\\r\\n            <div class="panel">\\r\\n            <a href="\', escape=False)\nresponse.write(URL(\'admin\', \'cargarInstitucionManual\'))\nresponse.write(\'"><button class="accordion2" id="inst"><span class="glyphicon glyphicon-pencil"></span>  Agregar institucion</span></button></a>\\r\\n            <a href="\', escape=False)\nresponse.write(URL(\'admin\', \'modificarInstitucion\'))\nresponse.write(\'"><button class="accordion2" id="deleteInst"><span class="glyphicon glyphicon-pencil"></span>  Modificar institucion</span></button></a>\\r\\n            </div>\\r\\n            <button class="accordion">Sistema<span class="caret"></span></button>\\r\\n            <div class="panel">\\r\\n            <a href="\', escape=False)\nresponse.write(URL(\'admin\', \'consultar\'))\nresponse.write(\'"><button class="accordion2" id="lookfor"><span class="glyphicon glyphicon-pencil"></span>  Consultar</span></button></a>\\r\\n            <a href="\', escape=False)\nresponse.write(URL(\'admin\', \'reporte\'))\nresponse.write(\'"><button class="accordion2" id="comp"><span class="glyphicon glyphicon-pencil"></span>  Generar comprobante</span></button></a>\\r\\n            </div>\\r\\n            <a href="\', escape=False)\nresponse.write(URL(\'admin\', \'cargarArchivo\'))\nresponse.write(\'"><button class="accordion2" id="upload">Cargar archivo</button></a>\\r\\n            <a href="\', escape=False)\nresponse.write(URL(\'admin\', \'agregarCohorte\'))\nresponse.write(\'"><button class="accordion2" id="cohor">Agregar cohorte</button></a>\\r\\n             <button class="accordion">Otros<span class="caret"></span></button>\\r\\n            <div class="panel">\\r\\n            <a href="\', escape=False)\nresponse.write(URL(\'admin\', \'perfil\'))\nresponse.write(\'"><button class="accordion2" id="perfil"><span class="glyphicon glyphicon-pencil"></span>  Perfil</button></a>\\r\\n            <a href="\', escape=False)\nresponse.write(URL(\'admin\', \'noticias\'))\nresponse.write(\'" id="adminNoticias"><button class="accordion2" id="news"><span class="glyphicon glyphicon-pencil"></span>  Noticias</button></a>\\r\\n            <a href="\', escape=False)\nresponse.write(URL(\'admin\', \'adminEnviarEmail\'))\nresponse.write(\'"><button class="accordion2" id="contacto"><span class="glyphicon glyphicon-pencil"></span>  Correo masivo</button></a>\\r\\n            <a href="\', escape=False)\nresponse.write(URL(\'admin\', \'cambioContrasena\'))\nresponse.write(\'"><button class="accordion2" id="pass"><span class="glyphicon glyphicon-pencil"></span>  Cambiar contrase\\xc3\\xb1a</button></a>\\r\\n            </div>\\r\\n            <a href="\', escape=False)\nresponse.write(URL(\'default\', \'user\', args=\'logout\'))\nresponse.write(\'" id="logOut"> <button class="accordion2">Salir</button></a>\\r\\n       </div>\\r\\n      \\r\\n        \\r\\n    </div>\', escape=False)\nresponse.write(\'\\r\\n                <div class="col-md-9">\\r\\n                        <form enctype="multipart/form-data" method="post" >\\r\\n                        <input name="_formname" type="hidden" value="formularioAgregarManual">\\r\\n                                <legend><h2>Agregar usuarios al Sistema PIO</h2></legend>\\r\\n                                    <div class="form-group" id="tipo">\\r\\n                                        <p class="textCoor">Seleccione el tipo de usuario a cargar:</p>\\r\\n                                        <div class="radio">\\r\\n                                                <label class="textCoor"><input id="cargarEstudiante" type="radio" name="tipoUsuario" value="estudiante" checked>Estudiante</label>\\r\\n                                        </div>\\r\\n                                        <div class="radio">\\r\\n                                                  <label class="textCoor"><input id="cargarProfesor" type="radio" name="tipoUsuario" value="profesor">Profesor</label>\\r\\n                                        </div>\\r\\n                                        <div class="radio">\\r\\n                                                  <label class="textCoor"><input id="cargarLiceo" type="radio" name="tipoUsuario" value="representanteLiceo">Representante liceo</label>\\r\\n                                        </div>\\r\\n                                        <div class="radio">\\r\\n                                                  <label class="textCoor"><input id="cargarSede" type="radio" name="tipoUsuario" value="representanteSede">Representante sede</label>\\r\\n                                        </div>\\r\\n                                        <div class="radio">\\r\\n                                                  <label class="textCoor"><input id="cargarAdmin" type="radio" name="tipoUsuario" value="admin">Administrador</label>\\r\\n                                        </div>\\r\\n                                    </div>\\r\\n                        \\r\\n                            <div id="manualAgregar">\\r\\n                                <legend>Datos personales</legend>\\r\\n                            <!-- Person ID -->\\r\\n                                <label for="cedula">Cedula de identidad<font color="red">*</font>: </label>\\r\\n                                <input class="form-control" type="text" id="cedula" name="cedula" placeholder="Ex: 1234567"\\r\\n                                pattern="[0-9]*" required\\r\\n                                required oninvalid="this.setCustomValidity(\\\'Las cedulas solo contienen numeros\\\')" oninput="setCustomValidity(\\\'\\\')"> <br>\\r\\n                            <!-- Person name -->\\r\\n                                <label for="name">Nombres<font color="red">*</font>: </label>\\r\\n                                <input class="form-control" type="text" id="name" name="nombres" placeholder="Nombre(s)" \\r\\n                                pattern="([a-zA-Z\\xc3\\xb1\\xc3\\x91\\xc3\\xa1\\xc3\\xa9\\xc3\\xad\\xc3\\xb3\\xc3\\xba\\xc3\\x81\\xc3\\x89\\xc3\\x8d\\xc3\\x93\\xc3\\x9a\\\\s]+[\\\\s-]?[a-zA-Z\\xc3\\xb1\\xc3\\x91\\xc3\\xa1\\xc3\\xa9\\xc3\\xad\\xc3\\xb3\\xc3\\xba\\xc3\\x81\\xc3\\x89\\xc3\\x8d\\xc3\\x93\\xc3\\x9a\\\\s]*)*" \\r\\n                                required oninvalid="this.setCustomValidity(\\\'Los nombres solo pueden contener caracteres del espa\\xc3\\xb1ol\\\')" oninput="setCustomValidity(\\\'\\\')"> <br> <!--  oninvalid="this.setCustomValidity(\\\'Los nombres solo pueden contener letras\\\')" oninput="setCustomValidity(\\\'\\\')" -->\\r\\n                            <!-- Person last name -->\\r\\n                                <label for="apellido">Apellidos<font color="red">*</font>: </label>\\r\\n                                <input class="form-control" type="text" id="apellido" name="apellidos" placeholder="Apellidos"\\r\\n                                pattern="([a-zA-Z\\xc3\\xb1\\xc3\\x91\\xc3\\xa1\\xc3\\xa9\\xc3\\xad\\xc3\\xb3\\xc3\\xba\\xc3\\x81\\xc3\\x89\\xc3\\x8d\\xc3\\x93\\xc3\\x9a\\\\s]+[\\\\s-]?[a-zA-Z\\xc3\\xb1\\xc3\\x91\\xc3\\xa1\\xc3\\xa9\\xc3\\xad\\xc3\\xb3\\xc3\\xba\\xc3\\x81\\xc3\\x89\\xc3\\x8d\\xc3\\x93\\xc3\\x9a\\\\s]*)*" required\\r\\n                                required oninvalid="this.setCustomValidity(\\\'Los apellidos solo pueden contener caracteres del espa\\xc3\\xb1ol\\\')" oninput="setCustomValidity(\\\'\\\')"> <br>\\r\\n                            <!-- Liceo procedencia-->\\r\\n                            <div id="manualLiceo">\\r\\n                                <label for="liceoProcedencia" >Liceo de procedencia<font color="red">*</font>: </label>\\r\\n                                <select class="select-style form-control"  name="liceo" id="liceoProcedencia" required>\\r\\n                                <option  disable>Seleccione uno</option>\\r\\n                                \', escape=False)\nfor i in liceos:\n    response.write(\'\\r\\n                                    <option value="\', escape=False)\n    response.write(i.nombre)\n    response.write(\'" >\', escape=False)\n    response.write(i.nombre)\n    response.write(\'</option>\\r\\n                                \', escape=False)\n    pass\nresponse.write(\'\\r\\n                                </select>\\r\\n                                <br>\\r\\n                            </div>\\r\\n                            <!-- sede procedencia-->\\r\\n                            <div id="manualSede">\\r\\n                                <label for="sede" >Sede de procedencia<font color="red">*</font>: </label>\\r\\n                                <select class="select-style form-control" id="sede" name="sede" required>\\r\\n                                    <option value=" " disabled selected>Seleccione uno</option>\\r\\n                                    \', escape=False)\nfor i in sedes:\n    response.write(\'\\r\\n                                    <option value="\', escape=False)\n    response.write(i.zona)\n    response.write(\'" >\', escape=False)\n    response.write(i.zona)\n    response.write(\'</option>\\r\\n                                    \', escape=False)\n    pass\nresponse.write(\'\\r\\n                                </select>\\r\\n                                <br>\\r\\n                            </div>\\r\\n                            <!-- Person average-->\\r\\n                            <div id="manualPromedio">\\r\\n                                <label for="promedioEntero">Promedio<font color="red">*</font>:</label>\\r\\n                                <input type="number" min="0" max="20" step="1" value="0" id="promedioEntero" class="text-right form-control" id="PromedioEntero" name="PromedioEntero" required>\\r\\n                                <strong> .</strong>\\r\\n                                <input type="number" min="0" max="9" step="1" value="0" id="promedioDecimal" class="text-right form-control" name="PromedioDecimal" required>\\r\\n                                <br>\\r\\n                            </div>\\r\\n                            <!--Person email -->\\r\\n                            <div id="manualEmail">\\r\\n                                <label for="email">Email: </label>\\r\\n                                <input class="form-control" type="email" id="email" name="email" placeholder="Ex: correo@example.com"><br>\\r\\n                            </div>\\r\\n                            </div><!-- manual agregar-->\\r\\n\\r\\n                             <br>\\r\\n\\r\\n                             <div><font size="-2"> Los campos obligatorios estan marcados por <font color="red">*</font></font></div>\\r\\n                            \\r\\n                            <div class="save text-center"><input type="submit" class="btn btn-primary save" value="Agregar"></div>\\r\\n                      </form>\\r\\n                        </div>\\r\\n                    </div>\\r\\n                </div>\\r\\n            </div>\\r\\n                    \\r\\n    </div><!-- container-->            \\r\\n\', escape=False)\nresponse.write(\'\\r\\n <footer class="container-fluid footer">\\r\\n        <div class="row">\\r\\n            <p class="text-center minText">Universidad Simon Bolivar<br>Sartenejas, Baruta, Edo. Miranda - Apartado 89000 - Cable Unibolivar - Caracas Venezuela. Tel\\xc3\\xa9fono +58 0212-9063111.<br>\\r\\nDise\\xc3\\xb1ada y desarrollada por Software for the World</p>\\r\\n        </div>\\r\\n    </footer>\\r\\n</body>\\r\\n    <!-- jQuery (necessary for Bootstrap\\\'s JavaScript plugins) -->\\r\\n    <script src="https://ajax.googleapis.com/ajax/libs/jquery/1.12.4/jquery.min.js"></script>\\r\\n    <!-- Include all compiled plugins (below), or include individual files as needed -->\\r\\n    <script src="\', escape=False)\nresponse.write(URL(\'static\', \'js/bootstrap.min.js\'))\nresponse.write(\'"></script>\\r\\n    <script src="\', escape=False)\nresponse.write(URL(\'static\', \'js/Admin.js\'))\nresponse.write(\'"></script>\\r\\n    <script src="\', escape=False)\nresponse.write(URL(\'static\', \'js/web2py.js\'))\nresponse.write(\'"></script> \\r\\n    <!-- JQUERY-->\\r\\n\\r\\n</html>\\r\\n\', escape=False)'
p7
sS'snapshot'
p8
(dp9
S'exception'
p10
(dp11
S'__hash__'
p12
S"<method-wrapper '__hash__' of exceptions.NameError object>"
p13
sS'__setattr__'
p14
S"<method-wrapper '__setattr__' of exceptions.NameError object>"
p15
sS'__reduce_ex__'
p16
S'<built-in method __reduce_ex__ of exceptions.NameError object>'
p17
sS'__getslice__'
p18
S"<method-wrapper '__getslice__' of exceptions.NameError object>"
p19
sS'__getitem__'
p20
S"<method-wrapper '__getitem__' of exceptions.NameError object>"
p21
sS'__setstate__'
p22
S'<built-in method __setstate__ of exceptions.NameError object>'
p23
sS'__reduce__'
p24
S'<built-in method __reduce__ of exceptions.NameError object>'
p25
sS'__str__'
p26
S"<method-wrapper '__str__' of exceptions.NameError object>"
p27
sS'__format__'
p28
S'<built-in method __format__ of exceptions.NameError object>'
p29
sS'__getattribute__'
p30
S"<method-wrapper '__getattribute__' of exceptions.NameError object>"
p31
sS'__class__'
p32
S"<type 'exceptions.NameError'>"
p33
sS'__unicode__'
p34
S'<built-in method __unicode__ of exceptions.NameError object>'
p35
sS'__delattr__'
p36
S"<method-wrapper '__delattr__' of exceptions.NameError object>"
p37
sS'__subclasshook__'
p38
S'<built-in method __subclasshook__ of type object>'
p39
sS'__repr__'
p40
S"<method-wrapper '__repr__' of exceptions.NameError object>"
p41
sS'args'
p42
S'("name \'liceos\' is not defined",)'
p43
sS'__dict__'
p44
S'{}'
p45
sS'__sizeof__'
p46
S'<built-in method __sizeof__ of exceptions.NameError object>'
p47
sS'__doc__'
p48
S"'Name not found globally.'"
p49
sS'__init__'
p50
S"<method-wrapper '__init__' of exceptions.NameError object>"
p51
sS'__new__'
p52
S'<built-in method __new__ of type object>'
p53
ssS'evalue'
p54
S"name 'liceos' is not defined"
p55
sS'request'
p56
cgluon.html
XML_unpickle
p57
(S's\x93j\x00\x00<div><table><tr><td style="font-weight:bold;vertical-align:top;">ajax</td><td style="vertical-align:top;">:</td><td><div>False</div></td></tr><tr><td style="font-weight:bold;vertical-align:top;">application</td><td style="vertical-align:top;">:</td><td><div>SisPIO</div></td></tr><tr><td style="font-weight:bold;vertical-align:top;">args</td><td style="vertical-align:top;">:</td><td><div><table></table></div></td></tr><tr><td style="font-weight:bold;vertical-align:top;">cid</td><td style="vertical-align:top;">:</td><td><div>None</div></td></tr><tr><td style="font-weight:bold;vertical-align:top;">client</td><td style="vertical-align:top;">:</td><td><div>127.0.0.1</div></td></tr><tr><td style="font-weight:bold;vertical-align:top;">controller</td><td style="vertical-align:top;">:</td><td><div>admin</div></td></tr><tr><td style="font-weight:bold;vertical-align:top;">cookies</td><td style="vertical-align:top;">:</td><td><div><table><tr><td style="font-weight:bold;vertical-align:top;">csrftoken</td><td style="vertical-align:top;">:</td><td><div>bAvrbJoJOHwdYd0Nhgcf7V7XLRCS3LThhnaIkAjMzM90R1ZK6PwGseUwcePnaB0I<table><tr><td style="font-weight:bold;vertical-align:top;">comment</td><td style="vertical-align:top;">:</td><td><div></div></td></tr><tr><td style="font-weight:bold;vertical-align:top;">domain</td><td style="vertical-align:top;">:</td><td><div></div></td></tr><tr><td style="font-weight:bold;vertical-align:top;">expires</td><td style="vertical-align:top;">:</td><td><div></div></td></tr><tr><td style="font-weight:bold;vertical-align:top;">httponly</td><td style="vertical-align:top;">:</td><td><div></div></td></tr><tr><td style="font-weight:bold;vertical-align:top;">max-age</td><td style="vertical-align:top;">:</td><td><div></div></td></tr><tr><td style="font-weight:bold;vertical-align:top;">path</td><td style="vertical-align:top;">:</td><td><div></div></td></tr><tr><td style="font-weight:bold;vertical-align:top;">secure</td><td style="vertical-align:top;">:</td><td><div></div></td></tr><tr><td style="font-weight:bold;vertical-align:top;">version</td><td style="vertical-align:top;">:</td><td><div></div></td></tr></table></div></td></tr><tr><td style="font-weight:bold;vertical-align:top;">session_id_admin</td><td style="vertical-align:top;">:</td><td><div>127.0.0.1-fda78d23-b6b8-4333-ac01-6059d72f778d<table><tr><td style="font-weight:bold;vertical-align:top;">comment</td><td style="vertical-align:top;">:</td><td><div></div></td></tr><tr><td style="font-weight:bold;vertical-align:top;">domain</td><td style="vertical-align:top;">:</td><td><div></div></td></tr><tr><td style="font-weight:bold;vertical-align:top;">expires</td><td style="vertical-align:top;">:</td><td><div></div></td></tr><tr><td style="font-weight:bold;vertical-align:top;">httponly</td><td style="vertical-align:top;">:</td><td><div></div></td></tr><tr><td style="font-weight:bold;vertical-align:top;">max-age</td><td style="vertical-align:top;">:</td><td><div></div></td></tr><tr><td style="font-weight:bold;vertical-align:top;">path</td><td style="vertical-align:top;">:</td><td><div></div></td></tr><tr><td style="font-weight:bold;vertical-align:top;">secure</td><td style="vertical-align:top;">:</td><td><div></div></td></tr><tr><td style="font-weight:bold;vertical-align:top;">version</td><td style="vertical-align:top;">:</td><td><div></div></td></tr></table></div></td></tr><tr><td style="font-weight:bold;vertical-align:top;">session_id_sispio</td><td style="vertical-align:top;">:</td><td><div>127.0.0.1-41f9f658-cf08-4ce8-8f67-b4d0fbed09e0<table><tr><td style="font-weight:bold;vertical-align:top;">comment</td><td style="vertical-align:top;">:</td><td><div></div></td></tr><tr><td style="font-weight:bold;vertical-align:top;">domain</td><td style="vertical-align:top;">:</td><td><div></div></td></tr><tr><td style="font-weight:bold;vertical-align:top;">expires</td><td style="vertical-align:top;">:</td><td><div></div></td></tr><tr><td style="font-weight:bold;vertical-align:top;">httponly</td><td style="vertical-align:top;">:</td><td><div></div></td></tr><tr><td style="font-weight:bold;vertical-align:top;">max-age</td><td style="vertical-align:top;">:</td><td><div></div></td></tr><tr><td style="font-weight:bold;vertical-align:top;">path</td><td style="vertical-align:top;">:</td><td><div></div></td></tr><tr><td style="font-weight:bold;vertical-align:top;">secure</td><td style="vertical-align:top;">:</td><td><div></div></td></tr><tr><td style="font-weight:bold;vertical-align:top;">version</td><td style="vertical-align:top;">:</td><td><div></div></td></tr></table></div></td></tr><tr><td style="font-weight:bold;vertical-align:top;">session_id_welcome</td><td style="vertical-align:top;">:</td><td><div>127.0.0.1-8159f6bd-364f-4d49-aeda-c67702ce2261<table><tr><td style="font-weight:bold;vertical-align:top;">comment</td><td style="vertical-align:top;">:</td><td><div></div></td></tr><tr><td style="font-weight:bold;vertical-align:top;">domain</td><td style="vertical-align:top;">:</td><td><div></div></td></tr><tr><td style="font-weight:bold;vertical-align:top;">expires</td><td style="vertical-align:top;">:</td><td><div></div></td></tr><tr><td style="font-weight:bold;vertical-align:top;">httponly</td><td style="vertical-align:top;">:</td><td><div></div></td></tr><tr><td style="font-weight:bold;vertical-align:top;">max-age</td><td style="vertical-align:top;">:</td><td><div></div></td></tr><tr><td style="font-weight:bold;vertical-align:top;">path</td><td style="vertical-align:top;">:</td><td><div></div></td></tr><tr><td style="font-weight:bold;vertical-align:top;">secure</td><td style="vertical-align:top;">:</td><td><div></div></td></tr><tr><td style="font-weight:bold;vertical-align:top;">version</td><td style="vertical-align:top;">:</td><td><div></div></td></tr></table></div></td></tr><tr><td style="font-weight:bold;vertical-align:top;">sessionid</td><td style="vertical-align:top;">:</td><td><div>qxgksagtp8gt8s5gevxtxdk9c79rxz7l<table><tr><td style="font-weight:bold;vertical-align:top;">comment</td><td style="vertical-align:top;">:</td><td><div></div></td></tr><tr><td style="font-weight:bold;vertical-align:top;">domain</td><td style="vertical-align:top;">:</td><td><div></div></td></tr><tr><td style="font-weight:bold;vertical-align:top;">expires</td><td style="vertical-align:top;">:</td><td><div></div></td></tr><tr><td style="font-weight:bold;vertical-align:top;">httponly</td><td style="vertical-align:top;">:</td><td><div></div></td></tr><tr><td style="font-weight:bold;vertical-align:top;">max-age</td><td style="vertical-align:top;">:</td><td><div></div></td></tr><tr><td style="font-weight:bold;vertical-align:top;">path</td><td style="vertical-align:top;">:</td><td><div></div></td></tr><tr><td style="font-weight:bold;vertical-align:top;">secure</td><td style="vertical-align:top;">:</td><td><div></div></td></tr><tr><td style="font-weight:bold;vertical-align:top;">version</td><td style="vertical-align:top;">:</td><td><div></div></td></tr></table></div></td></tr></table></div></td></tr><tr><td style="font-weight:bold;vertical-align:top;">env</td><td style="vertical-align:top;">:</td><td><div><table><tr><td style="font-weight:bold;vertical-align:top;">HTTP_ACCEPT</td><td style="vertical-align:top;">:</td><td><div>text/html,application/xhtml+xml,application/xml;q=0.9,image/webp,image/apng,*/*;q=0.8</div></td></tr><tr><td style="font-weight:bold;vertical-align:top;">HTTP_ACCEPT_ENCODING</td><td style="vertical-align:top;">:</td><td><div>gzip, deflate, br</div></td></tr><tr><td style="font-weight:bold;vertical-align:top;">HTTP_ACCEPT_LANGUAGE</td><td style="vertical-align:top;">:</td><td><div>en-US,en;q=0.8,es;q=0.6</div></td></tr><tr><td style="font-weight:bold;vertical-align:top;">HTTP_CACHE_CONTROL</td><td style="vertical-align:top;">:</td><td><div>max-age=0</div></td></tr><tr><td style="font-weight:bold;vertical-align:top;">HTTP_CONNECTION</td><td style="vertical-align:top;">:</td><td><div>keep-alive</div></td></tr><tr><td style="font-weight:bold;vertical-align:top;">HTTP_COOKIE</td><td style="vertical-align:top;">:</td><td><div>sessionid=qxgksagtp8gt8s5gevxtxdk9c79rxz7l; csrftoken=bAvrbJoJOHwdYd0Nhgcf7V7XLRCS3LThhnaIkAjMzM90R1ZK6PwGseUwcePnaB0I; session_id_welcome=127.0.0.1-8159f6bd-364f-4d49-aeda-c67702ce2261; session_id_admin=127.0.0.1-fda78d23-b6b8-4333-ac01-6059d72f778d; session_id_sispio=127.0.0.1-41f9f658-cf08-4ce8-8f67-b4d0fbed09e0</div></td></tr><tr><td style="font-weight:bold;vertical-align:top;">HTTP_HOST</td><td style="vertical-align:top;">:</td><td><div>127.0.0.1:8000</div></td></tr><tr><td style="font-weight:bold;vertical-align:top;">HTTP_REFERER</td><td style="vertical-align:top;">:</td><td><div>http://127.0.0.1:8000/SisPIO/admin/modificarUsuario</div></td></tr><tr><td style="font-weight:bold;vertical-align:top;">HTTP_UPGRADE_INSECURE_REQUESTS</td><td style="vertical-align:top;">:</td><td><div>1</div></td></tr><tr><td style="font-weight:bold;vertical-align:top;">HTTP_USER_AGENT</td><td style="vertical-align:top;">:</td><td><div>Mozilla/5.0 (Windows NT 10.0; Win64; x64) AppleWebKit/537.36 (KHTML, like Gecko) Chrome/61.0.3163.100 Safari/537.36</div></td></tr><tr><td style="font-weight:bold;vertical-align:top;">PATH_INFO</td><td style="vertical-align:top;">:</td><td><div>/SisPIO/admin/modificarRepresentanteLiceo</div></td></tr><tr><td style="font-weight:bold;vertical-align:top;">QUERY_STRING</td><td style="vertical-align:top;">:</td><td><div></div></td></tr><tr><td style="font-weight:bold;vertical-align:top;">REMOTE_ADDR</td><td style="vertical-align:top;">:</td><td><div>127.0.0.1</div></td></tr><tr><td style="font-weight:bold;vertical-align:top;">REMOTE_PORT</td><td style="vertical-align:top;">:</td><td><div>50744</div></td></tr><tr><td style="font-weight:bold;vertical-align:top;">REQUEST_METHOD</td><td style="vertical-align:top;">:</td><td><div>GET</div></td></tr><tr><td style="font-weight:bold;vertical-align:top;">SCRIPT_NAME</td><td style="vertical-align:top;">:</td><td><div></div></td></tr><tr><td style="font-weight:bold;vertical-align:top;">SERVER_NAME</td><td style="vertical-align:top;">:</td><td><div>DESKTOP-FLGPCSQ</div></td></tr><tr><td style="font-weight:bold;vertical-align:top;">SERVER_PORT</td><td style="vertical-align:top;">:</td><td><div>8000</div></td></tr><tr><td style="font-weight:bold;vertical-align:top;">SERVER_PROTOCOL</td><td style="vertical-align:top;">:</td><td><div>HTTP/1.1</div></td></tr><tr><td style="font-weight:bold;vertical-align:top;">SERVER_SOFTWARE</td><td style="vertical-align:top;">:</td><td><div>Rocket 1.2.6</div></td></tr><tr><td style="font-weight:bold;vertical-align:top;">app_folders</td><td style="vertical-align:top;">:</td><td><div>set([&#x27;C:\\\\Users\\\\capf9\\\\Desktop\\\\University\\\\web2py_win\\\\web2py\\\\applications\\\\welcome\\\\&#x27;, &#x27;C:\\\\Users\\\\capf9\\\\Desktop\\\\University\\\\web2py_win\\\\web2py\\\\applications\\\\admin\\\\&#x27;, &#x27;C:\\\\Users\\\\capf9\\\\Desktop\\\\University\\\\web2py_win\\\\web2py\\\\applications\\\\SisPIO\\\\&#x27;])</div></td></tr><tr><td style="font-weight:bold;vertical-align:top;">applications_parent</td><td style="vertical-align:top;">:</td><td><div>C:\\Users\\capf9\\Desktop\\University\\web2py_win\\web2py</div></td></tr><tr><td style="font-weight:bold;vertical-align:top;">cmd_args</td><td style="vertical-align:top;">:</td><td><div><table></table></div></td></tr><tr><td style="font-weight:bold;vertical-align:top;">cmd_options</td><td style="vertical-align:top;">:</td><td><div>&lt;Values at 0x399ad50: {&#x27;verbose&#x27;: False, &#x27;ip&#x27;: &#x27;127.0.0.1&#x27;, &#x27;debuglevel&#x27;: 30, &#x27;with_scheduler&#x27;: False, &#x27;shutdown_timeout&#x27;: 5, &#x27;taskbar&#x27;: False, &#x27;with_coverage&#x27;: False, &#x27;pid_filename&#x27;: &#x27;httpserver.pid&#x27;, &#x27;maxthreads&#x27;: None, &#x27;softcron&#x27;: False, &#x27;server_name&#x27;: &#x27;DESKTOP-FLGPCSQ&#x27;, &#x27;bpython&#x27;: False, &#x27;nogui&#x27;: False, &#x27;port&#x27;: 8000, &#x27;print_errors&#x27;: False, &#x27;extcron&#x27;: False, &#x27;runcron&#x27;: False, &#x27;run_system_tests&#x27;: False, &#x27;test&#x27;: None, &#x27;folder&#x27;: &#x27;C:\\\\Users\\\\capf9\\\\Desktop\\\\University\\\\web2py_win\\\\web2py&#x27;, &#x27;config&#x27;: &#x27;&#x27;, &#x27;minthreads&#x27;: None, &#x27;shell&#x27;: None, &#x27;run&#x27;: &#x27;&#x27;, &#x27;log_filename&#x27;: &#x27;httpserver.log&#x27;, &#x27;profiler_dir&#x27;: None, &#x27;args&#x27;: [&#x27;&#x27;], &#x27;socket_timeout&#x27;: 5, &#x27;ssl_ca_certificate&#x27;: None, &#x27;scheduler&#x27;: None, &#x27;interfaces&#x27;: None, &#x27;ssl_private_key&#x27;: &#x27;&#x27;, &#x27;gae&#x27;: None, &#x27;password&#x27;: &#x27;******&#x27;, &#x27;request_queue_size&#x27;: 5, &#x27;ssl_certificate&#x27;: &#x27;&#x27;, &#x27;cronjob&#x27;: False, &#x27;numthreads&#x27;: None, &#x27;quiet&#x27;: False, &#x27;import_models&#x27;: False, &#x27;timeout&#x27;: 10, &#x27;plain&#x27;: False, &#x27;nobanner&#x27;: False}&gt;</div></td></tr><tr><td style="font-weight:bold;vertical-align:top;">db_sessions</td><td style="vertical-align:top;">:</td><td><div>set([])</div></td></tr><tr><td style="font-weight:bold;vertical-align:top;">debugging</td><td style="vertical-align:top;">:</td><td><div>False</div></td></tr><tr><td style="font-weight:bold;vertical-align:top;">gluon_parent</td><td style="vertical-align:top;">:</td><td><div>C:\\Users\\capf9\\Desktop\\University\\web2py_win\\web2py</div></td></tr><tr><td style="font-weight:bold;vertical-align:top;">http_accept</td><td style="vertical-align:top;">:</td><td><div>text/html,application/xhtml+xml,application/xml;q=0.9,image/webp,image/apng,*/*;q=0.8</div></td></tr><tr><td style="font-weight:bold;vertical-align:top;">http_accept_encoding</td><td style="vertical-align:top;">:</td><td><div>gzip, deflate, br</div></td></tr><tr><td style="font-weight:bold;vertical-align:top;">http_accept_language</td><td style="vertical-align:top;">:</td><td><div>en-US,en;q=0.8,es;q=0.6</div></td></tr><tr><td style="font-weight:bold;vertical-align:top;">http_cache_control</td><td style="vertical-align:top;">:</td><td><div>max-age=0</div></td></tr><tr><td style="font-weight:bold;vertical-align:top;">http_connection</td><td style="vertical-align:top;">:</td><td><div>keep-alive</div></td></tr><tr><td style="font-weight:bold;vertical-align:top;">http_cookie</td><td style="vertical-align:top;">:</td><td><div>sessionid=qxgksagtp8gt8s5gevxtxdk9c79rxz7l; csrftoken=bAvrbJoJOHwdYd0Nhgcf7V7XLRCS3LThhnaIkAjMzM90R1ZK6PwGseUwcePnaB0I; session_id_welcome=127.0.0.1-8159f6bd-364f-4d49-aeda-c67702ce2261; session_id_admin=127.0.0.1-fda78d23-b6b8-4333-ac01-6059d72f778d; session_id_sispio=127.0.0.1-41f9f658-cf08-4ce8-8f67-b4d0fbed09e0</div></td></tr><tr><td style="font-weight:bold;vertical-align:top;">http_host</td><td style="vertical-align:top;">:</td><td><div>127.0.0.1:8000</div></td></tr><tr><td style="font-weight:bold;vertical-align:top;">http_referer</td><td style="vertical-align:top;">:</td><td><div>http://127.0.0.1:8000/SisPIO/admin/modificarUsuario</div></td></tr><tr><td style="font-weight:bold;vertical-align:top;">http_upgrade_insecure_requests</td><td style="vertical-align:top;">:</td><td><div>1</div></td></tr><tr><td style="font-weight:bold;vertical-align:top;">http_user_agent</td><td style="vertical-align:top;">:</td><td><div>Mozilla/5.0 (Windows NT 10.0; Win64; x64) AppleWebKit/537.36 (KHTML, like Gecko) Chrome/61.0.3163.100 Safari/537.36</div></td></tr><tr><td style="font-weight:bold;vertical-align:top;">is_jython</td><td style="vertical-align:top;">:</td><td><div>False</div></td></tr><tr><td style="font-weight:bold;vertical-align:top;">is_pypy</td><td style="vertical-align:top;">:</td><td><div>False</div></td></tr><tr><td style="font-weight:bold;vertical-align:top;">is_source</td><td style="vertical-align:top;">:</td><td><div>False</div></td></tr><tr><td style="font-weight:bold;vertical-align:top;">local_hosts</td><td style="vertical-align:top;">:</td><td><div><table><tr><td><div>fe80::24e9:90e:41db:1a82%11</div></td></tr><tr><td><div>2001:0:9d38:6abd:24e9:90e:41db:1a82</div></td></tr><tr><td><div>::ffff:127.0.0.1</div></td></tr><tr><td><div>::1</div></td></tr><tr><td><div>192.168.1.3</div></td></tr><tr><td><div>127.0.0.1</div></td></tr><tr><td><div>DESKTOP-FLGPCSQ</div></td></tr><tr><td><div>fe80::31f0:99b4:d6f4:33e6%9</div></td></tr></table></div></td></tr><tr><td style="font-weight:bold;vertical-align:top;">path_info</td><td style="vertical-align:top;">:</td><td><div>/SisPIO/admin/modificarRepresentanteLiceo</div></td></tr><tr><td style="font-weight:bold;vertical-align:top;">query_string</td><td style="vertical-align:top;">:</td><td><div></div></td></tr><tr><td style="font-weight:bold;vertical-align:top;">remote_addr</td><td style="vertical-align:top;">:</td><td><div>127.0.0.1</div></td></tr><tr><td style="font-weight:bold;vertical-align:top;">remote_port</td><td style="vertical-align:top;">:</td><td><div>50744</div></td></tr><tr><td style="font-weight:bold;vertical-align:top;">request_method</td><td style="vertical-align:top;">:</td><td><div>GET</div></td></tr><tr><td style="font-weight:bold;vertical-align:top;">request_uri</td><td style="vertical-align:top;">:</td><td><div>/SisPIO/admin/modificarRepresentanteLiceo</div></td></tr><tr><td style="font-weight:bold;vertical-align:top;">script_name</td><td style="vertical-align:top;">:</td><td><div></div></td></tr><tr><td style="font-weight:bold;vertical-align:top;">server_name</td><td style="vertical-align:top;">:</td><td><div>DESKTOP-FLGPCSQ</div></td></tr><tr><td style="font-weight:bold;vertical-align:top;">server_port</td><td style="vertical-align:top;">:</td><td><div>8000</div></td></tr><tr><td style="font-weight:bold;vertical-align:top;">server_protocol</td><td style="vertical-align:top;">:</td><td><div>HTTP/1.1</div></td></tr><tr><td style="font-weight:bold;vertical-align:top;">server_software</td><td style="vertical-align:top;">:</td><td><div>Rocket 1.2.6</div></td></tr><tr><td style="font-weight:bold;vertical-align:top;">web2py_path</td><td style="vertical-align:top;">:</td><td><div>C:\\Users\\capf9\\Desktop\\University\\web2py_win\\web2py</div></td></tr><tr><td style="font-weight:bold;vertical-align:top;">web2py_version</td><td style="vertical-align:top;">:</td><td><div>2.14.6-stable+timestamp.2016.05.10.00.21.47</div></td></tr><tr><td style="font-weight:bold;vertical-align:top;">wsgi.errors</td><td style="vertical-align:top;">:</td><td><div>&lt;open file &#x27;&lt;stderr&gt;&#x27;, mode &#x27;w&#x27; at 0x01F0D0D0&gt;</div></td></tr><tr><td style="font-weight:bold;vertical-align:top;">wsgi.file_wrapper</td><td style="vertical-align:top;">:</td><td><div>&lt;class wsgiref.util.FileWrapper at 0x03959030&gt;</div></td></tr><tr><td style="font-weight:bold;vertical-align:top;">wsgi.input</td><td style="vertical-align:top;">:</td><td><div>&lt;socket._fileobject object at 0x08CD04F0&gt;</div></td></tr><tr><td style="font-weight:bold;vertical-align:top;">wsgi.multiprocess</td><td style="vertical-align:top;">:</td><td><div>False</div></td></tr><tr><td style="font-weight:bold;vertical-align:top;">wsgi.multithread</td><td style="vertical-align:top;">:</td><td><div>True</div></td></tr><tr><td style="font-weight:bold;vertical-align:top;">wsgi.run_once</td><td style="vertical-align:top;">:</td><td><div>False</div></td></tr><tr><td style="font-weight:bold;vertical-align:top;">wsgi.url_scheme</td><td style="vertical-align:top;">:</td><td><div>http</div></td></tr><tr><td style="font-weight:bold;vertical-align:top;">wsgi.version</td><td style="vertical-align:top;">:</td><td><div><table><tr><td><div>1</div></td></tr><tr><td><div>0</div></td></tr></table></div></td></tr><tr><td style="font-weight:bold;vertical-align:top;">wsgi_errors</td><td style="vertical-align:top;">:</td><td><div>&lt;open file &#x27;&lt;stderr&gt;&#x27;, mode &#x27;w&#x27; at 0x01F0D0D0&gt;</div></td></tr><tr><td style="font-weight:bold;vertical-align:top;">wsgi_file_wrapper</td><td style="vertical-align:top;">:</td><td><div>&lt;class wsgiref.util.FileWrapper at 0x03959030&gt;</div></td></tr><tr><td style="font-weight:bold;vertical-align:top;">wsgi_input</td><td style="vertical-align:top;">:</td><td><div>&lt;socket._fileobject object at 0x08CD04F0&gt;</div></td></tr><tr><td style="font-weight:bold;vertical-align:top;">wsgi_multiprocess</td><td style="vertical-align:top;">:</td><td><div>False</div></td></tr><tr><td style="font-weight:bold;vertical-align:top;">wsgi_multithread</td><td style="vertical-align:top;">:</td><td><div>True</div></td></tr><tr><td style="font-weight:bold;vertical-align:top;">wsgi_run_once</td><td style="vertical-align:top;">:</td><td><div>False</div></td></tr><tr><td style="font-weight:bold;vertical-align:top;">wsgi_url_scheme</td><td style="vertical-align:top;">:</td><td><div>http</div></td></tr><tr><td style="font-weight:bold;vertical-align:top;">wsgi_version</td><td style="vertical-align:top;">:</td><td><div><table><tr><td><div>1</div></td></tr><tr><td><div>0</div></td></tr></table></div></td></tr></table></div></td></tr><tr><td style="font-weight:bold;vertical-align:top;">extension</td><td style="vertical-align:top;">:</td><td><div>html</div></td></tr><tr><td style="font-weight:bold;vertical-align:top;">folder</td><td style="vertical-align:top;">:</td><td><div>C:\\Users\\capf9\\Desktop\\University\\web2py_win\\web2py\\applications\\SisPIO\\</div></td></tr><tr><td style="font-weight:bold;vertical-align:top;">function</td><td style="vertical-align:top;">:</td><td><div>modificarRepresentanteLiceo</div></td></tr><tr><td style="font-weight:bold;vertical-align:top;">global_settings</td><td style="vertical-align:top;">:</td><td><div><table><tr><td style="font-weight:bold;vertical-align:top;">app_folders</td><td style="vertical-align:top;">:</td><td><div>set([&#x27;C:\\\\Users\\\\capf9\\\\Desktop\\\\University\\\\web2py_win\\\\web2py\\\\applications\\\\welcome\\\\&#x27;, &#x27;C:\\\\Users\\\\capf9\\\\Desktop\\\\University\\\\web2py_win\\\\web2py\\\\applications\\\\admin\\\\&#x27;, &#x27;C:\\\\Users\\\\capf9\\\\Desktop\\\\University\\\\web2py_win\\\\web2py\\\\applications\\\\SisPIO\\\\&#x27;])</div></td></tr><tr><td style="font-weight:bold;vertical-align:top;">applications_parent</td><td style="vertical-align:top;">:</td><td><div>C:\\Users\\capf9\\Desktop\\University\\web2py_win\\web2py</div></td></tr><tr><td style="font-weight:bold;vertical-align:top;">cmd_args</td><td style="vertical-align:top;">:</td><td><div><table></table></div></td></tr><tr><td style="font-weight:bold;vertical-align:top;">cmd_options</td><td style="vertical-align:top;">:</td><td><div>&lt;Values at 0x399ad50: {&#x27;verbose&#x27;: False, &#x27;ip&#x27;: &#x27;127.0.0.1&#x27;, &#x27;debuglevel&#x27;: 30, &#x27;with_scheduler&#x27;: False, &#x27;shutdown_timeout&#x27;: 5, &#x27;taskbar&#x27;: False, &#x27;with_coverage&#x27;: False, &#x27;pid_filename&#x27;: &#x27;httpserver.pid&#x27;, &#x27;maxthreads&#x27;: None, &#x27;softcron&#x27;: False, &#x27;server_name&#x27;: &#x27;DESKTOP-FLGPCSQ&#x27;, &#x27;bpython&#x27;: False, &#x27;nogui&#x27;: False, &#x27;port&#x27;: 8000, &#x27;print_errors&#x27;: False, &#x27;extcron&#x27;: False, &#x27;runcron&#x27;: False, &#x27;run_system_tests&#x27;: False, &#x27;test&#x27;: None, &#x27;folder&#x27;: &#x27;C:\\\\Users\\\\capf9\\\\Desktop\\\\University\\\\web2py_win\\\\web2py&#x27;, &#x27;config&#x27;: &#x27;&#x27;, &#x27;minthreads&#x27;: None, &#x27;shell&#x27;: None, &#x27;run&#x27;: &#x27;&#x27;, &#x27;log_filename&#x27;: &#x27;httpserver.log&#x27;, &#x27;profiler_dir&#x27;: None, &#x27;args&#x27;: [&#x27;&#x27;], &#x27;socket_timeout&#x27;: 5, &#x27;ssl_ca_certificate&#x27;: None, &#x27;scheduler&#x27;: None, &#x27;interfaces&#x27;: None, &#x27;ssl_private_key&#x27;: &#x27;&#x27;, &#x27;gae&#x27;: None, &#x27;password&#x27;: &#x27;******&#x27;, &#x27;request_queue_size&#x27;: 5, &#x27;ssl_certificate&#x27;: &#x27;&#x27;, &#x27;cronjob&#x27;: False, &#x27;numthreads&#x27;: None, &#x27;quiet&#x27;: False, &#x27;import_models&#x27;: False, &#x27;timeout&#x27;: 10, &#x27;plain&#x27;: False, &#x27;nobanner&#x27;: False}&gt;</div></td></tr><tr><td style="font-weight:bold;vertical-align:top;">db_sessions</td><td style="vertical-align:top;">:</td><td><div>set([])</div></td></tr><tr><td style="font-weight:bold;vertical-align:top;">debugging</td><td style="vertical-align:top;">:</td><td><div>False</div></td></tr><tr><td style="font-weight:bold;vertical-align:top;">gluon_parent</td><td style="vertical-align:top;">:</td><td><div>C:\\Users\\capf9\\Desktop\\University\\web2py_win\\web2py</div></td></tr><tr><td style="font-weight:bold;vertical-align:top;">is_jython</td><td style="vertical-align:top;">:</td><td><div>False</div></td></tr><tr><td style="font-weight:bold;vertical-align:top;">is_pypy</td><td style="vertical-align:top;">:</td><td><div>False</div></td></tr><tr><td style="font-weight:bold;vertical-align:top;">is_source</td><td style="vertical-align:top;">:</td><td><div>False</div></td></tr><tr><td style="font-weight:bold;vertical-align:top;">local_hosts</td><td style="vertical-align:top;">:</td><td><div><table><tr><td><div>fe80::24e9:90e:41db:1a82%11</div></td></tr><tr><td><div>2001:0:9d38:6abd:24e9:90e:41db:1a82</div></td></tr><tr><td><div>::ffff:127.0.0.1</div></td></tr><tr><td><div>::1</div></td></tr><tr><td><div>192.168.1.3</div></td></tr><tr><td><div>127.0.0.1</div></td></tr><tr><td><div>DESKTOP-FLGPCSQ</div></td></tr><tr><td><div>fe80::31f0:99b4:d6f4:33e6%9</div></td></tr></table></div></td></tr><tr><td style="font-weight:bold;vertical-align:top;">web2py_version</td><td style="vertical-align:top;">:</td><td><div>2.14.6-stable+timestamp.2016.05.10.00.21.47</div></td></tr></table></div></td></tr><tr><td style="font-weight:bold;vertical-align:top;">is_https</td><td style="vertical-align:top;">:</td><td><div>False</div></td></tr><tr><td style="font-weight:bold;vertical-align:top;">is_local</td><td style="vertical-align:top;">:</td><td><div>True</div></td></tr><tr><td style="font-weight:bold;vertical-align:top;">is_restful</td><td style="vertical-align:top;">:</td><td><div>False</div></td></tr><tr><td style="font-weight:bold;vertical-align:top;">is_scheduler</td><td style="vertical-align:top;">:</td><td><div>False</div></td></tr><tr><td style="font-weight:bold;vertical-align:top;">is_shell</td><td style="vertical-align:top;">:</td><td><div>False</div></td></tr><tr><td style="font-weight:bold;vertical-align:top;">now</td><td style="vertical-align:top;">:</td><td><div>datetime.datetime(2017, 11, 11, 21, 5, 16, 42000)</div></td></tr><tr><td style="font-weight:bold;vertical-align:top;">raw_args</td><td style="vertical-align:top;">:</td><td><div></div></td></tr><tr><td style="font-weight:bold;vertical-align:top;">raw_extension</td><td style="vertical-align:top;">:</td><td><div>None</div></td></tr><tr><td style="font-weight:bold;vertical-align:top;">url</td><td style="vertical-align:top;">:</td><td><div>/SisPIO/admin/modificarRepresentanteLiceo</div></td></tr><tr><td style="font-weight:bold;vertical-align:top;">utcnow</td><td style="vertical-align:top;">:</td><td><div>datetime.datetime(2017, 11, 12, 1, 5, 16, 42000)</div></td></tr><tr><td style="font-weight:bold;vertical-align:top;">wsgi</td><td style="vertical-align:top;">:</td><td><div>&lt;gluon.main.LazyWSGI object at 0x047FFFF0&gt;</div></td></tr></table></div>'
tRp58
sS'frames'
p59
(lp60
(dp61
S'file'
p62
S'C:\\Users\\capf9\\Desktop\\University\\web2py_win\\web2py\\gluon\\restricted.py'
p63
sS'dump'
p64
(dp65
S'environment'
p66
S"{'A': <class 'gluon.html.A'>, 'ANY_OF': <class 'gluon.validators.ANY_OF'>, 'ASSIGNJS': <function ASSIGNJS>, 'AppConfig': <function AppConfig>, 'Auth': <class 'gluon.tools.Auth'>, 'B': <class 'gluon.html.B'>, 'BEAUTIFY': <class 'gluon.html.BEAUTIFY'>, 'BODY': <class 'gluon.html.BODY'>, 'BR': <class 'gluon.html.BR'>, 'BUTTON': <class 'gluon.html.BUTTON'>, ...}"
p67
sS'ccode'
p68
S'<code object <module> at 04072C38, file "C:\\User...\\admin/modificarRepresentanteLiceo.html", line 1>'
p69
ssS'lnum'
p70
I227
sS'lines'
p71
(dp72
I224
S'            ccode = code'
p73
sI225
S'        else:'
p74
sI226
S'            ccode = compile2(code, layer)'
p75
sI227
S'        exec ccode in environment'
p76
sI228
S'    except HTTP:'
p77
sI229
S'        raise'
p78
sI230
S'    except RestrictedError:'
p79
sI231
S'        # do not encapsulate (obfuscate) the original RestrictedError'
p80
sI222
S'    try:'
p81
sI223
S'        if isinstance(code, types.CodeType):'
p82
ssS'call'
p83
S'(code=r"response.write(\'<!DOCTYPE html>\\r\\n\\r\\n<link hre...<!-- JQUERY-->\\r\\n\\r\\n</html>\\r\\n\', escape=False)", environment={\'A\': <class \'gluon.html.A\'>, \'ANY_OF\': <class \'gluon.validators.ANY_OF\'>, \'ASSIGNJS\': <function ASSIGNJS>, \'AppConfig\': <function AppConfig>, \'Auth\': <class \'gluon.tools.Auth\'>, \'B\': <class \'gluon.html.B\'>, \'BEAUTIFY\': <class \'gluon.html.BEAUTIFY\'>, \'BODY\': <class \'gluon.html.BODY\'>, \'BR\': <class \'gluon.html.BR\'>, \'BUTTON\': <class \'gluon.html.BUTTON\'>, ...}, layer=r\'C:\\Users\\capf9\\Desktop\\University\\web2py_win\\web...sPIO\\views\\admin/modificarRepresentanteLiceo.html\')'
p84
sS'func'
p85
S'restricted'
p86
sa(dp87
g62
S'C:\\Users\\capf9\\Desktop\\University\\web2py_win\\web2py\\applications\\SisPIO\\views\\admin\\modificarRepresentanteLiceo.html'
p88
sg64
(dp89
sg70
I58
sg71
(dp90
I64
S'    pass'
p91
sI65
S'response.write(\'\\r\\n                                </select>\\r\\n                                <br>\\r\\n                            </div>\\r\\n                            <!-- sede procedencia-->\\r\\n                            <div id="manualSede">\\r\\n                                <label for="sede" >Sede de procedencia<font color="red">*</font>: </label>\\r\\n                                <select class="select-style form-control" id="sede" name="sede" required>\\r\\n                                    <option value=" " disabled selected>Seleccione uno</option>\\r\\n                                    \', escape=False)'
p92
sI66
S'for i in sedes:'
p93
sI67
S'    response.write(\'\\r\\n                                    <option value="\', escape=False)'
p94
sI68
S'    response.write(i.zona)'
p95
sI49
S"response.write(URL('admin', 'noticias'))"
p96
sI50
S'response.write(\'" id="adminNoticias"><button class="accordion2" id="news"><span class="glyphicon glyphicon-pencil"></span>  Noticias</button></a>\\r\\n            <a href="\', escape=False)'
p97
sI51
S"response.write(URL('admin', 'adminEnviarEmail'))"
p98
sI52
S'response.write(\'"><button class="accordion2" id="contacto"><span class="glyphicon glyphicon-pencil"></span>  Correo masivo</button></a>\\r\\n            <a href="\', escape=False)'
p99
sI53
S"response.write(URL('admin', 'cambioContrasena'))"
p100
sI54
S'response.write(\'"><button class="accordion2" id="pass"><span class="glyphicon glyphicon-pencil"></span>  Cambiar contrase\\xc3\\xb1a</button></a>\\r\\n            </div>\\r\\n            <a href="\', escape=False)'
p101
sI55
S"response.write(URL('default', 'user', args='logout'))"
p102
sI56
S'response.write(\'" id="logOut"> <button class="accordion2">Salir</button></a>\\r\\n       </div>\\r\\n      \\r\\n        \\r\\n    </div>\', escape=False)'
p103
sI57
S'response.write(\'\\r\\n                <div class="col-md-9">\\r\\n                        <form enctype="multipart/form-data" method="post" >\\r\\n                        <input name="_formname" type="hidden" value="formularioAgregarManual">\\r\\n                                <legend><h2>Agregar usuarios al Sistema PIO</h2></legend>\\r\\n                                    <div class="form-group" id="tipo">\\r\\n                                        <p class="textCoor">Seleccione el tipo de usuario a cargar:</p>\\r\\n                                        <div class="radio">\\r\\n                                                <label class="textCoor"><input id="cargarEstudiante" type="radio" name="tipoUsuario" value="estudiante" checked>Estudiante</label>\\r\\n                                        </div>\\r\\n                                        <div class="radio">\\r\\n                                                  <label class="textCoor"><input id="cargarProfesor" type="radio" name="tipoUsuario" value="profesor">Profesor</label>\\r\\n                                        </div>\\r\\n                                        <div class="radio">\\r\\n                                                  <label class="textCoor"><input id="cargarLiceo" type="radio" name="tipoUsuario" value="representanteLiceo">Representante liceo</label>\\r\\n                                        </div>\\r\\n                                        <div class="radio">\\r\\n                                                  <label class="textCoor"><input id="cargarSede" type="radio" name="tipoUsuario" value="representanteSede">Representante sede</label>\\r\\n                                        </div>\\r\\n                                        <div class="radio">\\r\\n                                                  <label class="textCoor"><input id="cargarAdmin" type="radio" name="tipoUsuario" value="admin">Administrador</label>\\r\\n                                        </div>\\r\\n                                    </div>\\r\\n                        \\r\\n                            <div id="manualAgregar">\\r\\n                                <legend>Datos personales</legend>\\r\\n                            <!-- Person ID -->\\r\\n                                <label for="cedula">Cedula de identidad<font color="red">*</font>: </label>\\r\\n                                <input class="form-control" type="text" id="cedula" name="cedula" placeholder="Ex: 1234567"\\r\\n                                pattern="[0-9]*" required\\r\\n                                required oninvalid="this.setCustomValidity(\\\'Las cedulas solo contienen numeros\\\')" oninput="setCustomValidity(\\\'\\\')"> <br>\\r\\n                            <!-- Person name -->\\r\\n                                <label for="name">Nombres<font color="red">*</font>: </label>\\r\\n                                <input class="form-control" type="text" id="name" name="nombres" placeholder="Nombre(s)" \\r\\n                                pattern="([a-zA-Z\\xc3\\xb1\\xc3\\x91\\xc3\\xa1\\xc3\\xa9\\xc3\\xad\\xc3\\xb3\\xc3\\xba\\xc3\\x81\\xc3\\x89\\xc3\\x8d\\xc3\\x93\\xc3\\x9a\\\\s]+[\\\\s-]?[a-zA-Z\\xc3\\xb1\\xc3\\x91\\xc3\\xa1\\xc3\\xa9\\xc3\\xad\\xc3\\xb3\\xc3\\xba\\xc3\\x81\\xc3\\x89\\xc3\\x8d\\xc3\\x93\\xc3\\x9a\\\\s]*)*" \\r\\n                                required oninvalid="this.setCustomValidity(\\\'Los nombres solo pueden contener caracteres del espa\\xc3\\xb1ol\\\')" oninput="setCustomValidity(\\\'\\\')"> <br> <!--  oninvalid="this.setCustomValidity(\\\'Los nombres solo pueden contener letras\\\')" oninput="setCustomValidity(\\\'\\\')" -->\\r\\n                            <!-- Person last name -->\\r\\n                                <label for="apellido">Apellidos<font color="red">*</font>: </label>\\r\\n                                <input class="form-control" type="text" id="apellido" name="apellidos" placeholder="Apellidos"\\r\\n                                pattern="([a-zA-Z\\xc3\\xb1\\xc3\\x91\\xc3\\xa1\\xc3\\xa9\\xc3\\xad\\xc3\\xb3\\xc3\\xba\\xc3\\x81\\xc3\\x89\\xc3\\x8d\\xc3\\x93\\xc3\\x9a\\\\s]+[\\\\s-]?[a-zA-Z\\xc3\\xb1\\xc3\\x91\\xc3\\xa1\\xc3\\xa9\\xc3\\xad\\xc3\\xb3\\xc3\\xba\\xc3\\x81\\xc3\\x89\\xc3\\x8d\\xc3\\x93\\xc3\\x9a\\\\s]*)*" required\\r\\n                                required oninvalid="this.setCustomValidity(\\\'Los apellidos solo pueden contener caracteres del espa\\xc3\\xb1ol\\\')" oninput="setCustomValidity(\\\'\\\')"> <br>\\r\\n                            <!-- Liceo procedencia-->\\r\\n                            <div id="manualLiceo">\\r\\n                                <label for="liceoProcedencia" >Liceo de procedencia<font color="red">*</font>: </label>\\r\\n                                <select class="select-style form-control"  name="liceo" id="liceoProcedencia" required>\\r\\n                                <option  disable>Seleccione uno</option>\\r\\n                                \', escape=False)'
p104
sI58
S'for i in liceos:'
p105
sI59
S'    response.write(\'\\r\\n                                    <option value="\', escape=False)'
p106
sI60
S'    response.write(i.nombre)'
p107
sI61
S'    response.write(\'" >\', escape=False)'
p108
sI62
S'    response.write(i.nombre)'
p109
sI63
S"    response.write('</option>\\r\\n                                ', escape=False)"
p110
ssg83
S'()'
p111
sg85
S'<module>'
p112
sasS'pyver'
p113
S'Python 2.7.9: C:\\Users\\capf9\\Desktop\\University\\web2py_win\\web2py\\web2py.exe (prefix: )'
p114
sS'session'
p115
g57
(S's\x8b\n\x00\x00<div><table><tr><td style="font-weight:bold;vertical-align:top;">auth</td><td style="vertical-align:top;">:</td><td><div><table><tr><td style="font-weight:bold;vertical-align:top;">expiration</td><td style="vertical-align:top;">:</td><td><div>3600</div></td></tr><tr><td style="font-weight:bold;vertical-align:top;">hmac_key</td><td style="vertical-align:top;">:</td><td><div>506bdaa8-1123-478f-a0a2-7f79b671f5d0</div></td></tr><tr><td style="font-weight:bold;vertical-align:top;">last_visit</td><td style="vertical-align:top;">:</td><td><div>datetime.datetime(2017, 11, 11, 21, 1, 50, 362000)</div></td></tr><tr><td style="font-weight:bold;vertical-align:top;">remember_me</td><td style="vertical-align:top;">:</td><td><div>False</div></td></tr><tr><td style="font-weight:bold;vertical-align:top;">user</td><td style="vertical-align:top;">:</td><td><div><table><tr><td style="font-weight:bold;vertical-align:top;">email</td><td style="vertical-align:top;">:</td><td><div>admin@usb.ve</div></td></tr><tr><td style="font-weight:bold;vertical-align:top;">first_name</td><td style="vertical-align:top;">:</td><td><div>SisPIO</div></td></tr><tr><td style="font-weight:bold;vertical-align:top;">id</td><td style="vertical-align:top;">:</td><td><div>1L</div></td></tr><tr><td style="font-weight:bold;vertical-align:top;">last_name</td><td style="vertical-align:top;">:</td><td><div>Admin</div></td></tr><tr><td style="font-weight:bold;vertical-align:top;">registration_id</td><td style="vertical-align:top;">:</td><td><div></div></td></tr><tr><td style="font-weight:bold;vertical-align:top;">registration_key</td><td style="vertical-align:top;">:</td><td><div></div></td></tr><tr><td style="font-weight:bold;vertical-align:top;">reset_password_key</td><td style="vertical-align:top;">:</td><td><div></div></td></tr><tr><td style="font-weight:bold;vertical-align:top;">username</td><td style="vertical-align:top;">:</td><td><div>admin</div></td></tr></table></div></td></tr><tr><td style="font-weight:bold;vertical-align:top;">user_groups</td><td style="vertical-align:top;">:</td><td><div><table><tr><td style="font-weight:bold;vertical-align:top;">5</td><td style="vertical-align:top;">:</td><td><div>Administrador</div></td></tr></table></div></td></tr></table></div></td></tr><tr><td style="font-weight:bold;vertical-align:top;">cedula</td><td style="vertical-align:top;">:</td><td><div>20616234</div></td></tr><tr><td style="font-weight:bold;vertical-align:top;">flash</td><td style="vertical-align:top;">:</td><td><div>None</div></td></tr><tr><td style="font-weight:bold;vertical-align:top;">tipo</td><td style="vertical-align:top;">:</td><td><div>Representante de liceo</div></td></tr></table></div>'
tRp116
sS'etype'
p117
S"<type 'exceptions.NameError'>"
p118
sS'date'
p119
S'Sat Nov 11 21:05:16 2017'
p120
sS'response'
p121
g57
(S's\xbd?\x00\x00<div><table><tr><td style="font-weight:bold;vertical-align:top;">body</td><td style="vertical-align:top;">:</td><td><div>&lt;cStringIO.StringO object at 0x045502E0&gt;</div></td></tr><tr><td style="font-weight:bold;vertical-align:top;">cookies</td><td style="vertical-align:top;">:</td><td><div><table><tr><td style="font-weight:bold;vertical-align:top;">session_id_sispio</td><td style="vertical-align:top;">:</td><td><div>127.0.0.1-41f9f658-cf08-4ce8-8f67-b4d0fbed09e0<table><tr><td style="font-weight:bold;vertical-align:top;">comment</td><td style="vertical-align:top;">:</td><td><div></div></td></tr><tr><td style="font-weight:bold;vertical-align:top;">domain</td><td style="vertical-align:top;">:</td><td><div></div></td></tr><tr><td style="font-weight:bold;vertical-align:top;">expires</td><td style="vertical-align:top;">:</td><td><div></div></td></tr><tr><td style="font-weight:bold;vertical-align:top;">httponly</td><td style="vertical-align:top;">:</td><td><div></div></td></tr><tr><td style="font-weight:bold;vertical-align:top;">max-age</td><td style="vertical-align:top;">:</td><td><div></div></td></tr><tr><td style="font-weight:bold;vertical-align:top;">path</td><td style="vertical-align:top;">:</td><td><div>/</div></td></tr><tr><td style="font-weight:bold;vertical-align:top;">secure</td><td style="vertical-align:top;">:</td><td><div></div></td></tr><tr><td style="font-weight:bold;vertical-align:top;">version</td><td style="vertical-align:top;">:</td><td><div></div></td></tr></table></div></td></tr></table></div></td></tr><tr><td style="font-weight:bold;vertical-align:top;">delimiters</td><td style="vertical-align:top;">:</td><td><div><table><tr><td><div>{{</div></td></tr><tr><td><div>}}</div></td></tr></table></div></td></tr><tr><td style="font-weight:bold;vertical-align:top;">files</td><td style="vertical-align:top;">:</td><td><div><table></table></div></td></tr><tr><td style="font-weight:bold;vertical-align:top;">flash</td><td style="vertical-align:top;">:</td><td><div></div></td></tr><tr><td style="font-weight:bold;vertical-align:top;">form_label_separator</td><td style="vertical-align:top;">:</td><td><div></div></td></tr><tr><td style="font-weight:bold;vertical-align:top;">formstyle</td><td style="vertical-align:top;">:</td><td><div>bootstrap3_inline</div></td></tr><tr><td style="font-weight:bold;vertical-align:top;">generic_patterns</td><td style="vertical-align:top;">:</td><td><div><table><tr><td><div>*</div></td></tr></table></div></td></tr><tr><td style="font-weight:bold;vertical-align:top;">google_analytics_id</td><td style="vertical-align:top;">:</td><td><div>None</div></td></tr><tr><td style="font-weight:bold;vertical-align:top;">headers</td><td style="vertical-align:top;">:</td><td><div><table><tr><td style="font-weight:bold;vertical-align:top;">X-Powered-By</td><td style="vertical-align:top;">:</td><td><div>web2py</div></td></tr></table></div></td></tr><tr><td style="font-weight:bold;vertical-align:top;">logo</td><td style="vertical-align:top;">:</td><td><div><a class="navbar-brand" href="http://www.web2py.com/" id="web2py-logo"><b>web<span>2</span>py</b>&trade;&nbsp;</a></div></td></tr><tr><td style="font-weight:bold;vertical-align:top;">menu</td><td style="vertical-align:top;">:</td><td><div><table><tr><td><div><table><tr><td><div>Home</div></td></tr><tr><td><div>False</div></td></tr><tr><td><div>/SisPIO/default/index</div></td></tr><tr><td><div><table></table></div></td></tr></table></div></td></tr><tr><td><div><table><tr><td><div>My Sites</div></td></tr><tr><td><div>False</div></td></tr><tr><td><div>/admin/default/site</div></td></tr></table></div></td></tr><tr><td><div><table><tr><td><div>This App</div></td></tr><tr><td><div>False</div></td></tr><tr><td><div>#</div></td></tr><tr><td><div><table><tr><td><div><table><tr><td><div>Design</div></td></tr><tr><td><div>False</div></td></tr><tr><td><div>/admin/default/design/SisPIO</div></td></tr></table></div></td></tr><tr><td><div><li class="divider"></li></div></td></tr><tr><td><div><table><tr><td><div>Controller</div></td></tr><tr><td><div>False</div></td></tr><tr><td><div>/admin/default/edit/SisPIO/controllers/admin.py</div></td></tr></table></div></td></tr><tr><td><div><table><tr><td><div>View</div></td></tr><tr><td><div>False</div></td></tr><tr><td><div>/admin/default/edit/SisPIO/views/admin/modificarRepresentanteLiceo.html</div></td></tr></table></div></td></tr><tr><td><div><table><tr><td><div>DB Model</div></td></tr><tr><td><div>False</div></td></tr><tr><td><div>/admin/default/edit/SisPIO/models/db.py</div></td></tr></table></div></td></tr><tr><td><div><table><tr><td><div>Menu Model</div></td></tr><tr><td><div>False</div></td></tr><tr><td><div>/admin/default/edit/SisPIO/models/menu.py</div></td></tr></table></div></td></tr><tr><td><div><table><tr><td><div>Config.ini</div></td></tr><tr><td><div>False</div></td></tr><tr><td><div>/admin/default/edit/SisPIO/private/appconfig.ini</div></td></tr></table></div></td></tr><tr><td><div><table><tr><td><div>Layout</div></td></tr><tr><td><div>False</div></td></tr><tr><td><div>/admin/default/edit/SisPIO/views/layout.html</div></td></tr></table></div></td></tr><tr><td><div><table><tr><td><div>Stylesheet</div></td></tr><tr><td><div>False</div></td></tr><tr><td><div>/admin/default/edit/SisPIO/static/css/web2py-bootstrap3.css</div></td></tr></table></div></td></tr><tr><td><div><table><tr><td><div>Database</div></td></tr><tr><td><div>False</div></td></tr><tr><td><div>/SisPIO/appadmin/index</div></td></tr></table></div></td></tr><tr><td><div><table><tr><td><div>Errors</div></td></tr><tr><td><div>False</div></td></tr><tr><td><div>/admin/default/errors/SisPIO</div></td></tr></table></div></td></tr><tr><td><div><table><tr><td><div>About</div></td></tr><tr><td><div>False</div></td></tr><tr><td><div>/admin/default/about/SisPIO</div></td></tr></table></div></td></tr></table></div></td></tr></table></div></td></tr><tr><td><div><table><tr><td><div>web2py.com</div></td></tr><tr><td><div>False</div></td></tr><tr><td><div>#</div></td></tr><tr><td><div><table><tr><td><div><table><tr><td><div>Download</div></td></tr><tr><td><div>False</div></td></tr><tr><td><div>http://www.web2py.com/examples/default/download</div></td></tr></table></div></td></tr><tr><td><div><table><tr><td><div>Support</div></td></tr><tr><td><div>False</div></td></tr><tr><td><div>http://www.web2py.com/examples/default/support</div></td></tr></table></div></td></tr><tr><td><div><table><tr><td><div>Demo</div></td></tr><tr><td><div>False</div></td></tr><tr><td><div>http://web2py.com/demo_admin</div></td></tr></table></div></td></tr><tr><td><div><table><tr><td><div>Quick Examples</div></td></tr><tr><td><div>False</div></td></tr><tr><td><div>http://web2py.com/examples/default/examples</div></td></tr></table></div></td></tr><tr><td><div><table><tr><td><div>FAQ</div></td></tr><tr><td><div>False</div></td></tr><tr><td><div>http://web2py.com/AlterEgo</div></td></tr></table></div></td></tr><tr><td><div><table><tr><td><div>Videos</div></td></tr><tr><td><div>False</div></td></tr><tr><td><div>http://www.web2py.com/examples/default/videos/</div></td></tr></table></div></td></tr><tr><td><div><table><tr><td><div>Free Applications</div></td></tr><tr><td><div>False</div></td></tr><tr><td><div>http://web2py.com/appliances</div></td></tr></table></div></td></tr><tr><td><div><table><tr><td><div>Plugins</div></td></tr><tr><td><div>False</div></td></tr><tr><td><div>http://web2py.com/plugins</div></td></tr></table></div></td></tr><tr><td><div><table><tr><td><div>Recipes</div></td></tr><tr><td><div>False</div></td></tr><tr><td><div>http://web2pyslices.com/</div></td></tr></table></div></td></tr></table></div></td></tr></table></div></td></tr><tr><td><div><table><tr><td><div>Documentation</div></td></tr><tr><td><div>False</div></td></tr><tr><td><div>#</div></td></tr><tr><td><div><table><tr><td><div><table><tr><td><div>Online book</div></td></tr><tr><td><div>False</div></td></tr><tr><td><div>http://www.web2py.com/book</div></td></tr></table></div></td></tr><tr><td><div><li class="divider"></li></div></td></tr><tr><td><div><table><tr><td><div>Preface</div></td></tr><tr><td><div>False</div></td></tr><tr><td><div>http://www.web2py.com/book/default/chapter/00</div></td></tr></table></div></td></tr><tr><td><div><table><tr><td><div>Introduction</div></td></tr><tr><td><div>False</div></td></tr><tr><td><div>http://www.web2py.com/book/default/chapter/01</div></td></tr></table></div></td></tr><tr><td><div><table><tr><td><div>Python</div></td></tr><tr><td><div>False</div></td></tr><tr><td><div>http://www.web2py.com/book/default/chapter/02</div></td></tr></table></div></td></tr><tr><td><div><table><tr><td><div>Overview</div></td></tr><tr><td><div>False</div></td></tr><tr><td><div>http://www.web2py.com/book/default/chapter/03</div></td></tr></table></div></td></tr><tr><td><div><table><tr><td><div>The Core</div></td></tr><tr><td><div>False</div></td></tr><tr><td><div>http://www.web2py.com/book/default/chapter/04</div></td></tr></table></div></td></tr><tr><td><div><table><tr><td><div>The Views</div></td></tr><tr><td><div>False</div></td></tr><tr><td><div>http://www.web2py.com/book/default/chapter/05</div></td></tr></table></div></td></tr><tr><td><div><table><tr><td><div>Database</div></td></tr><tr><td><div>False</div></td></tr><tr><td><div>http://www.web2py.com/book/default/chapter/06</div></td></tr></table></div></td></tr><tr><td><div><table><tr><td><div>Forms and Validators</div></td></tr><tr><td><div>False</div></td></tr><tr><td><div>http://www.web2py.com/book/default/chapter/07</div></td></tr></table></div></td></tr><tr><td><div><table><tr><td><div>Email and SMS</div></td></tr><tr><td><div>False</div></td></tr><tr><td><div>http://www.web2py.com/book/default/chapter/08</div></td></tr></table></div></td></tr><tr><td><div><table><tr><td><div>Access Control</div></td></tr><tr><td><div>False</div></td></tr><tr><td><div>http://www.web2py.com/book/default/chapter/09</div></td></tr></table></div></td></tr><tr><td><div><table><tr><td><div>Services</div></td></tr><tr><td><div>False</div></td></tr><tr><td><div>http://www.web2py.com/book/default/chapter/10</div></td></tr></table></div></td></tr><tr><td><div><table><tr><td><div>Ajax Recipes</div></td></tr><tr><td><div>False</div></td></tr><tr><td><div>http://www.web2py.com/book/default/chapter/11</div></td></tr></table></div></td></tr><tr><td><div><table><tr><td><div>Components and Plugins</div></td></tr><tr><td><div>False</div></td></tr><tr><td><div>http://www.web2py.com/book/default/chapter/12</div></td></tr></table></div></td></tr><tr><td><div><table><tr><td><div>Deployment Recipes</div></td></tr><tr><td><div>False</div></td></tr><tr><td><div>http://www.web2py.com/book/default/chapter/13</div></td></tr></table></div></td></tr><tr><td><div><table><tr><td><div>Other Recipes</div></td></tr><tr><td><div>False</div></td></tr><tr><td><div>http://www.web2py.com/book/default/chapter/14</div></td></tr></table></div></td></tr><tr><td><div><table><tr><td><div>Helping web2py</div></td></tr><tr><td><div>False</div></td></tr><tr><td><div>http://www.web2py.com/book/default/chapter/15</div></td></tr></table></div></td></tr><tr><td><div><table><tr><td><div>Buy web2py\'s book</div></td></tr><tr><td><div>False</div></td></tr><tr><td><div>http://stores.lulu.com/web2py</div></td></tr></table></div></td></tr></table></div></td></tr></table></div></td></tr><tr><td><div><table><tr><td><div>Community</div></td></tr><tr><td><div>False</div></td></tr><tr><td><div>None</div></td></tr><tr><td><div><table><tr><td><div><table><tr><td><div>Groups</div></td></tr><tr><td><div>False</div></td></tr><tr><td><div>http://www.web2py.com/examples/default/usergroups</div></td></tr></table></div></td></tr><tr><td><div><table><tr><td><div>Twitter</div></td></tr><tr><td><div>False</div></td></tr><tr><td><div>http://twitter.com/web2py</div></td></tr></table></div></td></tr><tr><td><div><table><tr><td><div>Live Chat</div></td></tr><tr><td><div>False</div></td></tr><tr><td><div>http://webchat.freenode.net/?channels=web2py</div></td></tr></table></div></td></tr></table></div></td></tr></table></div></td></tr></table></div></td></tr><tr><td style="font-weight:bold;vertical-align:top;">meta</td><td style="vertical-align:top;">:</td><td><div><table><tr><td style="font-weight:bold;vertical-align:top;">author</td><td style="vertical-align:top;">:</td><td><div>Your Name &lt;you@example.com&gt;</div></td></tr><tr><td style="font-weight:bold;vertical-align:top;">description</td><td style="vertical-align:top;">:</td><td><div>a cool new app</div></td></tr><tr><td style="font-weight:bold;vertical-align:top;">generator</td><td style="vertical-align:top;">:</td><td><div>Web2py Web Framework</div></td></tr><tr><td style="font-weight:bold;vertical-align:top;">keywords</td><td style="vertical-align:top;">:</td><td><div><table><tr><td><div>web2py</div></td></tr><tr><td><div>python</div></td></tr><tr><td><div>framework</div></td></tr></table></div></td></tr></table></div></td></tr><tr><td style="font-weight:bold;vertical-align:top;">models_to_run</td><td style="vertical-align:top;">:</td><td><div><table><tr><td><div>^\\w+\\.py$</div></td></tr><tr><td><div>^admin/\\w+\\.py$</div></td></tr><tr><td><div>^admin/modificarRepresentanteLiceo/\\w+\\.py$</div></td></tr></table></div></td></tr><tr><td style="font-weight:bold;vertical-align:top;">postprocessing</td><td style="vertical-align:top;">:</td><td><div><table></table></div></td></tr><tr><td style="font-weight:bold;vertical-align:top;">session_client</td><td style="vertical-align:top;">:</td><td><div>127.0.0.1</div></td></tr><tr><td style="font-weight:bold;vertical-align:top;">session_cookie_compression_level</td><td style="vertical-align:top;">:</td><td><div>None</div></td></tr><tr><td style="font-weight:bold;vertical-align:top;">session_cookie_expires</td><td style="vertical-align:top;">:</td><td><div>None</div></td></tr><tr><td style="font-weight:bold;vertical-align:top;">session_data_name</td><td style="vertical-align:top;">:</td><td><div>session_data_sispio</div></td></tr><tr><td style="font-weight:bold;vertical-align:top;">session_file</td><td style="vertical-align:top;">:</td><td><div>&lt;open file &#x27;C:\\\\Users\\\\capf9\\\\Desktop\\\\University\\\\web2py_win\\\\web2py\\\\applications\\\\SisPIO\\\\sessions\\\\1de\\\\159\\\\127.0.0.1-41f9f658-cf08-4ce8-8f67-b4d0fbed09e0&#x27;, mode &#x27;rb+&#x27; at 0x03A10C28&gt;</div></td></tr><tr><td style="font-weight:bold;vertical-align:top;">session_filename</td><td style="vertical-align:top;">:</td><td><div>C:\\Users\\capf9\\Desktop\\University\\web2py_win\\web2py\\applications\\SisPIO\\sessions\\127.0.0.1-41f9f658-cf08-4ce8-8f67-b4d0fbed09e0</div></td></tr><tr><td style="font-weight:bold;vertical-align:top;">session_hash</td><td style="vertical-align:top;">:</td><td><div>b32750cccc8cfc644b0719123093ac17</div></td></tr><tr><td style="font-weight:bold;vertical-align:top;">session_id</td><td style="vertical-align:top;">:</td><td><div>127.0.0.1-41f9f658-cf08-4ce8-8f67-b4d0fbed09e0</div></td></tr><tr><td style="font-weight:bold;vertical-align:top;">session_id_name</td><td style="vertical-align:top;">:</td><td><div>session_id_sispio</div></td></tr><tr><td style="font-weight:bold;vertical-align:top;">session_locked</td><td style="vertical-align:top;">:</td><td><div>True</div></td></tr><tr><td style="font-weight:bold;vertical-align:top;">session_masterapp</td><td style="vertical-align:top;">:</td><td><div>SisPIO</div></td></tr><tr><td style="font-weight:bold;vertical-align:top;">session_new</td><td style="vertical-align:top;">:</td><td><div>False</div></td></tr><tr><td style="font-weight:bold;vertical-align:top;">session_storage_type</td><td style="vertical-align:top;">:</td><td><div>file</div></td></tr><tr><td style="font-weight:bold;vertical-align:top;">status</td><td style="vertical-align:top;">:</td><td><div>200</div></td></tr><tr><td style="font-weight:bold;vertical-align:top;">subtitle</td><td style="vertical-align:top;">:</td><td><div></div></td></tr><tr><td style="font-weight:bold;vertical-align:top;">title</td><td style="vertical-align:top;">:</td><td><div>Sispio</div></td></tr><tr><td style="font-weight:bold;vertical-align:top;">view</td><td style="vertical-align:top;">:</td><td><div>admin/modificarRepresentanteLiceo.html</div></td></tr></table></div>'
tRp122
sS'locals'
p123
(dp124
S'Service'
p125
S"<class 'gluon.tools.Service'>"
p126
sS'OBJECT'
p127
S"<class 'gluon.html.OBJECT'>"
p128
sS'SQLDB'
p129
S"<class 'pydal.base.DAL'>"
p130
sg115
S"<Storage {'_formkey[login]': ['f9b98052-be36-434...: {5L: 'Administrador'}}>, 'cedula': '20616234'}>"
p131
sS'LINK'
p132
S"<class 'gluon.html.LINK'>"
p133
sS'BR'
p134
S"<class 'gluon.html.BR'>"
p135
sS'local_import'
p136
S'<function <lambda>>'
p137
sS'OPTGROUP'
p138
S"<class 'gluon.html.OPTGROUP'>"
p139
sS'__package__'
p140
S'None'
p141
sS'PRE'
p142
S"<class 'gluon.html.PRE'>"
p143
sS'IS_INT_IN_RANGE'
p144
S"<class 'gluon.validators.IS_INT_IN_RANGE'>"
p145
sS'IS_LOWER'
p146
S"<class 'gluon.validators.IS_LOWER'>"
p147
sS'IS_STRONG'
p148
S"<class 'gluon.validators.IS_STRONG'>"
p149
sS'cache'
p150
S'<gluon.cache.Cache object>'
p151
sS'IS_IN_DB'
p152
S"<class 'gluon.validators.IS_IN_DB'>"
p153
sS'TAG'
p154
S'<gluon.html.__TAG__ object>'
p155
sS'SQLField'
p156
S"<class 'pydal.objects.Field'>"
p157
sS'mail'
p158
S'<gluon.tools.Mail object>'
p159
sS'BODY'
p160
S"<class 'gluon.html.BODY'>"
p161
sS'IS_DATE_IN_RANGE'
p162
S"<class 'gluon.validators.IS_DATE_IN_RANGE'>"
p163
sS'IFRAME'
p164
S"<class 'gluon.html.IFRAME'>"
p165
sS'URL'
p166
S'<function URL>'
p167
sS'__file__'
p168
S"r'C:\\Users\\capf9\\Desktop\\University\\web2py_win\\web...sPIO\\views\\admin/modificarRepresentanteLiceo.html'"
p169
sS'db'
p170
S'<DAL uri="postgres:******@localhost/SisPIO">'
p171
sS'auth'
p172
S'<gluon.tools.Auth object>'
p173
sS'P'
S"<class 'gluon.html.P'>"
p174
sS'TFOOT'
p175
S"<class 'gluon.html.TFOOT'>"
p176
sS'XHTML'
p177
S"<class 'gluon.html.XHTML'>"
p178
sS'ON'
p179
S'True'
p180
sS'OL'
p181
S"<class 'gluon.html.OL'>"
p182
sS'TEXTAREA'
p183
S"<class 'gluon.html.TEXTAREA'>"
p184
sS'MENU'
p185
S"<class 'gluon.html.MENU'>"
p186
sS'IS_IMAGE'
p187
S"<class 'gluon.validators.IS_IMAGE'>"
p188
sS'EM'
p189
S"<class 'gluon.html.EM'>"
p190
sS'CODE'
p191
S"<class 'gluon.html.CODE'>"
p192
sS'HTTP'
p193
S"<class 'gluon.http.HTTP'>"
p194
sS'HR'
p195
S"<class 'gluon.html.HR'>"
p196
sS'IS_DATETIME'
p197
S"<class 'gluon.validators.IS_DATETIME'>"
p198
sS'STYLE'
p199
S"<class 'gluon.html.STYLE'>"
p200
sS'LABEL'
p201
S"<class 'gluon.html.LABEL'>"
p202
sS'CLEANUP'
p203
S"<class 'gluon.validators.CLEANUP'>"
p204
sS'plugins'
p205
S'<gluon.tools.PluginManager object>'
p206
sS'SELECT'
p207
S"<class 'gluon.html.SELECT'>"
p208
sS'CENTER'
p209
S"<class 'gluon.html.CENTER'>"
p210
sS'Auth'
p211
S"<class 'gluon.tools.Auth'>"
p212
sS'DEVELOPMENT_MENU'
p213
g180
sS'__builtins__'
p214
S"{'ArithmeticError': <type 'exceptions.ArithmeticError'>, 'AssertionError': <type 'exceptions.AssertionError'>, 'AttributeError': <type 'exceptions.AttributeError'>, 'BaseException': <type 'exceptions.BaseException'>, 'BufferError': <type 'exceptions.BufferError'>, 'BytesWarning': <type 'exceptions.BytesWarning'>, 'DeprecationWarning': <type 'exceptions.DeprecationWarning'>, 'EOFError': <type 'exceptions.EOFError'>, 'Ellipsis': Ellipsis, 'EnvironmentError': <type 'exceptions.EnvironmentError'>, ...}"
p215
sS'HTML'
p216
S"<class 'gluon.html.HTML'>"
p217
sS'SQLFORM'
p218
S"<class 'gluon.sqlhtml.SQLFORM'>"
p219
sS'LOAD'
p220
S'<function LOAD>'
p221
sS'redirect'
p222
S'<function redirect>'
p223
sS'FIELDSET'
p224
S"<class 'gluon.html.FIELDSET'>"
p225
sS'IS_EQUAL_TO'
p226
S"<class 'gluon.validators.IS_EQUAL_TO'>"
p227
sS'embed64'
p228
S'<function embed64>'
p229
sS'IS_LIST_OF'
p230
S"<class 'gluon.validators.IS_LIST_OF'>"
p231
sS'INPUT'
p232
S"<class 'gluon.html.INPUT'>"
p233
sS'EMBED'
p234
S"<class 'gluon.html.EMBED'>"
p235
sS'_'
S'<function _>'
p236
sS'myconf'
p237
S"{'forms': {'formstyle': 'bootstrap3_inline', 'se...': {'names': 'localhost:*, 127.0.0.1:*, *:*, *'}}"
p238
sS'H2'
p239
S"<class 'gluon.html.H2'>"
p240
sS'H3'
p241
S"<class 'gluon.html.H3'>"
p242
sS'AppConfig'
p243
S'<function AppConfig>'
p244
sS'H1'
p245
S"<class 'gluon.html.H1'>"
p246
sS'H6'
p247
S"<class 'gluon.html.H6'>"
p248
sS'H4'
p249
S"<class 'gluon.html.H4'>"
p250
sS'H5'
p251
S"<class 'gluon.html.H5'>"
p252
sS'UL'
p253
S"<class 'gluon.html.UL'>"
p254
sS'IS_UPPER'
p255
S"<class 'gluon.validators.IS_UPPER'>"
p256
sS'xmlescape'
p257
S'<function xmlescape>'
p258
sS'IS_TIME'
p259
S"<class 'gluon.validators.IS_TIME'>"
p260
sS'OPTION'
p261
S"<class 'gluon.html.OPTION'>"
p262
sS'TITLE'
p263
S"<class 'gluon.html.TITLE'>"
p264
sS'CRYPT'
p265
S"<class 'gluon.validators.CRYPT'>"
p266
sS'IS_EMPTY_OR'
p267
S"<class 'gluon.validators.IS_EMPTY_OR'>"
p268
sS'MARKMIN'
p269
S"<class 'gluon.html.MARKMIN'>"
p270
sS'__name__'
p271
S"'__restricted__'"
p272
sS'STRONG'
p273
S"<class 'gluon.html.STRONG'>"
p274
sS'COL'
p275
S"<class 'gluon.html.COL'>"
p276
sS'service'
p277
S'<gluon.tools.Service object>'
p278
sS'SCRIPT'
p279
S"<class 'gluon.html.SCRIPT'>"
p280
sS'TABLE'
p281
S"<class 'gluon.html.TABLE'>"
p282
sS'IS_IPV4'
p283
S"<class 'gluon.validators.IS_IPV4'>"
p284
sS'IS_LENGTH'
p285
S"<class 'gluon.validators.IS_LENGTH'>"
p286
sS'IS_IPV6'
p287
S"<class 'gluon.validators.IS_IPV6'>"
p288
sS'XML'
p289
S"<class 'gluon.html.XML'>"
p290
sS'B'
S"<class 'gluon.html.B'>"
p291
sS'IMG'
p292
S"<class 'gluon.html.IMG'>"
p293
sS'SQLTABLE'
p294
S"<class 'gluon.sqlhtml.SQLTABLE'>"
p295
sS'IS_MATCH'
p296
S"<class 'gluon.validators.IS_MATCH'>"
p297
sS'IS_ALPHANUMERIC'
p298
S"<class 'gluon.validators.IS_ALPHANUMERIC'>"
p299
sS'SPAN'
p300
S"<class 'gluon.html.SPAN'>"
p301
sS'IS_JSON'
p302
S"<class 'gluon.validators.IS_JSON'>"
p303
sS'IS_IPADDRESS'
p304
S"<class 'gluon.validators.IS_IPADDRESS'>"
p305
sS'IS_SLUG'
p306
S"<class 'gluon.validators.IS_SLUG'>"
p307
sS'BEAUTIFY'
p308
S"<class 'gluon.html.BEAUTIFY'>"
p309
sS'META'
p310
S"<class 'gluon.html.META'>"
p311
sS'BUTTON'
p312
S"<class 'gluon.html.BUTTON'>"
p313
sS'IS_DATE'
p314
S"<class 'gluon.validators.IS_DATE'>"
p315
sS'IS_EMAIL'
p316
S"<class 'gluon.validators.IS_EMAIL'>"
p317
sS'IS_NOT_EMPTY'
p318
S"<class 'gluon.validators.IS_NOT_EMPTY'>"
p319
sS'IS_FLOAT_IN_RANGE'
p320
S"<class 'gluon.validators.IS_FLOAT_IN_RANGE'>"
p321
sS'TBODY'
p322
S"<class 'gluon.html.TBODY'>"
p323
sS'CAT'
p324
S"<class 'gluon.html.CAT'>"
p325
sS'Field'
p326
S"<class 'pydal.objects.Field'>"
p327
sS'IS_LIST_OF_EMAILS'
p328
S"<class 'gluon.validators.IS_LIST_OF_EMAILS'>"
p329
sS'DIV'
p330
S"<class 'gluon.html.DIV'>"
p331
sS'LEGEND'
p332
S"<class 'gluon.html.LEGEND'>"
p333
sS'COLGROUP'
p334
S"<class 'gluon.html.COLGROUP'>"
p335
sS'DAL'
p336
S"<class 'pydal.base.DAL'>"
p337
sS'ASSIGNJS'
p338
S'<function ASSIGNJS>'
p339
sS'TR'
p340
S"<class 'gluon.html.TR'>"
p341
sS'LI'
p342
S"<class 'gluon.html.LI'>"
p343
sS'TH'
p344
S"<class 'gluon.html.TH'>"
p345
sS'TD'
p346
S"<class 'gluon.html.TD'>"
p347
sS'PluginManager'
p348
S"<class 'gluon.tools.PluginManager'>"
p349
sS'IS_URL'
p350
S"<class 'gluon.validators.IS_URL'>"
p351
sS'A'
S"<class 'gluon.html.A'>"
p352
sS'HEAD'
p353
S"<class 'gluon.html.HEAD'>"
p354
sS'IS_DATETIME_IN_RANGE'
p355
S"<class 'gluon.validators.IS_DATETIME_IN_RANGE'>"
p356
sS'FORM'
p357
S"<class 'gluon.html.FORM'>"
p358
sS'I'
S"<class 'gluon.html.I'>"
p359
sS'IS_NOT_IN_DB'
p360
S"<class 'gluon.validators.IS_NOT_IN_DB'>"
p361
sg121
S"<Storage {'body': <cStringIO.StringO object at 0...view': 'admin/modificarRepresentanteLiceo.html'}>"
p362
sS'THEAD'
p363
S"<class 'gluon.html.THEAD'>"
p364
sS'ANY_OF'
p365
S"<class 'gluon.validators.ANY_OF'>"
p366
sS'IS_NULL_OR'
p367
S"<class 'gluon.validators.IS_EMPTY_OR'>"
p368
sg56
S"<Storage {'_vars': None, 'function': 'modificarR...ty\\\\web2py_win\\\\web2py\\\\applications\\\\SisPIO\\\\'}>"
p369
sS'IS_EXPR'
p370
S"<class 'gluon.validators.IS_EXPR'>"
p371
sS'T'
S'<gluon.languages.translator object>'
p372
sS'IS_IN_SET'
p373
S"<class 'gluon.validators.IS_IN_SET'>"
p374
sS'IS_UPLOAD_FILENAME'
p375
S"<class 'gluon.validators.IS_UPLOAD_FILENAME'>"
p376
sS'TT'
p377
S"<class 'gluon.html.TT'>"
p378
sS'IS_DECIMAL_IN_RANGE'
p379
S"<class 'gluon.validators.IS_DECIMAL_IN_RANGE'>"
p380
sssS'traceback'
p381
S'Traceback (most recent call last):\n  File "C:\\Users\\capf9\\Desktop\\University\\web2py_win\\web2py\\gluon\\restricted.py", line 227, in restricted\n    exec ccode in environment\n  File "C:\\Users\\capf9\\Desktop\\University\\web2py_win\\web2py\\applications\\SisPIO\\views\\admin/modificarRepresentanteLiceo.html", line 58, in <module>\n    {{pass}}\nNameError: name \'liceos\' is not defined\n'
p382
s.