(dp1
S'output'
p2
S"<type 'exceptions.AttributeError'> "
p3
sS'layer'
p4
S'/home/aabv/Documentos/Web2py/web2py/applications/SisPIOSinConsultaV2/controllers/default.py'
p5
sS'code'
p6
S'# -*- coding: utf-8 -*-\n# this file is released under public domain and you can use without limitations\n\n# -------------------------------------------------------------------------\n# This is a sample controller\n# - index is the default action of any application\n# - user is required for authentication and authorization\n# - download is for downloading files uploaded in the db (does streaming)\n# -------------------------------------------------------------------------\n\ndef user():\n    """\n    exposes:\n    http://..../[app]/default/user/login\n    http://..../[app]/default/user/logout\n    http://..../[app]/default/user/register\n    http://..../[app]/default/user/profile\n    http://..../[app]/default/user/retrieve_password\n    http://..../[app]/default/user/change_password\n    http://..../[app]/default/user/bulk_register\n    use @auth.requires_login()\n        @auth.requires_membership(\'group name\')\n        @auth.requires_permission(\'read\',\'table name\',record_id)\n    to decorate functions that need access control\n    also notice there is http://..../[app]/appadmin/manage/auth to allow administrator to manage users\n    """\n    if not(request.args):\n        if auth.is_logged_in():\n            redirect(URL(\'redireccionando\'))\n        else:\n            redirect(URL(\'index\'))\n    else:\n        if request.args[0] == \'login\':\n            if auth.is_logged_in():\n                redirect(URL(\'redireccionando\'))\n            else:\n                redirect(URL(\'index\'))\n    return dict(form=auth())\n\n\n@cache.action()\ndef download():\n    """\n    allows downloading of uploaded files\n    http://..../[app]/default/download/[filename]\n    """\n    return response.download(request, db)\n\n@auth.requires_login()\ndef call():\n    """\n    exposes services. for example:\n    http://..../[app]/default/call/jsonrpc\n    decorate with @services.jsonrpc the functions to expose\n    supports xml, json, xmlrpc, jsonrpc, amfrpc, rss, csv\n    """\n    return service()\n\ndef index():\n    if auth.is_logged_in():\n        redirect(URL(\'default\', \'user\', args=\'logout\')) # Si ya hay un usuario conectado, desconectarlo\n    return dict(form=auth.login())\n\ndef redireccionando():\n    if auth.is_logged_in():\n        if 5 in auth.user_groups:\n            redirect(URL(\'admin\'))\n        elif 1 in auth.user_groups:\n            redirect(URL(\'welcome\'))\n        elif 2 in auth.user_groups:\n            redirect(URL(\'profesor\'))\n        elif 3 in auth.user_groups:\n            redirect(URL(\'coordinadorLiceo\'))\n        elif 4 in auth.user_groups:\n            redirect(URL(\'coordinadorPio\'))\n        else:\n            redirect(URL(\'default\', \'user\', args=\'logout\'))\n    else:\n        redirect(URL(\'index\'))\n    return dict()\n\n@auth.requires_membership(\'Administrador\')\n@auth.requires_login()\ndef admin():\n\n    ########################\n    ###Consula de datos\n    ########################\n    T.force(\'es\')\n    username = auth.user.username\n    usuario = db(db.usuario.username==username).select().first()\n    #tipo=""\n    #error = False\n\n    formAdministrador = SQLFORM.factory(\n        Field(\'first_name\' +  \'last_name\', \n\t\t\ttype=\'string\', \n\t\t\tdefault=usuario.first_name + " " + usuario.last_name,\n\t\t\trequires=db.usuario.first_name.requires and db.usuario.last_name.requires,\n\t\t\tlabel=\'nombre\'\n\t\t\t),\n        Field(\'username\', \n\t\t\ttype=\'string\',\n            notnull = True,\n\t\t\tdefault=usuario.username, \n\t\t\trequires=db.usuario.username.requires,\n\t\t\tlabel=\'ci\'\n\t\t\t),\n\t\tField(\'email\', \n\t\t\ttype=\'string\', \n\t\t\tdefault=usuario.email, \n\t\t\trequires=db.usuario.email.requires,\n\t\t\tlabel=\'email\'),\n        readonly = True\n        )\n\n    if formAdministrador.process(session=None, formname=\'perfil del administrador\', keepvalues=True).accepted:\n        response.flash = \'El formulario fue aceptado exitosamente.\'\n\n    elif formAdministrador.errors:\n\t\t#error = True\n\t\tresponse.flash = \'Hay un error en un campo.\'\n    ############################\n    ###fin de Consula de datos\n    ############################\n\n    return dict(formAdministrador=formAdministrador)\n\n@auth.requires_membership(\'Profesor\')\n@auth.requires_login()\ndef profesor():\n    return dict()\n\n@auth.requires_membership(\'Representante_liceo\')\n@auth.requires_login()\ndef coordinadorLiceo():\n\n    ########################\n    ###Consula de datos\n    ########################\n    T.force(\'es\')\n    username = auth.user.username\n    representante_liceo=db(db.representante_liceo.ci==username).select().first()\n    usuario = db(db.usuario.username==username).select().first()\n    #tipo=""\n    #error = False\n\n    formDatosBasicos = SQLFORM.factory(\n        Field(\'first_name\' +  \'last_name\', \n\t\t\ttype=\'string\', \n\t\t\tdefault=usuario.first_name + " " + usuario.last_name,\n\t\t\trequires=db.usuario.first_name.requires and db.usuario.last_name.requires,\n\t\t\tlabel=\'nombre\'\n\t\t\t),\n        Field(\'username\', \n\t\t\ttype=\'string\',\n            notnull = True,\n\t\t\tdefault=usuario.username, \n\t\t\trequires=db.usuario.username.requires,\n\t\t\tlabel=\'ci\'\n\t\t\t),\n\t\tField(\'email\', \n\t\t\ttype=\'string\', \n\t\t\tdefault=usuario.email, \n\t\t\trequires=db.usuario.email.requires,\n\t\t\tlabel=\'email\'),\n        readonly = True\n        )\n\n    if formDatosBasicos.process(session=None, formname=\'perfil basico del Representante liceo de sede\', keepvalues=True).accepted:\n        response.flash = \'El formulario fue aceptado exitosamente.\'\n\n    elif formDatosBasicos.errors:\n\t\t#error = True\n\t\tresponse.flash = \'Hay un error en un campo.\'\n\n    formCoordinadorLiceo = SQLFORM.factory(\n\t\tField(\'ci\', \n\t\t\ttype=\'string\', \n\t\t\tnotnull=True, \n\t\t\tdefault=representante_liceo.ci, \n\t\t\trequires=db.representante_liceo.ci.requires,\n\t\t\tlabel=\'ci\'\n\t\t\t),\n\t\tField(\'first_name\' +  \'last_name\', \n\t\t\ttype=\'string\', \n\t\t\tdefault=usuario.first_name + " " + usuario.last_name,\n\t\t\trequires=db.usuario.first_name.requires and db.usuario.last_name.requires,\n\t\t\tlabel=\'nombre\'\n\t\t\t),\n\t\tField(\'nombre_liceo\', \n\t\t\ttype=\'string\',  \n\t\t\tdefault=representante_liceo.sede, \n\t\t\trequires=db.representante_liceo.sederequires,\n\t\t\tlabel=\'nombre_liceo\'\n\t\t\t),\n\t\tField(\'email\', \n\t\t\ttype=\'date\',\n\t\t\tdefault=usuario.email, \n\t\t\trequires=db.usuario.email.requires,\n\t\t\tlabel=\'email\'),\n        readonly = True\n        )\n\n    if formCoordinadorLiceo.process(session=None, formname=\'perfil del Representante Liceo de sede\', keepvalues=True).accepted:\n        response.flash = \'El formulario fue aceptado exitosamente.\'\n\n    elif formCoordinadorLiceo.errors:\n\t\t#error = True\n\t\tresponse.flash = \'Hay un error en un campo.\'\n    ############################\n    ###fin de Consula de datos\n    ############################\n\n    return dict(formCoordinadorLiceo=formCoordinadorLiceo, formDatosBasicos=formDatosBasicos)\n\n@auth.requires_membership(\'Representante_sede\')\n@auth.requires_login()\ndef coordinadorPio():\n\n    ########################\n    ###Consula de datos\n    ########################\n    T.force(\'es\')\n    username = auth.user.username\n    representante_sede=db(db.representante_sede.ci==username).select().first()\n    usuario = db(db.usuario.username==username).select().first()\n    #tipo=""\n    #error = False\n\n    formDatosBasicos = SQLFORM.factory(\n        Field(\'first_name\' +  \'last_name\', \n\t\t\ttype=\'string\', \n\t\t\tdefault=usuario.first_name + " " + usuario.last_name,\n\t\t\trequires=db.usuario.first_name.requires and db.usuario.last_name.requires,\n\t\t\tlabel=\'nombre\'\n\t\t\t),\n        Field(\'username\', \n\t\t\ttype=\'string\',\n            notnull = True,\n\t\t\tdefault=usuario.username, \n\t\t\trequires=db.usuario.username.requires,\n\t\t\tlabel=\'ci\'\n\t\t\t),\n\t\tField(\'email\', \n\t\t\ttype=\'string\', \n\t\t\tdefault=usuario.email, \n\t\t\trequires=db.usuario.email.requires,\n\t\t\tlabel=\'email\'),\n        readonly = True\n        )\n\n    if formDatosBasicos.process(session=None, formname=\'perfil basico del Representante PIO de sede\', keepvalues=True).accepted:\n        response.flash = \'El formulario fue aceptado exitosamente.\'\n\n    elif formDatosBasicos.errors:\n\t\t#error = True\n\t\tresponse.flash = \'Hay un error en un campo.\'\n\n    formCoordinadorPio = SQLFORM.factory(\n\t\tField(\'ci\', \n\t\t\ttype=\'string\', \n\t\t\tnotnull=True, \n\t\t\tdefault=representante_sede.ci, \n\t\t\trequires=db.representante_sede.ci.requires,\n\t\t\tlabel=\'ci\'\n\t\t\t),\n\t\tField(\'first_name\' +  \'last_name\', \n\t\t\ttype=\'string\', \n\t\t\tdefault=usuario.first_name + " " + usuario.last_name,\n\t\t\trequires=db.usuario.first_name.requires and db.usuario.last_name.requires,\n\t\t\tlabel=\'nombre\'\n\t\t\t),\n\t\tField(\'sede\', \n\t\t\ttype=\'string\',  \n\t\t\tdefault=representante_sede.sede, \n\t\t\trequires=db.representante_sede.sederequires,\n\t\t\tlabel=\'sede\'\n\t\t\t),\n\t\tField(\'email\', \n\t\t\ttype=\'date\',\n\t\t\tdefault=usuario.email, \n\t\t\trequires=db.usuario.email.requires,\n\t\t\tlabel=\'email\'),\n        readonly = True\n        )\n\n    if formCoordinadorPio.process(session=None, formname=\'perfil del Representante PIO de sede\', keepvalues=True).accepted:\n        response.flash = \'El formulario fue aceptado exitosamente.\'\n\n    elif formCoordinadorPio.errors:\n\t\t#error = True\n\t\tresponse.flash = \'Hay un error en un campo.\'\n    ############################\n    ###fin de Consula de datos\n    ############################\n\n    return dict(formDatosBasicos=formDatosBasicos, formCoordinadorPio=formCoordinadorPio)\n\n@auth.requires_membership(\'Estudiante\')\n@auth.requires_login()\ndef welcome():\n\n    ########################\n    ###Consula de datos\n    ########################\n    T.force(\'es\')\n    username = auth.user.username\n    estudiante=db(db.estudiante.ci==username).select().first()\n    usuario = db(db.usuario.username==username).select().first()\n    #tipo=""\n    #error = False\n\n    formDatosBasicos = SQLFORM.factory(\n        Field(\'first_name\' +  \'last_name\', \n\t\t\ttype=\'string\', \n\t\t\tdefault=usuario.first_name + " " + usuario.last_name,\n\t\t\trequires=db.usuario.first_name.requires and db.usuario.last_name.requires,\n\t\t\tlabel=\'nombre\'\n\t\t\t),\n        Field(\'username\', \n\t\t\ttype=\'string\',\n            notnull = True,\n\t\t\tdefault=usuario.username, \n\t\t\trequires=db.usuario.username.requires,\n\t\t\tlabel=\'ci\'\n\t\t\t),\n\t\tField(\'email\', \n\t\t\ttype=\'string\', \n\t\t\tdefault=usuario.email, \n\t\t\trequires=db.usuario.email.requires,\n\t\t\tlabel=\'email\'),\n        readonly = True\n        )\n\n    if formDatosBasicos.process(session=None, formname=\'perfil basico del Estudiante\', keepvalues=True).accepted:\n        response.flash = \'El formulario fue aceptado exitosamente.\'\n\n    elif formDatosBasicos.errors:\n\t\t#error = True\n\t\tresponse.flash = \'Hay un error en un campo.\'\n\n    formEstudiante = SQLFORM.factory(\n\t\tField(\'ci\', \n\t\t\ttype=\'string\', \n\t\t\tnotnull=True, \n\t\t\tdefault=estudiante.ci, \n\t\t\trequires=db.estudiante.ci.requires,\n\t\t\tlabel=\'ci\'\n\t\t\t),\n\t\tField(\'first_name\' +  \'last_name\', \n\t\t\ttype=\'string\', \n\t\t\tdefault=usuario.first_name + " " + usuario.last_name,\n\t\t\trequires=db.usuario.first_name.requires and db.usuario.last_name.requires,\n\t\t\tlabel=\'nombre\'\n\t\t\t),\n\t\tField(\'sexo\', \n\t\t\ttype=\'string\',  \n\t\t\tdefault=estudiante.sexo, \n\t\t\trequires=db.estudiante.sexo.requires,\n\t\t\tlabel=\'sexo\'\n\t\t\t),\n\t\tField(\'fecha_nacimiento\', \n\t\t\ttype=\'date\',\n\t\t\tdefault=estudiante.fecha_nacimiento, \n\t\t\trequires=db.estudiante.fecha_nacimiento.requires,\n\t\t\tlabel=\'fecha_de_nacimiento\'\n\t\t\t),\n\t\tField(\'promedio\', \n\t\t\ttype=\'string\', \n            default= estudiante.promedio,\n\t\t\trequires=db.estudiante.promedio.requires,\n\t\t\tlabel=\'promedio\'\n\t\t\t),\n\t\tField(\'nombre_liceo\', \n\t\t\ttype=\'string\',\n\t\t\tdefault="            "+estudiante.nombre_liceo, \n\t\t\trequires=db.estudiante.nombre_liceo.requires,\n\t\t\tlabel=\'nombre_liceo\'\n\t\t\t),\n\t\tField(\'email\', \n\t\t\ttype=\'string\',\n\t\t\tdefault=usuario.email, \n\t\t\trequires=db.usuario.email.requires,\n\t\t\tlabel=\'email\',\n\t\t\t),\n        Field(\'telefono\', \n\t\t\ttype=\'integer\',\n\t\t\tdefault=estudiante.telefono, \n\t\t\trequires=db.estudiante.telefono.requires,\n\t\t\tlabel=\'telefono\',\n\t\t\t),\n        Field(\'direccion\', \n            type=\'string\',\n            default= estudiante.direccion,\n            requires=db.estudiante.direccion.requires,\n            label=\'direccion\'),\n        readonly = True\n        )\n\n    if formEstudiante.process(session=None, formname=\'perfil del Estudiante\', keepvalues=True).accepted:\n        response.flash = \'El formulario fue aceptado exitosamente.\'\n\n    elif formEstudiante.errors:\n\t\t#error = True\n\t\tresponse.flash = \'Hay un error en un campo.\'\n\n    ############################\n    ###fin de Consula de datos\n    ############################\n\n    return dict(formDatosBasicos = formDatosBasicos, formEstudiante = formEstudiante)\n\nresponse._vars=response._caller(coordinadorLiceo)\n'
p7
sS'snapshot'
p8
(dp9
S'exception'
p10
(dp11
S'__hash__'
p12
S"<method-wrapper '__hash__' of exceptions.AttributeError object>"
p13
sS'__setattr__'
p14
S"<method-wrapper '__setattr__' of exceptions.AttributeError object>"
p15
sS'__reduce_ex__'
p16
S'<built-in method __reduce_ex__ of exceptions.AttributeError object>'
p17
sS'__getslice__'
p18
S"<method-wrapper '__getslice__' of exceptions.AttributeError object>"
p19
sS'__getitem__'
p20
S"<method-wrapper '__getitem__' of exceptions.AttributeError object>"
p21
sS'__setstate__'
p22
S'<built-in method __setstate__ of exceptions.AttributeError object>'
p23
sS'args'
p24
S'()'
p25
sS'__reduce__'
p26
S'<built-in method __reduce__ of exceptions.AttributeError object>'
p27
sS'__str__'
p28
S"<method-wrapper '__str__' of exceptions.AttributeError object>"
p29
sS'__format__'
p30
S'<built-in method __format__ of exceptions.AttributeError object>'
p31
sS'__getattribute__'
p32
S"<method-wrapper '__getattribute__' of exceptions.AttributeError object>"
p33
sS'__class__'
p34
S"<type 'exceptions.AttributeError'>"
p35
sS'__unicode__'
p36
S'<built-in method __unicode__ of exceptions.AttributeError object>'
p37
sS'__delattr__'
p38
S"<method-wrapper '__delattr__' of exceptions.AttributeError object>"
p39
sS'__subclasshook__'
p40
S'<built-in method __subclasshook__ of type object>'
p41
sS'__repr__'
p42
S"<method-wrapper '__repr__' of exceptions.AttributeError object>"
p43
sS'__dict__'
p44
S'{}'
p45
sS'__sizeof__'
p46
S'<built-in method __sizeof__ of exceptions.AttributeError object>'
p47
sS'__doc__'
p48
S"'Attribute not found.'"
p49
sS'__init__'
p50
S"<method-wrapper '__init__' of exceptions.AttributeError object>"
p51
sS'__new__'
p52
S'<built-in method __new__ of type object>'
p53
ssS'evalue'
p54
S''
sS'request'
p55
cgluon.html
XML_unpickle
p56
(S's\xc2\\\x00\x00<div><table><tr><td style="font-weight:bold;vertical-align:top;">ajax</td><td style="vertical-align:top;">:</td><td><div>False</div></td></tr><tr><td style="font-weight:bold;vertical-align:top;">application</td><td style="vertical-align:top;">:</td><td><div>SisPIOSinConsultaV2</div></td></tr><tr><td style="font-weight:bold;vertical-align:top;">args</td><td style="vertical-align:top;">:</td><td><div><table></table></div></td></tr><tr><td style="font-weight:bold;vertical-align:top;">cid</td><td style="vertical-align:top;">:</td><td><div>None</div></td></tr><tr><td style="font-weight:bold;vertical-align:top;">client</td><td style="vertical-align:top;">:</td><td><div>127.0.0.1</div></td></tr><tr><td style="font-weight:bold;vertical-align:top;">controller</td><td style="vertical-align:top;">:</td><td><div>default</div></td></tr><tr><td style="font-weight:bold;vertical-align:top;">cookies</td><td style="vertical-align:top;">:</td><td><div><table><tr><td style="font-weight:bold;vertical-align:top;">session_id_admin</td><td style="vertical-align:top;">:</td><td><div>127.0.0.1-0dd0b033-b679-4f68-82aa-778ec9b3f85c<table><tr><td style="font-weight:bold;vertical-align:top;">comment</td><td style="vertical-align:top;">:</td><td><div></div></td></tr><tr><td style="font-weight:bold;vertical-align:top;">domain</td><td style="vertical-align:top;">:</td><td><div></div></td></tr><tr><td style="font-weight:bold;vertical-align:top;">expires</td><td style="vertical-align:top;">:</td><td><div></div></td></tr><tr><td style="font-weight:bold;vertical-align:top;">httponly</td><td style="vertical-align:top;">:</td><td><div></div></td></tr><tr><td style="font-weight:bold;vertical-align:top;">max-age</td><td style="vertical-align:top;">:</td><td><div></div></td></tr><tr><td style="font-weight:bold;vertical-align:top;">path</td><td style="vertical-align:top;">:</td><td><div></div></td></tr><tr><td style="font-weight:bold;vertical-align:top;">secure</td><td style="vertical-align:top;">:</td><td><div></div></td></tr><tr><td style="font-weight:bold;vertical-align:top;">version</td><td style="vertical-align:top;">:</td><td><div></div></td></tr></table></div></td></tr><tr><td style="font-weight:bold;vertical-align:top;">session_id_sispiosinconsultav2</td><td style="vertical-align:top;">:</td><td><div>127.0.0.1-b4f2cfd3-ec17-405b-8b39-5c5dcfe8b22e<table><tr><td style="font-weight:bold;vertical-align:top;">comment</td><td style="vertical-align:top;">:</td><td><div></div></td></tr><tr><td style="font-weight:bold;vertical-align:top;">domain</td><td style="vertical-align:top;">:</td><td><div></div></td></tr><tr><td style="font-weight:bold;vertical-align:top;">expires</td><td style="vertical-align:top;">:</td><td><div></div></td></tr><tr><td style="font-weight:bold;vertical-align:top;">httponly</td><td style="vertical-align:top;">:</td><td><div></div></td></tr><tr><td style="font-weight:bold;vertical-align:top;">max-age</td><td style="vertical-align:top;">:</td><td><div></div></td></tr><tr><td style="font-weight:bold;vertical-align:top;">path</td><td style="vertical-align:top;">:</td><td><div></div></td></tr><tr><td style="font-weight:bold;vertical-align:top;">secure</td><td style="vertical-align:top;">:</td><td><div></div></td></tr><tr><td style="font-weight:bold;vertical-align:top;">version</td><td style="vertical-align:top;">:</td><td><div></div></td></tr></table></div></td></tr><tr><td style="font-weight:bold;vertical-align:top;">session_id_welcome</td><td style="vertical-align:top;">:</td><td><div>127.0.0.1-22f83638-45cc-46e0-9f48-2fad66f8a0f8<table><tr><td style="font-weight:bold;vertical-align:top;">comment</td><td style="vertical-align:top;">:</td><td><div></div></td></tr><tr><td style="font-weight:bold;vertical-align:top;">domain</td><td style="vertical-align:top;">:</td><td><div></div></td></tr><tr><td style="font-weight:bold;vertical-align:top;">expires</td><td style="vertical-align:top;">:</td><td><div></div></td></tr><tr><td style="font-weight:bold;vertical-align:top;">httponly</td><td style="vertical-align:top;">:</td><td><div></div></td></tr><tr><td style="font-weight:bold;vertical-align:top;">max-age</td><td style="vertical-align:top;">:</td><td><div></div></td></tr><tr><td style="font-weight:bold;vertical-align:top;">path</td><td style="vertical-align:top;">:</td><td><div></div></td></tr><tr><td style="font-weight:bold;vertical-align:top;">secure</td><td style="vertical-align:top;">:</td><td><div></div></td></tr><tr><td style="font-weight:bold;vertical-align:top;">version</td><td style="vertical-align:top;">:</td><td><div></div></td></tr></table></div></td></tr></table></div></td></tr><tr><td style="font-weight:bold;vertical-align:top;">env</td><td style="vertical-align:top;">:</td><td><div><table><tr><td style="font-weight:bold;vertical-align:top;">HTTP_ACCEPT</td><td style="vertical-align:top;">:</td><td><div>text/html,application/xhtml+xml,application/xml;q=0.9,*/*;q=0.8</div></td></tr><tr><td style="font-weight:bold;vertical-align:top;">HTTP_ACCEPT_ENCODING</td><td style="vertical-align:top;">:</td><td><div>gzip, deflate</div></td></tr><tr><td style="font-weight:bold;vertical-align:top;">HTTP_ACCEPT_LANGUAGE</td><td style="vertical-align:top;">:</td><td><div>es-ES,es;q=0.8,en-US;q=0.5,en;q=0.3</div></td></tr><tr><td style="font-weight:bold;vertical-align:top;">HTTP_CONNECTION</td><td style="vertical-align:top;">:</td><td><div>keep-alive</div></td></tr><tr><td style="font-weight:bold;vertical-align:top;">HTTP_COOKIE</td><td style="vertical-align:top;">:</td><td><div>session_id_welcome=127.0.0.1-22f83638-45cc-46e0-9f48-2fad66f8a0f8; session_id_admin=127.0.0.1-0dd0b033-b679-4f68-82aa-778ec9b3f85c; session_id_sispiosinconsultav2=127.0.0.1-b4f2cfd3-ec17-405b-8b39-5c5dcfe8b22e</div></td></tr><tr><td style="font-weight:bold;vertical-align:top;">HTTP_HOST</td><td style="vertical-align:top;">:</td><td><div>127.0.0.1:8000</div></td></tr><tr><td style="font-weight:bold;vertical-align:top;">HTTP_REFERER</td><td style="vertical-align:top;">:</td><td><div>http://127.0.0.1:8000/SisPIOSinConsultaV2/default/index</div></td></tr><tr><td style="font-weight:bold;vertical-align:top;">HTTP_UPGRADE_INSECURE_REQUESTS</td><td style="vertical-align:top;">:</td><td><div>1</div></td></tr><tr><td style="font-weight:bold;vertical-align:top;">HTTP_USER_AGENT</td><td style="vertical-align:top;">:</td><td><div>Mozilla/5.0 (X11; Ubuntu; Linux x86_64; rv:56.0) Gecko/20100101 Firefox/56.0</div></td></tr><tr><td style="font-weight:bold;vertical-align:top;">PATH_INFO</td><td style="vertical-align:top;">:</td><td><div>/SisPIOSinConsultaV2/default/coordinadorLiceo</div></td></tr><tr><td style="font-weight:bold;vertical-align:top;">QUERY_STRING</td><td style="vertical-align:top;">:</td><td><div></div></td></tr><tr><td style="font-weight:bold;vertical-align:top;">REMOTE_ADDR</td><td style="vertical-align:top;">:</td><td><div>127.0.0.1</div></td></tr><tr><td style="font-weight:bold;vertical-align:top;">REMOTE_PORT</td><td style="vertical-align:top;">:</td><td><div>56208</div></td></tr><tr><td style="font-weight:bold;vertical-align:top;">REQUEST_METHOD</td><td style="vertical-align:top;">:</td><td><div>GET</div></td></tr><tr><td style="font-weight:bold;vertical-align:top;">SCRIPT_NAME</td><td style="vertical-align:top;">:</td><td><div></div></td></tr><tr><td style="font-weight:bold;vertical-align:top;">SERVER_NAME</td><td style="vertical-align:top;">:</td><td><div>aabv-Lenovo-Yoga-2-11</div></td></tr><tr><td style="font-weight:bold;vertical-align:top;">SERVER_PORT</td><td style="vertical-align:top;">:</td><td><div>8000</div></td></tr><tr><td style="font-weight:bold;vertical-align:top;">SERVER_PROTOCOL</td><td style="vertical-align:top;">:</td><td><div>HTTP/1.1</div></td></tr><tr><td style="font-weight:bold;vertical-align:top;">SERVER_SOFTWARE</td><td style="vertical-align:top;">:</td><td><div>Rocket 1.2.6</div></td></tr><tr><td style="font-weight:bold;vertical-align:top;">app_folders</td><td style="vertical-align:top;">:</td><td><div>set([&#x27;/home/aabv/Documentos/Web2py/web2py/applications/welcome/&#x27;, &#x27;/home/aabv/Documentos/Web2py/web2py/applications/admin/&#x27;, &#x27;/home/aabv/Documentos/Web2py/web2py/applications/SisPIOSinConsultaV2/&#x27;])</div></td></tr><tr><td style="font-weight:bold;vertical-align:top;">applications_parent</td><td style="vertical-align:top;">:</td><td><div>/home/aabv/Documentos/Web2py/web2py</div></td></tr><tr><td style="font-weight:bold;vertical-align:top;">cmd_args</td><td style="vertical-align:top;">:</td><td><div><table></table></div></td></tr><tr><td style="font-weight:bold;vertical-align:top;">cmd_options</td><td style="vertical-align:top;">:</td><td><div>&lt;Values at 0x7f8c816a1518: {&#x27;verbose&#x27;: False, &#x27;ip&#x27;: &#x27;127.0.0.1&#x27;, &#x27;debuglevel&#x27;: 30, &#x27;with_scheduler&#x27;: False, &#x27;shutdown_timeout&#x27;: 5, &#x27;taskbar&#x27;: False, &#x27;with_coverage&#x27;: False, &#x27;pid_filename&#x27;: &#x27;httpserver.pid&#x27;, &#x27;maxthreads&#x27;: None, &#x27;softcron&#x27;: False, &#x27;server_name&#x27;: &#x27;aabv-Lenovo-Yoga-2-11&#x27;, &#x27;bpython&#x27;: False, &#x27;nogui&#x27;: False, &#x27;port&#x27;: 8000, &#x27;print_errors&#x27;: False, &#x27;extcron&#x27;: False, &#x27;runcron&#x27;: False, &#x27;run_system_tests&#x27;: False, &#x27;test&#x27;: None, &#x27;folder&#x27;: &#x27;/home/aabv/Documentos/Web2py/web2py&#x27;, &#x27;config&#x27;: &#x27;&#x27;, &#x27;minthreads&#x27;: None, &#x27;shell&#x27;: None, &#x27;run&#x27;: &#x27;&#x27;, &#x27;log_filename&#x27;: &#x27;httpserver.log&#x27;, &#x27;profiler_dir&#x27;: None, &#x27;args&#x27;: [&#x27;&#x27;], &#x27;socket_timeout&#x27;: 5, &#x27;ssl_ca_certificate&#x27;: None, &#x27;scheduler&#x27;: None, &#x27;interfaces&#x27;: None, &#x27;ssl_private_key&#x27;: &#x27;&#x27;, &#x27;gae&#x27;: None, &#x27;password&#x27;: &#x27;******&#x27;, &#x27;request_queue_size&#x27;: 5, &#x27;ssl_certificate&#x27;: &#x27;&#x27;, &#x27;cronjob&#x27;: False, &#x27;numthreads&#x27;: None, &#x27;quiet&#x27;: False, &#x27;import_models&#x27;: False, &#x27;timeout&#x27;: 10, &#x27;plain&#x27;: False, &#x27;nobanner&#x27;: False}&gt;</div></td></tr><tr><td style="font-weight:bold;vertical-align:top;">db_sessions</td><td style="vertical-align:top;">:</td><td><div>set([])</div></td></tr><tr><td style="font-weight:bold;vertical-align:top;">debugging</td><td style="vertical-align:top;">:</td><td><div>True</div></td></tr><tr><td style="font-weight:bold;vertical-align:top;">gluon_parent</td><td style="vertical-align:top;">:</td><td><div>/home/aabv/Documentos/Web2py/web2py</div></td></tr><tr><td style="font-weight:bold;vertical-align:top;">http_accept</td><td style="vertical-align:top;">:</td><td><div>text/html,application/xhtml+xml,application/xml;q=0.9,*/*;q=0.8</div></td></tr><tr><td style="font-weight:bold;vertical-align:top;">http_accept_encoding</td><td style="vertical-align:top;">:</td><td><div>gzip, deflate</div></td></tr><tr><td style="font-weight:bold;vertical-align:top;">http_accept_language</td><td style="vertical-align:top;">:</td><td><div>es-ES,es;q=0.8,en-US;q=0.5,en;q=0.3</div></td></tr><tr><td style="font-weight:bold;vertical-align:top;">http_connection</td><td style="vertical-align:top;">:</td><td><div>keep-alive</div></td></tr><tr><td style="font-weight:bold;vertical-align:top;">http_cookie</td><td style="vertical-align:top;">:</td><td><div>session_id_welcome=127.0.0.1-22f83638-45cc-46e0-9f48-2fad66f8a0f8; session_id_admin=127.0.0.1-0dd0b033-b679-4f68-82aa-778ec9b3f85c; session_id_sispiosinconsultav2=127.0.0.1-b4f2cfd3-ec17-405b-8b39-5c5dcfe8b22e</div></td></tr><tr><td style="font-weight:bold;vertical-align:top;">http_host</td><td style="vertical-align:top;">:</td><td><div>127.0.0.1:8000</div></td></tr><tr><td style="font-weight:bold;vertical-align:top;">http_referer</td><td style="vertical-align:top;">:</td><td><div>http://127.0.0.1:8000/SisPIOSinConsultaV2/default/index</div></td></tr><tr><td style="font-weight:bold;vertical-align:top;">http_upgrade_insecure_requests</td><td style="vertical-align:top;">:</td><td><div>1</div></td></tr><tr><td style="font-weight:bold;vertical-align:top;">http_user_agent</td><td style="vertical-align:top;">:</td><td><div>Mozilla/5.0 (X11; Ubuntu; Linux x86_64; rv:56.0) Gecko/20100101 Firefox/56.0</div></td></tr><tr><td style="font-weight:bold;vertical-align:top;">is_jython</td><td style="vertical-align:top;">:</td><td><div>False</div></td></tr><tr><td style="font-weight:bold;vertical-align:top;">is_pypy</td><td style="vertical-align:top;">:</td><td><div>False</div></td></tr><tr><td style="font-weight:bold;vertical-align:top;">is_source</td><td style="vertical-align:top;">:</td><td><div>True</div></td></tr><tr><td style="font-weight:bold;vertical-align:top;">local_hosts</td><td style="vertical-align:top;">:</td><td><div><table><tr><td><div>aabv-Lenovo-Yoga-2-11</div></td></tr><tr><td><div>::1</div></td></tr><tr><td><div>127.0.1.1</div></td></tr><tr><td><div>::ffff:127.0.0.1</div></td></tr><tr><td><div>127.0.0.1</div></td></tr></table></div></td></tr><tr><td style="font-weight:bold;vertical-align:top;">path_info</td><td style="vertical-align:top;">:</td><td><div>/SisPIOSinConsultaV2/default/coordinadorLiceo</div></td></tr><tr><td style="font-weight:bold;vertical-align:top;">query_string</td><td style="vertical-align:top;">:</td><td><div></div></td></tr><tr><td style="font-weight:bold;vertical-align:top;">remote_addr</td><td style="vertical-align:top;">:</td><td><div>127.0.0.1</div></td></tr><tr><td style="font-weight:bold;vertical-align:top;">remote_port</td><td style="vertical-align:top;">:</td><td><div>56208</div></td></tr><tr><td style="font-weight:bold;vertical-align:top;">request_method</td><td style="vertical-align:top;">:</td><td><div>GET</div></td></tr><tr><td style="font-weight:bold;vertical-align:top;">request_uri</td><td style="vertical-align:top;">:</td><td><div>/SisPIOSinConsultaV2/default/coordinadorLiceo</div></td></tr><tr><td style="font-weight:bold;vertical-align:top;">script_name</td><td style="vertical-align:top;">:</td><td><div></div></td></tr><tr><td style="font-weight:bold;vertical-align:top;">server_name</td><td style="vertical-align:top;">:</td><td><div>aabv-Lenovo-Yoga-2-11</div></td></tr><tr><td style="font-weight:bold;vertical-align:top;">server_port</td><td style="vertical-align:top;">:</td><td><div>8000</div></td></tr><tr><td style="font-weight:bold;vertical-align:top;">server_protocol</td><td style="vertical-align:top;">:</td><td><div>HTTP/1.1</div></td></tr><tr><td style="font-weight:bold;vertical-align:top;">server_software</td><td style="vertical-align:top;">:</td><td><div>Rocket 1.2.6</div></td></tr><tr><td style="font-weight:bold;vertical-align:top;">web2py_path</td><td style="vertical-align:top;">:</td><td><div>/home/aabv/Documentos/Web2py/web2py</div></td></tr><tr><td style="font-weight:bold;vertical-align:top;">web2py_version</td><td style="vertical-align:top;">:</td><td><div>2.14.6-stable+timestamp.2016.05.10.00.21.47</div></td></tr><tr><td style="font-weight:bold;vertical-align:top;">wsgi.errors</td><td style="vertical-align:top;">:</td><td><div>&lt;open file &#x27;&lt;stderr&gt;&#x27;, mode &#x27;w&#x27; at 0x7f8c87f451e0&gt;</div></td></tr><tr><td style="font-weight:bold;vertical-align:top;">wsgi.file_wrapper</td><td style="vertical-align:top;">:</td><td><div>&lt;class wsgiref.util.FileWrapper at 0x7f8c81735f58&gt;</div></td></tr><tr><td style="font-weight:bold;vertical-align:top;">wsgi.input</td><td style="vertical-align:top;">:</td><td><div>&lt;socket._fileobject object at 0x7f8c3d9e2250&gt;</div></td></tr><tr><td style="font-weight:bold;vertical-align:top;">wsgi.multiprocess</td><td style="vertical-align:top;">:</td><td><div>False</div></td></tr><tr><td style="font-weight:bold;vertical-align:top;">wsgi.multithread</td><td style="vertical-align:top;">:</td><td><div>True</div></td></tr><tr><td style="font-weight:bold;vertical-align:top;">wsgi.run_once</td><td style="vertical-align:top;">:</td><td><div>False</div></td></tr><tr><td style="font-weight:bold;vertical-align:top;">wsgi.url_scheme</td><td style="vertical-align:top;">:</td><td><div>http</div></td></tr><tr><td style="font-weight:bold;vertical-align:top;">wsgi.version</td><td style="vertical-align:top;">:</td><td><div><table><tr><td><div>1</div></td></tr><tr><td><div>0</div></td></tr></table></div></td></tr><tr><td style="font-weight:bold;vertical-align:top;">wsgi_errors</td><td style="vertical-align:top;">:</td><td><div>&lt;open file &#x27;&lt;stderr&gt;&#x27;, mode &#x27;w&#x27; at 0x7f8c87f451e0&gt;</div></td></tr><tr><td style="font-weight:bold;vertical-align:top;">wsgi_file_wrapper</td><td style="vertical-align:top;">:</td><td><div>&lt;class wsgiref.util.FileWrapper at 0x7f8c81735f58&gt;</div></td></tr><tr><td style="font-weight:bold;vertical-align:top;">wsgi_input</td><td style="vertical-align:top;">:</td><td><div>&lt;socket._fileobject object at 0x7f8c3d9e2250&gt;</div></td></tr><tr><td style="font-weight:bold;vertical-align:top;">wsgi_multiprocess</td><td style="vertical-align:top;">:</td><td><div>False</div></td></tr><tr><td style="font-weight:bold;vertical-align:top;">wsgi_multithread</td><td style="vertical-align:top;">:</td><td><div>True</div></td></tr><tr><td style="font-weight:bold;vertical-align:top;">wsgi_run_once</td><td style="vertical-align:top;">:</td><td><div>False</div></td></tr><tr><td style="font-weight:bold;vertical-align:top;">wsgi_url_scheme</td><td style="vertical-align:top;">:</td><td><div>http</div></td></tr><tr><td style="font-weight:bold;vertical-align:top;">wsgi_version</td><td style="vertical-align:top;">:</td><td><div><table><tr><td><div>1</div></td></tr><tr><td><div>0</div></td></tr></table></div></td></tr></table></div></td></tr><tr><td style="font-weight:bold;vertical-align:top;">extension</td><td style="vertical-align:top;">:</td><td><div>html</div></td></tr><tr><td style="font-weight:bold;vertical-align:top;">folder</td><td style="vertical-align:top;">:</td><td><div>/home/aabv/Documentos/Web2py/web2py/applications/SisPIOSinConsultaV2/</div></td></tr><tr><td style="font-weight:bold;vertical-align:top;">function</td><td style="vertical-align:top;">:</td><td><div>coordinadorLiceo</div></td></tr><tr><td style="font-weight:bold;vertical-align:top;">global_settings</td><td style="vertical-align:top;">:</td><td><div><table><tr><td style="font-weight:bold;vertical-align:top;">app_folders</td><td style="vertical-align:top;">:</td><td><div>set([&#x27;/home/aabv/Documentos/Web2py/web2py/applications/welcome/&#x27;, &#x27;/home/aabv/Documentos/Web2py/web2py/applications/admin/&#x27;, &#x27;/home/aabv/Documentos/Web2py/web2py/applications/SisPIOSinConsultaV2/&#x27;])</div></td></tr><tr><td style="font-weight:bold;vertical-align:top;">applications_parent</td><td style="vertical-align:top;">:</td><td><div>/home/aabv/Documentos/Web2py/web2py</div></td></tr><tr><td style="font-weight:bold;vertical-align:top;">cmd_args</td><td style="vertical-align:top;">:</td><td><div><table></table></div></td></tr><tr><td style="font-weight:bold;vertical-align:top;">cmd_options</td><td style="vertical-align:top;">:</td><td><div>&lt;Values at 0x7f8c816a1518: {&#x27;verbose&#x27;: False, &#x27;ip&#x27;: &#x27;127.0.0.1&#x27;, &#x27;debuglevel&#x27;: 30, &#x27;with_scheduler&#x27;: False, &#x27;shutdown_timeout&#x27;: 5, &#x27;taskbar&#x27;: False, &#x27;with_coverage&#x27;: False, &#x27;pid_filename&#x27;: &#x27;httpserver.pid&#x27;, &#x27;maxthreads&#x27;: None, &#x27;softcron&#x27;: False, &#x27;server_name&#x27;: &#x27;aabv-Lenovo-Yoga-2-11&#x27;, &#x27;bpython&#x27;: False, &#x27;nogui&#x27;: False, &#x27;port&#x27;: 8000, &#x27;print_errors&#x27;: False, &#x27;extcron&#x27;: False, &#x27;runcron&#x27;: False, &#x27;run_system_tests&#x27;: False, &#x27;test&#x27;: None, &#x27;folder&#x27;: &#x27;/home/aabv/Documentos/Web2py/web2py&#x27;, &#x27;config&#x27;: &#x27;&#x27;, &#x27;minthreads&#x27;: None, &#x27;shell&#x27;: None, &#x27;run&#x27;: &#x27;&#x27;, &#x27;log_filename&#x27;: &#x27;httpserver.log&#x27;, &#x27;profiler_dir&#x27;: None, &#x27;args&#x27;: [&#x27;&#x27;], &#x27;socket_timeout&#x27;: 5, &#x27;ssl_ca_certificate&#x27;: None, &#x27;scheduler&#x27;: None, &#x27;interfaces&#x27;: None, &#x27;ssl_private_key&#x27;: &#x27;&#x27;, &#x27;gae&#x27;: None, &#x27;password&#x27;: &#x27;******&#x27;, &#x27;request_queue_size&#x27;: 5, &#x27;ssl_certificate&#x27;: &#x27;&#x27;, &#x27;cronjob&#x27;: False, &#x27;numthreads&#x27;: None, &#x27;quiet&#x27;: False, &#x27;import_models&#x27;: False, &#x27;timeout&#x27;: 10, &#x27;plain&#x27;: False, &#x27;nobanner&#x27;: False}&gt;</div></td></tr><tr><td style="font-weight:bold;vertical-align:top;">db_sessions</td><td style="vertical-align:top;">:</td><td><div>set([])</div></td></tr><tr><td style="font-weight:bold;vertical-align:top;">debugging</td><td style="vertical-align:top;">:</td><td><div>True</div></td></tr><tr><td style="font-weight:bold;vertical-align:top;">gluon_parent</td><td style="vertical-align:top;">:</td><td><div>/home/aabv/Documentos/Web2py/web2py</div></td></tr><tr><td style="font-weight:bold;vertical-align:top;">is_jython</td><td style="vertical-align:top;">:</td><td><div>False</div></td></tr><tr><td style="font-weight:bold;vertical-align:top;">is_pypy</td><td style="vertical-align:top;">:</td><td><div>False</div></td></tr><tr><td style="font-weight:bold;vertical-align:top;">is_source</td><td style="vertical-align:top;">:</td><td><div>True</div></td></tr><tr><td style="font-weight:bold;vertical-align:top;">local_hosts</td><td style="vertical-align:top;">:</td><td><div><table><tr><td><div>aabv-Lenovo-Yoga-2-11</div></td></tr><tr><td><div>::1</div></td></tr><tr><td><div>127.0.1.1</div></td></tr><tr><td><div>::ffff:127.0.0.1</div></td></tr><tr><td><div>127.0.0.1</div></td></tr></table></div></td></tr><tr><td style="font-weight:bold;vertical-align:top;">web2py_version</td><td style="vertical-align:top;">:</td><td><div>2.14.6-stable+timestamp.2016.05.10.00.21.47</div></td></tr></table></div></td></tr><tr><td style="font-weight:bold;vertical-align:top;">is_https</td><td style="vertical-align:top;">:</td><td><div>False</div></td></tr><tr><td style="font-weight:bold;vertical-align:top;">is_local</td><td style="vertical-align:top;">:</td><td><div>True</div></td></tr><tr><td style="font-weight:bold;vertical-align:top;">is_restful</td><td style="vertical-align:top;">:</td><td><div>False</div></td></tr><tr><td style="font-weight:bold;vertical-align:top;">is_scheduler</td><td style="vertical-align:top;">:</td><td><div>False</div></td></tr><tr><td style="font-weight:bold;vertical-align:top;">is_shell</td><td style="vertical-align:top;">:</td><td><div>False</div></td></tr><tr><td style="font-weight:bold;vertical-align:top;">now</td><td style="vertical-align:top;">:</td><td><div>datetime.datetime(2017, 10, 14, 0, 7, 13, 823119)</div></td></tr><tr><td style="font-weight:bold;vertical-align:top;">raw_args</td><td style="vertical-align:top;">:</td><td><div></div></td></tr><tr><td style="font-weight:bold;vertical-align:top;">raw_extension</td><td style="vertical-align:top;">:</td><td><div>None</div></td></tr><tr><td style="font-weight:bold;vertical-align:top;">url</td><td style="vertical-align:top;">:</td><td><div>/SisPIOSinConsultaV2/default/coordinadorLiceo</div></td></tr><tr><td style="font-weight:bold;vertical-align:top;">utcnow</td><td style="vertical-align:top;">:</td><td><div>datetime.datetime(2017, 10, 14, 4, 7, 13, 823168)</div></td></tr><tr><td style="font-weight:bold;vertical-align:top;">wsgi</td><td style="vertical-align:top;">:</td><td><div>&lt;gluon.main.LazyWSGI object at 0x7f8c77f3fcd0&gt;</div></td></tr></table></div>'
tRp57
sS'frames'
p58
(lp59
(dp60
S'file'
p61
S'/home/aabv/Documentos/Web2py/web2py/gluon/restricted.py'
p62
sS'dump'
p63
(dp64
S'environment'
p65
S"{'A': <class 'gluon.html.A'>, 'ANY_OF': <class 'gluon.validators.ANY_OF'>, 'ASSIGNJS': <function ASSIGNJS>, 'AppConfig': <function AppConfig>, 'Auth': <class 'gluon.tools.Auth'>, 'B': <class 'gluon.html.B'>, 'BEAUTIFY': <class 'gluon.html.BEAUTIFY'>, 'BODY': <class 'gluon.html.BODY'>, 'BR': <class 'gluon.html.BR'>, 'BUTTON': <class 'gluon.html.BUTTON'>, ...}"
p66
sS'ccode'
p67
S'<code object <module> at 0x7f8c3e6152b0, file "/...IOSinConsultaV2/controllers/default.py", line 11>'
p68
ssS'lnum'
p69
I227
sS'lines'
p70
(dp71
I224
S'            ccode = code'
p72
sI225
S'        else:'
p73
sI226
S'            ccode = compile2(code, layer)'
p74
sI227
S'        exec ccode in environment'
p75
sI228
S'    except HTTP:'
p76
sI229
S'        raise'
p77
sI230
S'    except RestrictedError:'
p78
sI231
S'        # do not encapsulate (obfuscate) the original RestrictedError'
p79
sI222
S'    try:'
p80
sI223
S'        if isinstance(code, types.CodeType):'
p81
ssS'call'
p82
S"(code='# -*- coding: utf-8 -*-\\n# this file is released ...esponse._vars=response._caller(coordinadorLiceo)\\n', environment={'A': <class 'gluon.html.A'>, 'ANY_OF': <class 'gluon.validators.ANY_OF'>, 'ASSIGNJS': <function ASSIGNJS>, 'AppConfig': <function AppConfig>, 'Auth': <class 'gluon.tools.Auth'>, 'B': <class 'gluon.html.B'>, 'BEAUTIFY': <class 'gluon.html.BEAUTIFY'>, 'BODY': <class 'gluon.html.BODY'>, 'BR': <class 'gluon.html.BR'>, 'BUTTON': <class 'gluon.html.BUTTON'>, ...}, layer='/home/aabv/Documentos/Web2py/web2py/applications/SisPIOSinConsultaV2/controllers/default.py')"
p83
sS'func'
p84
S'restricted'
p85
sa(dp86
g61
S'/home/aabv/Documentos/Web2py/web2py/applications/SisPIOSinConsultaV2/controllers/default.py'
p87
sg63
(dp88
sg69
I414
sg70
(dp89
I403
S''
sI404
S'    elif formEstudiante.errors:'
p90
sI405
S'\t\t#error = True'
p91
sI406
S"\t\tresponse.flash = 'Hay un error en un campo.'"
p92
sI407
S''
sI408
S'    ############################'
p93
sI409
S'    ###fin de Consula de datos'
p94
sI410
S'    ############################'
p95
sI411
S''
sI412
S'    return dict(formDatosBasicos = formDatosBasicos, formEstudiante = formEstudiante)'
p96
ssg82
S'()'
p97
sg84
S'<module>'
p98
sa(dp99
g61
S'/home/aabv/Documentos/Web2py/web2py/gluon/globals.py'
p100
sg63
(dp101
S'self'
p102
S'undefined'
p103
sS'f'
S'<function coordinadorLiceo>'
p104
ssg69
I417
sg70
(dp105
I416
S'        self._vars = None'
p106
sI417
S'        self._caller = lambda f: f()'
p107
sI418
S'        self._view_environment = None'
p108
sI419
S'        self._custom_commit = None'
p109
sI420
S'        self._custom_rollback = None'
p110
sI421
S"        self.generic_patterns = ['*']"
p111
sI412
S"        self.flash = ''            # used by the default view layout"
p112
sI413
S'        self.meta = Storage()      # used by web2py_ajax.html'
p113
sI414
S'        self.menu = []             # used by the default view layout'
p114
sI415
S'        self.files = []            # used by web2py_ajax.html'
p115
ssg82
S'(f=<function coordinadorLiceo>)'
p116
sg84
S'<lambda>'
p117
sa(dp118
g61
S'/home/aabv/Documentos/Web2py/web2py/gluon/tools.py'
p119
sg63
(dp120
S'action'
p121
S'<function coordinadorLiceo>'
p122
sS'a'
S'()'
p123
sS'b'
g45
ssg69
I4241
sg70
(dp124
I4236
S'                    flag = condition'
p125
sI4237
S'                if not flag:'
p126
sI4238
S'                    current.session.flash = self.messages.access_denied'
p127
sI4239
S'                    return call_or_redirect('
p128
sI4240
S'                        self.settings.on_failed_authorization)'
p129
sI4241
S'                return action(*a, **b)'
p130
sI4242
S'            f.__doc__ = action.__doc__'
p131
sI4243
S'            f.__name__ = action.__name__'
p132
sI4244
S'            f.__dict__.update(action.__dict__)'
p133
sI4245
S'            return f'
p134
ssg82
S'(*a=(), **b={})'
p135
sg84
S'f'
sa(dp136
g61
S'/home/aabv/Documentos/Web2py/web2py/gluon/tools.py'
p137
sg63
(dp138
S'action'
p139
S'<function coordinadorLiceo>'
p140
sS'a'
S'()'
p141
sS'b'
g45
ssg69
I4241
sg70
(dp142
I4236
S'                    flag = condition'
p143
sI4237
S'                if not flag:'
p144
sI4238
S'                    current.session.flash = self.messages.access_denied'
p145
sI4239
S'                    return call_or_redirect('
p146
sI4240
S'                        self.settings.on_failed_authorization)'
p147
sI4241
S'                return action(*a, **b)'
p148
sI4242
S'            f.__doc__ = action.__doc__'
p149
sI4243
S'            f.__name__ = action.__name__'
p150
sI4244
S'            f.__dict__.update(action.__dict__)'
p151
sI4245
S'            return f'
p152
ssg82
S'(*a=(), **b={})'
p153
sg84
S'f'
sa(dp154
g61
S'/home/aabv/Documentos/Web2py/web2py/applications/SisPIOSinConsultaV2/controllers/default.py'
p155
sg63
(dp156
S'default'
p157
g103
sS'representante_liceo.sede'
p158
g103
sS'representante_liceo'
p159
S"<Row {'ci': '12345678', 'id': 1L, 'nombre_liceo': 'Tirso de Molina'}>"
p160
ssg69
I193
sg70
(dp161
I192
S"\t\t\ttype='string',"
p162
sI193
S'\t\t\tdefault=representante_liceo.sede,'
p163
sI194
S'\t\t\trequires=db.representante_liceo.sederequires,'
p164
sI195
S"\t\t\tlabel='nombre_liceo'"
p165
sI196
S'\t\t\t),'
p166
sI197
S"\t\tField('email',"
p167
sI188
S'\t\t\trequires=db.usuario.first_name.requires and db.usuario.last_name.requires,'
p168
sI189
S"\t\t\tlabel='nombre'"
p169
sI190
S'\t\t\t),'
p170
sI191
S"\t\tField('nombre_liceo',"
p171
ssg82
S'()'
p172
sg84
S'coordinadorLiceo'
p173
sa(dp174
g61
S'/home/aabv/Documentos/Web2py/web2py/gluon/packages/dal/pydal/objects.py'
p175
sg63
(dp176
S'builtinAttributeError'
p177
S"<type 'exceptions.AttributeError'>"
p178
ssg69
I90
sg70
(dp179
I85
S''
sI86
S'    def __getattr__(self, k):'
p180
sI87
S'        try:'
p181
sI88
S'            return self.__getitem__(k)'
p182
sI89
S'        except KeyError:'
p183
sI90
S'            raise AttributeError'
p184
sI91
S''
sI92
S'    def __copy__(self):'
p185
sI93
S'        return Row(self)'
p186
sI94
S''
ssg82
S"(self=<Row {'ci': '12345678', 'id': 1L, 'nombre_liceo': 'Tirso de Molina'}>, k='sede')"
p187
sg84
S'__getattr__'
p188
sasS'pyver'
p189
S'Python 2.7.12: /usr/bin/python (prefix: /usr)'
p190
sS'session'
p191
g56
(S'sz\t\x00\x00<div><table><tr><td style="font-weight:bold;vertical-align:top;">auth</td><td style="vertical-align:top;">:</td><td><div><table><tr><td style="font-weight:bold;vertical-align:top;">expiration</td><td style="vertical-align:top;">:</td><td><div>3600</div></td></tr><tr><td style="font-weight:bold;vertical-align:top;">hmac_key</td><td style="vertical-align:top;">:</td><td><div>3a04959e-6845-4f18-838a-c5d969675fad</div></td></tr><tr><td style="font-weight:bold;vertical-align:top;">last_visit</td><td style="vertical-align:top;">:</td><td><div>datetime.datetime(2017, 10, 14, 0, 7, 13, 17405)</div></td></tr><tr><td style="font-weight:bold;vertical-align:top;">remember_me</td><td style="vertical-align:top;">:</td><td><div>False</div></td></tr><tr><td style="font-weight:bold;vertical-align:top;">user</td><td style="vertical-align:top;">:</td><td><div><table><tr><td style="font-weight:bold;vertical-align:top;">email</td><td style="vertical-align:top;">:</td><td><div>alvin@usb.ve</div></td></tr><tr><td style="font-weight:bold;vertical-align:top;">first_name</td><td style="vertical-align:top;">:</td><td><div>Alvin</div></td></tr><tr><td style="font-weight:bold;vertical-align:top;">id</td><td style="vertical-align:top;">:</td><td><div>3L</div></td></tr><tr><td style="font-weight:bold;vertical-align:top;">last_name</td><td style="vertical-align:top;">:</td><td><div>Yakitori</div></td></tr><tr><td style="font-weight:bold;vertical-align:top;">registration_id</td><td style="vertical-align:top;">:</td><td><div></div></td></tr><tr><td style="font-weight:bold;vertical-align:top;">registration_key</td><td style="vertical-align:top;">:</td><td><div></div></td></tr><tr><td style="font-weight:bold;vertical-align:top;">reset_password_key</td><td style="vertical-align:top;">:</td><td><div></div></td></tr><tr><td style="font-weight:bold;vertical-align:top;">username</td><td style="vertical-align:top;">:</td><td><div>12345678</div></td></tr></table></div></td></tr><tr><td style="font-weight:bold;vertical-align:top;">user_groups</td><td style="vertical-align:top;">:</td><td><div><table><tr><td style="font-weight:bold;vertical-align:top;">3</td><td style="vertical-align:top;">:</td><td><div>Representante_liceo</div></td></tr></table></div></td></tr></table></div></td></tr><tr><td style="font-weight:bold;vertical-align:top;">flash</td><td style="vertical-align:top;">:</td><td><div>None</div></td></tr></table></div>'
tRp192
sS'etype'
p193
S"<type 'exceptions.AttributeError'>"
p194
sS'date'
p195
S'Sat Oct 14 00:07:14 2017'
p196
sS'response'
p197
g56
(S's\xda@\x00\x00<div><table><tr><td style="font-weight:bold;vertical-align:top;">body</td><td style="vertical-align:top;">:</td><td><div>&lt;cStringIO.StringO object at 0x7f8c3dec13e8&gt;</div></td></tr><tr><td style="font-weight:bold;vertical-align:top;">cookies</td><td style="vertical-align:top;">:</td><td><div><table><tr><td style="font-weight:bold;vertical-align:top;">session_id_sispiosinconsultav2</td><td style="vertical-align:top;">:</td><td><div>127.0.0.1-b4f2cfd3-ec17-405b-8b39-5c5dcfe8b22e<table><tr><td style="font-weight:bold;vertical-align:top;">comment</td><td style="vertical-align:top;">:</td><td><div></div></td></tr><tr><td style="font-weight:bold;vertical-align:top;">domain</td><td style="vertical-align:top;">:</td><td><div></div></td></tr><tr><td style="font-weight:bold;vertical-align:top;">expires</td><td style="vertical-align:top;">:</td><td><div></div></td></tr><tr><td style="font-weight:bold;vertical-align:top;">httponly</td><td style="vertical-align:top;">:</td><td><div></div></td></tr><tr><td style="font-weight:bold;vertical-align:top;">max-age</td><td style="vertical-align:top;">:</td><td><div></div></td></tr><tr><td style="font-weight:bold;vertical-align:top;">path</td><td style="vertical-align:top;">:</td><td><div>/</div></td></tr><tr><td style="font-weight:bold;vertical-align:top;">secure</td><td style="vertical-align:top;">:</td><td><div></div></td></tr><tr><td style="font-weight:bold;vertical-align:top;">version</td><td style="vertical-align:top;">:</td><td><div></div></td></tr></table></div></td></tr></table></div></td></tr><tr><td style="font-weight:bold;vertical-align:top;">delimiters</td><td style="vertical-align:top;">:</td><td><div><table><tr><td><div>{{</div></td></tr><tr><td><div>}}</div></td></tr></table></div></td></tr><tr><td style="font-weight:bold;vertical-align:top;">files</td><td style="vertical-align:top;">:</td><td><div><table></table></div></td></tr><tr><td style="font-weight:bold;vertical-align:top;">flash</td><td style="vertical-align:top;">:</td><td><div></div></td></tr><tr><td style="font-weight:bold;vertical-align:top;">form_label_separator</td><td style="vertical-align:top;">:</td><td><div></div></td></tr><tr><td style="font-weight:bold;vertical-align:top;">formstyle</td><td style="vertical-align:top;">:</td><td><div>bootstrap3_inline</div></td></tr><tr><td style="font-weight:bold;vertical-align:top;">generic_patterns</td><td style="vertical-align:top;">:</td><td><div><table><tr><td><div>*</div></td></tr></table></div></td></tr><tr><td style="font-weight:bold;vertical-align:top;">google_analytics_id</td><td style="vertical-align:top;">:</td><td><div>None</div></td></tr><tr><td style="font-weight:bold;vertical-align:top;">headers</td><td style="vertical-align:top;">:</td><td><div><table><tr><td style="font-weight:bold;vertical-align:top;">X-Powered-By</td><td style="vertical-align:top;">:</td><td><div>web2py</div></td></tr></table></div></td></tr><tr><td style="font-weight:bold;vertical-align:top;">logo</td><td style="vertical-align:top;">:</td><td><div><a class="navbar-brand" href="http://www.web2py.com/" id="web2py-logo"><b>web<span>2</span>py</b>&trade;&nbsp;</a></div></td></tr><tr><td style="font-weight:bold;vertical-align:top;">menu</td><td style="vertical-align:top;">:</td><td><div><table><tr><td><div><table><tr><td><div>Inicio</div></td></tr><tr><td><div>False</div></td></tr><tr><td><div>/SisPIOSinConsultaV2/default/index</div></td></tr><tr><td><div><table></table></div></td></tr></table></div></td></tr><tr><td><div><table><tr><td><div>Mis Sitios</div></td></tr><tr><td><div>False</div></td></tr><tr><td><div>/admin/default/site</div></td></tr></table></div></td></tr><tr><td><div><table><tr><td><div>Esta Aplicaci\xc3\xb3n</div></td></tr><tr><td><div>False</div></td></tr><tr><td><div>#</div></td></tr><tr><td><div><table><tr><td><div><table><tr><td><div>Design</div></td></tr><tr><td><div>False</div></td></tr><tr><td><div>/admin/default/design/SisPIOSinConsultaV2</div></td></tr></table></div></td></tr><tr><td><div><li class="divider"></li></div></td></tr><tr><td><div><table><tr><td><div>Controlador</div></td></tr><tr><td><div>False</div></td></tr><tr><td><div>/admin/default/edit/SisPIOSinConsultaV2/controllers/default.py</div></td></tr></table></div></td></tr><tr><td><div><table><tr><td><div>Vista</div></td></tr><tr><td><div>False</div></td></tr><tr><td><div>/admin/default/edit/SisPIOSinConsultaV2/views/default/coordinadorLiceo.html</div></td></tr></table></div></td></tr><tr><td><div><table><tr><td><div>Modelo BDD</div></td></tr><tr><td><div>False</div></td></tr><tr><td><div>/admin/default/edit/SisPIOSinConsultaV2/models/db.py</div></td></tr></table></div></td></tr><tr><td><div><table><tr><td><div>Modelo "menu"</div></td></tr><tr><td><div>False</div></td></tr><tr><td><div>/admin/default/edit/SisPIOSinConsultaV2/models/menu.py</div></td></tr></table></div></td></tr><tr><td><div><table><tr><td><div>Config.ini</div></td></tr><tr><td><div>False</div></td></tr><tr><td><div>/admin/default/edit/SisPIOSinConsultaV2/private/appconfig.ini</div></td></tr></table></div></td></tr><tr><td><div><table><tr><td><div>Dise\xc3\xb1o de p\xc3\xa1gina</div></td></tr><tr><td><div>False</div></td></tr><tr><td><div>/admin/default/edit/SisPIOSinConsultaV2/views/layout.html</div></td></tr></table></div></td></tr><tr><td><div><table><tr><td><div>Hoja de estilo</div></td></tr><tr><td><div>False</div></td></tr><tr><td><div>/admin/default/edit/SisPIOSinConsultaV2/static/css/web2py-bootstrap3.css</div></td></tr></table></div></td></tr><tr><td><div><table><tr><td><div>Base de datos</div></td></tr><tr><td><div>False</div></td></tr><tr><td><div>/SisPIOSinConsultaV2/appadmin/index</div></td></tr></table></div></td></tr><tr><td><div><table><tr><td><div>Errores</div></td></tr><tr><td><div>False</div></td></tr><tr><td><div>/admin/default/errors/SisPIOSinConsultaV2</div></td></tr></table></div></td></tr><tr><td><div><table><tr><td><div>Acerca de</div></td></tr><tr><td><div>False</div></td></tr><tr><td><div>/admin/default/about/SisPIOSinConsultaV2</div></td></tr></table></div></td></tr></table></div></td></tr></table></div></td></tr><tr><td><div><table><tr><td><div>web2py.com</div></td></tr><tr><td><div>False</div></td></tr><tr><td><div>#</div></td></tr><tr><td><div><table><tr><td><div><table><tr><td><div>Descargas</div></td></tr><tr><td><div>False</div></td></tr><tr><td><div>http://www.web2py.com/examples/default/download</div></td></tr></table></div></td></tr><tr><td><div><table><tr><td><div>Soporte</div></td></tr><tr><td><div>False</div></td></tr><tr><td><div>http://www.web2py.com/examples/default/support</div></td></tr></table></div></td></tr><tr><td><div><table><tr><td><div>Demostraci\xc3\xb3n</div></td></tr><tr><td><div>False</div></td></tr><tr><td><div>http://web2py.com/demo_admin</div></td></tr></table></div></td></tr><tr><td><div><table><tr><td><div>Ejemplos R\xc3\xa1pidos</div></td></tr><tr><td><div>False</div></td></tr><tr><td><div>http://web2py.com/examples/default/examples</div></td></tr></table></div></td></tr><tr><td><div><table><tr><td><div>FAQ</div></td></tr><tr><td><div>False</div></td></tr><tr><td><div>http://web2py.com/AlterEgo</div></td></tr></table></div></td></tr><tr><td><div><table><tr><td><div>V\xc3\xaddeos</div></td></tr><tr><td><div>False</div></td></tr><tr><td><div>http://www.web2py.com/examples/default/videos/</div></td></tr></table></div></td></tr><tr><td><div><table><tr><td><div>Aplicaciones Libres</div></td></tr><tr><td><div>False</div></td></tr><tr><td><div>http://web2py.com/appliances</div></td></tr></table></div></td></tr><tr><td><div><table><tr><td><div>Plugins</div></td></tr><tr><td><div>False</div></td></tr><tr><td><div>http://web2py.com/plugins</div></td></tr></table></div></td></tr><tr><td><div><table><tr><td><div>Recetas</div></td></tr><tr><td><div>False</div></td></tr><tr><td><div>http://web2pyslices.com/</div></td></tr></table></div></td></tr></table></div></td></tr></table></div></td></tr><tr><td><div><table><tr><td><div>Documentaci\xc3\xb3n</div></td></tr><tr><td><div>False</div></td></tr><tr><td><div>#</div></td></tr><tr><td><div><table><tr><td><div><table><tr><td><div>Online book</div></td></tr><tr><td><div>False</div></td></tr><tr><td><div>http://www.web2py.com/book</div></td></tr></table></div></td></tr><tr><td><div><li class="divider"></li></div></td></tr><tr><td><div><table><tr><td><div>Prefacio</div></td></tr><tr><td><div>False</div></td></tr><tr><td><div>http://www.web2py.com/book/default/chapter/00</div></td></tr></table></div></td></tr><tr><td><div><table><tr><td><div>Introducci\xc3\xb3n</div></td></tr><tr><td><div>False</div></td></tr><tr><td><div>http://www.web2py.com/book/default/chapter/01</div></td></tr></table></div></td></tr><tr><td><div><table><tr><td><div>Python</div></td></tr><tr><td><div>False</div></td></tr><tr><td><div>http://www.web2py.com/book/default/chapter/02</div></td></tr></table></div></td></tr><tr><td><div><table><tr><td><div>Resumen</div></td></tr><tr><td><div>False</div></td></tr><tr><td><div>http://www.web2py.com/book/default/chapter/03</div></td></tr></table></div></td></tr><tr><td><div><table><tr><td><div>El N\xc3\xbacleo</div></td></tr><tr><td><div>False</div></td></tr><tr><td><div>http://www.web2py.com/book/default/chapter/04</div></td></tr></table></div></td></tr><tr><td><div><table><tr><td><div>Las Vistas</div></td></tr><tr><td><div>False</div></td></tr><tr><td><div>http://www.web2py.com/book/default/chapter/05</div></td></tr></table></div></td></tr><tr><td><div><table><tr><td><div>Base de datos</div></td></tr><tr><td><div>False</div></td></tr><tr><td><div>http://www.web2py.com/book/default/chapter/06</div></td></tr></table></div></td></tr><tr><td><div><table><tr><td><div>Formularios y validadores</div></td></tr><tr><td><div>False</div></td></tr><tr><td><div>http://www.web2py.com/book/default/chapter/07</div></td></tr></table></div></td></tr><tr><td><div><table><tr><td><div>Correo electr\xc3\xb3nico y SMS</div></td></tr><tr><td><div>False</div></td></tr><tr><td><div>http://www.web2py.com/book/default/chapter/08</div></td></tr></table></div></td></tr><tr><td><div><table><tr><td><div>Control de Acceso</div></td></tr><tr><td><div>False</div></td></tr><tr><td><div>http://www.web2py.com/book/default/chapter/09</div></td></tr></table></div></td></tr><tr><td><div><table><tr><td><div>Servicios</div></td></tr><tr><td><div>False</div></td></tr><tr><td><div>http://www.web2py.com/book/default/chapter/10</div></td></tr></table></div></td></tr><tr><td><div><table><tr><td><div>Recetas AJAX</div></td></tr><tr><td><div>False</div></td></tr><tr><td><div>http://www.web2py.com/book/default/chapter/11</div></td></tr></table></div></td></tr><tr><td><div><table><tr><td><div>Componentes y Plugins</div></td></tr><tr><td><div>False</div></td></tr><tr><td><div>http://www.web2py.com/book/default/chapter/12</div></td></tr></table></div></td></tr><tr><td><div><table><tr><td><div>Recetas de despliegue</div></td></tr><tr><td><div>False</div></td></tr><tr><td><div>http://www.web2py.com/book/default/chapter/13</div></td></tr></table></div></td></tr><tr><td><div><table><tr><td><div>Otras Recetas</div></td></tr><tr><td><div>False</div></td></tr><tr><td><div>http://www.web2py.com/book/default/chapter/14</div></td></tr></table></div></td></tr><tr><td><div><table><tr><td><div>Helping web2py</div></td></tr><tr><td><div>False</div></td></tr><tr><td><div>http://www.web2py.com/book/default/chapter/15</div></td></tr></table></div></td></tr><tr><td><div><table><tr><td><div>Buy web2py\'s book</div></td></tr><tr><td><div>False</div></td></tr><tr><td><div>http://stores.lulu.com/web2py</div></td></tr></table></div></td></tr></table></div></td></tr></table></div></td></tr><tr><td><div><table><tr><td><div>Comunidad</div></td></tr><tr><td><div>False</div></td></tr><tr><td><div>None</div></td></tr><tr><td><div><table><tr><td><div><table><tr><td><div>Grupos</div></td></tr><tr><td><div>False</div></td></tr><tr><td><div>http://www.web2py.com/examples/default/usergroups</div></td></tr></table></div></td></tr><tr><td><div><table><tr><td><div>Twitter</div></td></tr><tr><td><div>False</div></td></tr><tr><td><div>http://twitter.com/web2py</div></td></tr></table></div></td></tr><tr><td><div><table><tr><td><div>Chat en vivo</div></td></tr><tr><td><div>False</div></td></tr><tr><td><div>http://webchat.freenode.net/?channels=web2py</div></td></tr></table></div></td></tr></table></div></td></tr></table></div></td></tr></table></div></td></tr><tr><td style="font-weight:bold;vertical-align:top;">meta</td><td style="vertical-align:top;">:</td><td><div><table><tr><td style="font-weight:bold;vertical-align:top;">author</td><td style="vertical-align:top;">:</td><td><div>Your Name &lt;you@example.com&gt;</div></td></tr><tr><td style="font-weight:bold;vertical-align:top;">description</td><td style="vertical-align:top;">:</td><td><div>a cool new app</div></td></tr><tr><td style="font-weight:bold;vertical-align:top;">generator</td><td style="vertical-align:top;">:</td><td><div>Web2py Web Framework</div></td></tr><tr><td style="font-weight:bold;vertical-align:top;">keywords</td><td style="vertical-align:top;">:</td><td><div><table><tr><td><div>web2py</div></td></tr><tr><td><div>python</div></td></tr><tr><td><div>framework</div></td></tr></table></div></td></tr></table></div></td></tr><tr><td style="font-weight:bold;vertical-align:top;">models_to_run</td><td style="vertical-align:top;">:</td><td><div><table><tr><td><div>^\\w+\\.py$</div></td></tr><tr><td><div>^default/\\w+\\.py$</div></td></tr><tr><td><div>^default/coordinadorLiceo/\\w+\\.py$</div></td></tr></table></div></td></tr><tr><td style="font-weight:bold;vertical-align:top;">postprocessing</td><td style="vertical-align:top;">:</td><td><div><table></table></div></td></tr><tr><td style="font-weight:bold;vertical-align:top;">session_client</td><td style="vertical-align:top;">:</td><td><div>127.0.0.1</div></td></tr><tr><td style="font-weight:bold;vertical-align:top;">session_cookie_compression_level</td><td style="vertical-align:top;">:</td><td><div>None</div></td></tr><tr><td style="font-weight:bold;vertical-align:top;">session_cookie_expires</td><td style="vertical-align:top;">:</td><td><div>None</div></td></tr><tr><td style="font-weight:bold;vertical-align:top;">session_data_name</td><td style="vertical-align:top;">:</td><td><div>session_data_sispiosinconsultav2</div></td></tr><tr><td style="font-weight:bold;vertical-align:top;">session_file</td><td style="vertical-align:top;">:</td><td><div>&lt;open file &#x27;/home/aabv/Documentos/Web2py/web2py/applications/SisPIOSinConsultaV2/sessions/1de/025/127.0.0.1-b4f2cfd3-ec17-405b-8b39-5c5dcfe8b22e&#x27;, mode &#x27;rb+&#x27; at 0x7f8c3e6060c0&gt;</div></td></tr><tr><td style="font-weight:bold;vertical-align:top;">session_filename</td><td style="vertical-align:top;">:</td><td><div>/home/aabv/Documentos/Web2py/web2py/applications/SisPIOSinConsultaV2/sessions/127.0.0.1-b4f2cfd3-ec17-405b-8b39-5c5dcfe8b22e</div></td></tr><tr><td style="font-weight:bold;vertical-align:top;">session_hash</td><td style="vertical-align:top;">:</td><td><div>ca65d1a3b7eb9a3ab771e4d1d9e4627b</div></td></tr><tr><td style="font-weight:bold;vertical-align:top;">session_id</td><td style="vertical-align:top;">:</td><td><div>127.0.0.1-b4f2cfd3-ec17-405b-8b39-5c5dcfe8b22e</div></td></tr><tr><td style="font-weight:bold;vertical-align:top;">session_id_name</td><td style="vertical-align:top;">:</td><td><div>session_id_sispiosinconsultav2</div></td></tr><tr><td style="font-weight:bold;vertical-align:top;">session_locked</td><td style="vertical-align:top;">:</td><td><div>True</div></td></tr><tr><td style="font-weight:bold;vertical-align:top;">session_masterapp</td><td style="vertical-align:top;">:</td><td><div>SisPIOSinConsultaV2</div></td></tr><tr><td style="font-weight:bold;vertical-align:top;">session_new</td><td style="vertical-align:top;">:</td><td><div>False</div></td></tr><tr><td style="font-weight:bold;vertical-align:top;">session_storage_type</td><td style="vertical-align:top;">:</td><td><div>file</div></td></tr><tr><td style="font-weight:bold;vertical-align:top;">status</td><td style="vertical-align:top;">:</td><td><div>200</div></td></tr><tr><td style="font-weight:bold;vertical-align:top;">subtitle</td><td style="vertical-align:top;">:</td><td><div></div></td></tr><tr><td style="font-weight:bold;vertical-align:top;">title</td><td style="vertical-align:top;">:</td><td><div>Sispiosinconsultav2</div></td></tr><tr><td style="font-weight:bold;vertical-align:top;">view</td><td style="vertical-align:top;">:</td><td><div>default/coordinadorLiceo.html</div></td></tr></table></div>'
tRp198
sS'locals'
p199
(dp200
S'k'
S"'sede'"
p201
sS'self'
p202
S"<Row {'ci': '12345678', 'id': 1L, 'nombre_liceo': 'Tirso de Molina'}>"
p203
sssS'traceback'
p204
S'Traceback (most recent call last):\n  File "/home/aabv/Documentos/Web2py/web2py/gluon/restricted.py", line 227, in restricted\n    exec ccode in environment\n  File "/home/aabv/Documentos/Web2py/web2py/applications/SisPIOSinConsultaV2/controllers/default.py", line 414, in <module>\n  File "/home/aabv/Documentos/Web2py/web2py/gluon/globals.py", line 417, in <lambda>\n    self._caller = lambda f: f()\n  File "/home/aabv/Documentos/Web2py/web2py/gluon/tools.py", line 4241, in f\n    return action(*a, **b)\n  File "/home/aabv/Documentos/Web2py/web2py/gluon/tools.py", line 4241, in f\n    return action(*a, **b)\n  File "/home/aabv/Documentos/Web2py/web2py/applications/SisPIOSinConsultaV2/controllers/default.py", line 193, in coordinadorLiceo\n    default=representante_liceo.sede,\n  File "/home/aabv/Documentos/Web2py/web2py/gluon/packages/dal/pydal/objects.py", line 90, in __getattr__\n    raise AttributeError\nAttributeError\n'
p205
s.