(dp1
S'output'
p2
S"<type 'exceptions.AttributeError'> 'list' object has no attribute 'filename'"
p3
sS'layer'
p4
S'C:\\Users\\Rafael Cisneros\\Desktop\\web2py\\web2py\\applications\\SisPIOrafael2\\controllers/default.py'
p5
sS'code'
p6
S'# -*- coding: utf-8 -*-\n# this file is released under public domain and you can use without limitations\n\n# -------------------------------------------------------------------------\n# This is a sample controller\n# - index is the default action of any application\n# - user is required for authentication and authorization\n# - download is for downloading files uploaded in the db (does streaming)\n# -------------------------------------------------------------------------\nimport os\n\ndef user():\n    """\n    exposes:\n    http://..../[app]/default/user/login\n    http://..../[app]/default/user/logout\n    http://..../[app]/default/user/register\n    http://..../[app]/default/user/profile\n    http://..../[app]/default/user/retrieve_password\n    http://..../[app]/default/user/change_password\n    http://..../[app]/default/user/bulk_register\n    use @auth.requires_login()\n        @auth.requires_membership(\'group name\')\n        @auth.requires_permission(\'read\',\'table name\',record_id)\n    to decorate functions that need access control\n    also notice there is http://..../[app]/appadmin/manage/auth to allow administrator to manage users\n    """\n    if not(request.args):\n        if auth.is_logged_in():\n            redirect(URL(\'redireccionando\'))\n        else:\n            redirect(URL(\'index\'))\n    else:\n        if request.args[0] == \'login\':\n            if auth.is_logged_in():\n                redirect(URL(\'redireccionando\'))\n            else:\n                redirect(URL(\'index\'))\n    return dict(form=auth())\n\n\n@cache.action()\ndef download():\n    """\n    allows downloading of uploaded files\n    http://..../[app]/default/download/[filename]\n    """\n    return response.download(request, db)\n\n@auth.requires_login()\ndef call():\n    """\n    exposes services. for example:\n    http://..../[app]/default/call/jsonrpc\n    decorate with @services.jsonrpc the functions to expose\n    supports xml, json, xmlrpc, jsonrpc, amfrpc, rss, csv\n    """\n    return service()\n\ndef index():\n    if auth.is_logged_in():\n        redirect(URL(\'default\', \'user\', args=\'logout\')) # Si ya hay un usuario conectado, desconectarlo\n    return dict(form=auth.login())\n\ndef redireccionando():\n    if auth.is_logged_in():\n        if \'Administrador\' in auth.user_groups.values():\n            redirect(URL(\'admin\'))\n        elif \'Estudiante\' in auth.user_groups.values():\n            redirect(URL(\'welcome\'))\n        elif \'Profesor\' in auth.user_groups.values():\n            redirect(URL(\'profesor\'))\n        elif \'Representante_liceo\' in auth.user_groups.values():\n            redirect(URL(\'coordinadorLiceo\'))\n        elif \'Representante_sede\' in auth.user_groups.values():\n            redirect(URL(\'coordinadorPio\'))\n        else:\n            redirect(URL(\'default\', \'user\', args=\'logout\'))\n    else:\n        redirect(URL(\'index\'))\n    return dict()\n\n@auth.requires_membership(\'Administrador\')\n@auth.requires_login()\ndef admin():\n\n    ##################\n    # Carga de archivo\n    ##################\n    erroresCarga = [] # Los errores en la carga van aqui\n    cargaExitosa = [] # Los usuarios agregados exitosamente van aqui\n    cohorte = db(db.cohorte.activo==True).select()[0].identificador # Cohorte Actual\n    formularioArchivo = FORM(\n                            INPUT(_name=\'tituloArchivo\', _type=\'text\'),\n                            INPUT(_name=\'archivo\', _type=\'file\')\n                            )\n    if formularioArchivo.accepts(request.vars,formname=\'formularioArchivo\'): # Chequeamos si hay un archivo cargado\n        archivo =request.vars.fileToUpload.filename.split(".")  # Separamos el nombre del archivo de la extension\n        nombreArchivo, extension = archivo[0], archivo[1]\n        if extension == "csv":          # Chequeamos la extension del archivo\n            ######################\n            # Cargando Estudiantes\n            ######################\n            if request.vars.optradio == "estudiante":   # Chequeamos el tipo de usuario a agregar\n                f = request.vars.fileToUpload.file      # Archivo cargado\n                texto = f.read().splitlines()           # Leer el archivo\n                cabecera = texto[0].split(";")          # Extraemos la cabecera\n                liceo = texto[1].split(";")             # Extraemos la linea que contiene el nombre del liceo\n                texto.remove(texto[1])                  # Eliminamos del texto la linea del liceo para no iterar sobre ella\n                texto.remove(texto[0])                  # Eliminamos del texto la cabecera para no iterar sobre ella\n                if ((cabecera[0]=="C.I." and cabecera[1]==\'Nombres\' and\n                cabecera[2]==\'Apellidos\' and cabecera[3]==\'Promedio (00.00)\') and\n                (liceo[0] == "Nombre del Liceo:") and liceo[1] == "" and liceo[2] != ""): # Verificamos que la cabecera y la linea del liceo tenga el formato correcto\n                    liceo = liceo[2]                    # Seleccionamos el nombre del liceo\n                    datos = []                          # Los usuarios a agregar van aqui\n                    for i in texto:\n                        if i != ";;;;":\n                            dato = i.split(";")         # Separamos los datos del usuario\n                            datos.append(dato)          # Agregamos el usuario a la lista de usuarios por agregar\n\n                    for i in datos:\n                        if (not(db(db.usuario.username == i[0]).select()) and\n                           not(db(db.estudiante.ci == i[0]).select())):         # Verificar que no existe un usuario para esa cedula\n                            if 0 <= float(i[3]) <= 20:                          # Verificamos que el indice sea correcto\n                                if db(db.liceo.nombre == liceo).select():       # Verificamos que el liceo este en la base de datos\n                                    id = db.usuario.insert(first_name = i[1],last_name = i[2], email = "", username = i[0],\n                                                  password = db.usuario.password.validate(i[0])[0], registration_key = "",\n                                                  reset_password_key = "", registration_id = "" )       # Agregar el usuario\n                                    db.auth_membership.insert(user_id = id, group_id= 1)                # Agregar permisos de estudiante (group_id=1)\n                                    db.estudiante.insert(ci=i[0], promedio=float(i[3]), direccion="", telefono_habitacion="",\n                                                    telefono_otro="", fecha_nacimiento="", sexo="", estatus="Pre-inscrito",\n                                                    cohorte=cohorte, ci_representante="", nombre_representante="",\n                                                    apellido_representante="", sexo_representante="", correo_representante="",\n                                                    direccion_representante="", nombre_liceo=liceo, telefono_representante_oficina="",\n                                                    telefono_representante_otro="", sufre_enfermedad="", enfermedad="",\n                                                    indicaciones_enfermedad="")     # Agregamos el estudiante Cohorte deberia ser una variable global\n                                    cargaExitosa.append(i)                          # Agregarlo a los estudiantes cargados exitosamente\n                                else:\n                                    erroresCarga.append([i,"Su liceo no esta en la base de datos. Contacte al administrador"])  # Error de Carga\n                            else:\n                                erroresCarga.append([i,"El promedio debe ser un numero entre 0 y 20"])                          # Error de Carga\n                        else:\n                            erroresCarga.append([i,"Ya existe un usuario en el sistema con esta cedula"])                       # Error de Carga\n\n                else: #Error\n                    erroresCarga.append("Formato de los datos del archivo invalido. Consulte el manual")                        # Error de Carga\n            #################################\n            # Cargando Representantes de sede\n            #################################\n            elif request.vars.optradio == "sede":\n                f = request.vars.fileToUpload.file      # Archivo cargado\n                texto = f.read().splitlines()           # Leer el archivo\n                cabecera = texto[0].split(";")          # Extraemos la cabecera\n                texto.remove(texto[0])                  # Eliminamos del texto la cabecera para no iterar sobre ella\n                if (cabecera[0]=="C.I." and cabecera[1]==\'Nombres\' and\n                    cabecera[2]==\'Apellidos\' and cabecera[3]==\'Sede\'): # Verificamos que la cabecera tenga el formato correcto\n                    datos = []                          # Los usuarios a agregar van aqui\n                    for i in texto:\n                        if i != ";;;;":\n                            dato = i.split(";")         # Separamos los datos del usuario\n                            datos.append(dato)          # Agregamos el usuario a la lista de usuarios por agregar\n\n                    for i in datos:\n                        if (not(db(db.usuario.username == i[0]).select()) and\n                            not(db(db.representante_sede.ci == i[0]).select())):    # Verificar que no existe un usuario para esa cedula\n                            #if db(db.sede.nombre == i[3]).select():                # Verificamos que la sede este en la base de datos\n                            id = db.usuario.insert(first_name = i[1],last_name = i[2], email = "", username = i[0],\n                                          password = db.usuario.password.validate(i[0])[0], registration_key = "",\n                                          reset_password_key = "", registration_id = "" ) # Agregar el usuario\n                            db.auth_membership.insert(user_id = id, group_id=4) # Agregar permisos de representante sede (group_id=4)\n                            db.representante_sede.insert(ci=i[0], sede=i[3]) # Agregar el representante de sede\n                            cargaExitosa.append(i) # Agregarlo a los usuarios cargados exitosamente\n                            #else:\n                                #erroresCarga.append([i,"Su sede no esta en la base de datos. Contacte al administrador"])  # Error de Carga\n                        else:\n                            erroresCarga.append([i,"Ya existe un usuario en el sistema con esta cedula"])                   # Error de Carga\n                else: #Error\n                    erroresCarga.append("Formato de los datos del archivo invalido. Consulte el manual")                    # Error de Carga\n            ##################################\n            # Cargando Representante de liceos\n            ##################################\n            elif request.vars.optradio == "liceo":\n                f = request.vars.fileToUpload.file      # Archivo cargado\n                texto = f.read().splitlines()           # Leer el archivo\n                cabecera = texto[0].split(";")          # Extraemos la cabecera\n                texto.remove(texto[0])                  # Eliminamos del texto la cabecera para no iterar sobre ella\n                if (cabecera[0]=="C.I." and cabecera[1]==\'Nombres\' and\n                cabecera[2]==\'Apellidos\' and cabecera[3]==\'Liceo\'): # Verificamos que la cabecera tenga el formato correcto\n                    datos = []                          # Los usuarios a agregar van aqui\n                    for i in texto:\n                        if i != ";;;;":\n                            dato = i.split(";")         # Separamos los datos del usuario\n                            datos.append(dato)          # Agregamos el usuario a la lista de usuarios por agregar\n\n                    for i in datos:\n                        if (not(db(db.usuario.username == i[0]).select()) and\n                            not(db(db.representante_liceo.ci == i[0]).select())):    # Verificar que no existe un usuario para esa cedula\n                            if db(db.liceo.nombre == i[3]).select():                # Verificamos que el liceo este en la base de datos\n                                id = db.usuario.insert(first_name = i[1],last_name = i[2], email = "", username = i[0],\n                                              password = db.usuario.password.validate(i[0])[0], registration_key = "",\n                                              reset_password_key = "", registration_id = "" ) # Agregar el usuario\n                                db.auth_membership.insert(user_id = id, group_id=3) # Agregar permisos de representante liceo (group_id=3)\n                                db.representante_liceo.insert(ci=i[0], nombre_liceo=i[3]) # Agregar el representante de liceo\n                                cargaExitosa.append(i) # Agregarlo a los usuarios cargados exitosamente\n                            else:\n                                erroresCarga.append([i,"Su liceo no esta en la base de datos. Contacte al administrador"])  # Error de Carga\n                        else:\n                            erroresCarga.append([i,"Ya existe un usuario en el sistema con esta cedula"])                   # Error de Carga\n                else: #Error\n                    erroresCarga.append("Formato de los datos del archivo invalido. Consulte el manual")                    # Error de Carga\n            #####################\n            # Cargando Profesores\n            #####################\n            elif request.vars.optradio == "profesor":\n                erroresCarga.append("Opcion no disponible por el momento. Disculpe las molestias")\n        else: #Error\n            erroresCarga.append("El formato del archivo debe ser \\".csv\\". Consulte el manual de usuario")\n    else:\n        pass\n\n    ######################\n    # Fin Carga de Archivo\n    ######################\n\n\n    ########################\n    ###Consula de datos\n    ########################\n    T.force(\'es\')\n    username = auth.user.username\n    usuario = db(db.usuario.username==username).select().first()\n    #tipo=""\n    #error = False\n\n    formAdministrador = SQLFORM.factory(\n        Field(\'first_name\' +  \'last_name\',\n            type=\'string\',\n            default=usuario.first_name + " " + usuario.last_name,\n            requires=db.usuario.first_name.requires and db.usuario.last_name.requires,\n            label=\'nombre\'\n            ),\n        Field(\'username\',\n            type=\'string\',\n            notnull = True,\n            default=usuario.username,\n            requires=db.usuario.username.requires,\n            label=\'ci\'\n            ),\n        Field(\'email\',\n            type=\'string\',\n            default=usuario.email,\n            requires=db.usuario.email.requires,\n            label=\'email\'),\n        readonly = True\n        )\n\n    if formAdministrador.process(session=None, formname=\'perfil del administrador\', keepvalues=True).accepted:\n        response.flash = \'El formulario fue aceptado exitosamente.\'\n\n    elif formAdministrador.errors:\n        #error = True\n        response.flash = \'Hay un error en un campo.\'\n    ############################\n    ###fin de Consula de datos\n    ############################\n\n    return dict(formAdministrador=formAdministrador, erroresCarga=erroresCarga, cargaExitosa=cargaExitosa)\n\n@auth.requires_membership(\'Profesor\')\n@auth.requires_login()\ndef profesor():\n    return dict()\n\n@auth.requires_membership(\'Representante_liceo\')\n@auth.requires_login()\ndef coordinadorLiceo():\n\n    ##################\n    # Carga de archivo\n    ##################\n    erroresCarga = [] # Los errores en la carga van aqui\n    cargaExitosa = [] # Los usuarios agregados exitosamente van aqui\n    cohorte = db(db.cohorte.activo==True).select()[0].identificador # Cohorte Actual\n    liceo = db(db.representante_liceo.ci == auth.user.username).select()[0].nombre_liceo # Liceo al que pertenece el representante logiado\n\n    formularioArchivo = FORM(\n                            INPUT(_name=\'tituloArchivo\', _type=\'text\'),\n                            INPUT(_name=\'archivo\', _type=\'file\')\n                            )\n    if formularioArchivo.accepts(request.vars,formname=\'formularioArchivo\'): # Chequeamos si hay un archivo cargado\n        archivo =request.vars.fileToUpload.filename.split(".")  # Separamos el nombre del archivo de la extension\n        nombreArchivo, extension = archivo[0], archivo[1]\n        if extension == "csv":          # Chequeamos la extension del archivo\n            ######################\n            # Cargando Estudiantes\n            ######################\n            f = request.vars.fileToUpload.file      # Archivo cargado\n            texto = f.read().splitlines()           # Leer el archivo\n            cabecera = texto[0].split(";")          # Extraemos la cabecera\n            texto.remove(texto[0])                  # Eliminamos del texto la cabecera para no iterar sobre ella\n            if (cabecera[0]=="C.I." and cabecera[1]==\'Nombres\' and\n            cabecera[2]==\'Apellidos\' and cabecera[3]==\'Promedio (00.00)\'): # Verificamos que la cabecera tenga el formato correcto\n                datos = []                          # Los usuarios a agregar van aqui\n                for i in texto:\n                    if i != ";;;;":\n                        dato = i.split(";")         # Separamos los datos del usuario\n                        datos.append(dato)          # Agregamos el usuario a la lista de usuarios por agregar\n\n                for i in datos:\n                    if (not(db(db.usuario.username == i[0]).select()) and\n                       not(db(db.estudiante.ci == i[0]).select())):         # Verificar que no existe un usuario para esa cedula\n                        if 0 <= float(i[3]) <= 20:                          # Verificamos que el indice sea correcto\n                            if db(db.liceo.nombre == liceo).select():       # Verificamos que el liceo este en la base de datos\n                                id = db.usuario.insert(first_name = i[1],last_name = i[2], email = "", username = i[0],\n                                              password = db.usuario.password.validate(i[0])[0], registration_key = "",\n                                              reset_password_key = "", registration_id = "" )       # Agregar el usuario\n                                db.auth_membership.insert(user_id = id, group_id= 1)                # Agregar permisos de estudiante (group_id=1)\n                                db.estudiante.insert(ci=i[0], promedio=float(i[3]), direccion="", telefono_habitacion="",\n                                                telefono_otro="", fecha_nacimiento="", sexo="", estatus="Pre-inscrito",\n                                                cohorte=cohorte, ci_representante="", nombre_representante="",\n                                                apellido_representante="", sexo_representante="", correo_representante="",\n                                                direccion_representante="", nombre_liceo=liceo, telefono_representante_oficina="",\n                                                telefono_representante_otro="", sufre_enfermedad="", enfermedad="",\n                                                indicaciones_enfermedad="")     # Agregamos el estudiante Cohorte deberia ser una variable global\n                                cargaExitosa.append(i)                          # Agregarlo a los estudiantes cargados exitosamente\n                            else:\n                                erroresCarga.append([i,"Su liceo no esta en la base de datos. Contacte al administrador"])  # Error de Carga\n                        else:\n                            erroresCarga.append([i,"El promedio debe ser un numero entre 0 y 20"])                          # Error de Carga\n                    else:\n                        erroresCarga.append([i,"Ya existe un usuario en el sistema con esta cedula"])                       # Error de Carga\n\n            else: #Error\n                erroresCarga.append("Formato de los datos del archivo invalido. Consulte el manual")                        # Error de Carga\n\n        else: #Error\n            erroresCarga.append("El formato del archivo debe ser \\".csv\\". Consulte el manual de usuario")\n    else:\n        pass\n\n    ######################\n    # Fin Carga de Archivo\n    ######################\n    ########################\n    ###Consula de datos\n    ########################\n    T.force(\'es\')\n    username = auth.user.username\n    representante_liceo=db(db.representante_liceo.ci==username).select().first()\n    usuario = db(db.usuario.username==username).select().first()\n    #tipo=""\n    #error = False\n\n    formDatosBasicos = SQLFORM.factory(\n        Field(\'first_name\' +  \'last_name\',\n            type=\'string\',\n            default=usuario.first_name + " " + usuario.last_name,\n            requires=db.usuario.first_name.requires and db.usuario.last_name.requires,\n            label=\'nombre\'\n            ),\n        Field(\'username\',\n            type=\'string\',\n            notnull = True,\n            default=usuario.username,\n            requires=db.usuario.username.requires,\n            label=\'ci\'\n            ),\n        Field(\'email\',\n            type=\'string\',\n            default=usuario.email,\n            requires=db.usuario.email.requires,\n            label=\'email\'),\n        readonly = True\n        )\n\n    if formDatosBasicos.process(session=None, formname=\'perfil basico del Representante liceo de sede\', keepvalues=True).accepted:\n        response.flash = \'El formulario fue aceptado exitosamente.\'\n\n    elif formDatosBasicos.errors:\n        #error = True\n        response.flash = \'Hay un error en un campo.\'\n\n    formCoordinadorLiceo = SQLFORM.factory(\n        Field(\'ci\',\n            type=\'string\',\n            notnull=True,\n            default=representante_liceo.ci,\n            requires=db.representante_liceo.ci.requires,\n            label=\'ci\'\n            ),\n        Field(\'first_name\' +  \'last_name\',\n            type=\'string\',\n            default=usuario.first_name + " " + usuario.last_name,\n            requires=db.usuario.first_name.requires and db.usuario.last_name.requires,\n            label=\'nombre\'\n            ),\n        Field(\'nombre_liceo\',\n            type=\'string\',\n            default=representante_liceo.nombre_liceo,\n            requires=db.representante_liceo.nombre_liceo.requires,\n            label=\'nombre_liceo\'\n            ),\n        Field(\'email\',\n            type=\'date\',\n            default=usuario.email,\n            requires=db.usuario.email.requires,\n            label=\'email\'),\n        readonly = True\n        )\n\n    if formCoordinadorLiceo.process(session=None, formname=\'perfil del Representante Liceo de sede\', keepvalues=True).accepted:\n        response.flash = \'El formulario fue aceptado exitosamente.\'\n\n    elif formCoordinadorLiceo.errors:\n        #error = True\n        response.flash = \'Hay un error en un campo.\'\n    ############################\n    ###fin de Consula de datos\n    ############################\n\n    return dict(formCoordinadorLiceo=formCoordinadorLiceo, formDatosBasicos=formDatosBasicos, erroresCarga=erroresCarga, cargaExitosa=cargaExitosa)\n\n@auth.requires_membership(\'Representante_sede\')\n@auth.requires_login()\ndef coordinadorPio():\n\n    ########################\n    ###Consula de datos\n    ########################\n    T.force(\'es\')\n    username = auth.user.username\n    representante_sede=db(db.representante_sede.ci==username).select().first()\n    usuario = db(db.usuario.username==username).select().first()\n    #tipo=""\n    #error = False\n\n    formDatosBasicos = SQLFORM.factory(\n        Field(\'first_name\' +  \'last_name\',\n            type=\'string\',\n            default=usuario.first_name + " " + usuario.last_name,\n            requires=db.usuario.first_name.requires and db.usuario.last_name.requires,\n            label=\'nombre\'\n            ),\n        Field(\'username\',\n            type=\'string\',\n            notnull = True,\n            default=usuario.username,\n            requires=db.usuario.username.requires,\n            label=\'ci\'\n            ),\n        Field(\'email\',\n            type=\'string\',\n            default=usuario.email,\n            requires=db.usuario.email.requires,\n            label=\'email\'),\n        readonly = True\n        )\n\n    if formDatosBasicos.process(session=None, formname=\'perfil basico del Representante PIO de sede\', keepvalues=True).accepted:\n        response.flash = \'El formulario fue aceptado exitosamente.\'\n\n    elif formDatosBasicos.errors:\n        #error = True\n        response.flash = \'Hay un error en un campo.\'\n\n    formCoordinadorPio = SQLFORM.factory(\n        Field(\'ci\',\n            type=\'string\',\n            notnull=True,\n            default=representante_sede.ci,\n            requires=db.representante_sede.ci.requires,\n            label=\'ci\'\n            ),\n        Field(\'first_name\' +  \'last_name\',\n            type=\'string\',\n            default=usuario.first_name + " " + usuario.last_name,\n            requires=db.usuario.first_name.requires and db.usuario.last_name.requires,\n            label=\'nombre\'\n            ),\n        Field(\'sede\',\n            type=\'string\',\n            default=representante_sede.sede,\n            requires=db.representante_sede.sede.requires,\n            label=\'sede\'\n            ),\n        Field(\'email\',\n            type=\'date\',\n            default=usuario.email,\n            requires=db.usuario.email.requires,\n            label=\'email\'),\n        readonly = True\n        )\n\n    if formCoordinadorPio.process(session=None, formname=\'perfil del Representante PIO de sede\', keepvalues=True).accepted:\n        response.flash = \'El formulario fue aceptado exitosamente.\'\n\n    elif formCoordinadorPio.errors:\n        #error = True\n        response.flash = \'Hay un error en un campo.\'\n    ############################\n    ###fin de Consula de datos\n    ############################\n\n    return dict(formDatosBasicos=formDatosBasicos, formCoordinadorPio=formCoordinadorPio)\n\n@auth.requires_membership(\'Estudiante\')\n@auth.requires_login()\ndef welcome():\n\n    ########################\n    ###Consula de datos\n    ########################\n    T.force(\'es\')\n    username = auth.user.username\n    estudiante=db(db.estudiante.ci==username).select().first()\n    usuario = db(db.usuario.username==username).select().first()\n    #tipo=""\n    #error = False\n\n    formDatosBasicos = SQLFORM.factory(\n        Field(\'first_name\' +  \'last_name\',\n            type=\'string\',\n            default=usuario.first_name + " " + usuario.last_name,\n            requires=db.usuario.first_name.requires and db.usuario.last_name.requires,\n            label=\'nombre\'\n            ),\n        Field(\'username\',\n            type=\'string\',\n            notnull = True,\n            default=usuario.username,\n            requires=db.usuario.username.requires,\n            label=\'ci\'\n            ),\n        Field(\'email\',\n            type=\'string\',\n            default=usuario.email,\n            requires=db.usuario.email.requires,\n            label=\'email\'),\n        readonly = True\n        )\n\n    if formDatosBasicos.process(session=None, formname=\'perfil basico del Estudiante\', keepvalues=True).accepted:\n        response.flash = \'El formulario fue aceptado exitosamente.\'\n\n    elif formDatosBasicos.errors:\n        #error = True\n        response.flash = \'Hay un error en un campo.\'\n\n    formEstudiante = SQLFORM.factory(\n        Field(\'ci\',\n            type=\'string\',\n            notnull=True,\n            default=estudiante.ci,\n            requires=db.estudiante.ci.requires,\n            label=\'ci\'\n            ),\n        Field(\'first_name\',\n            type=\'string\',\n            default=usuario.first_name,\n            requires=db.usuario.first_name.requires and db.usuario.last_name.requires,\n            label=\'nombre\'\n            ),\n        Field(\'last_name\',\n            type=\'string\',\n            default=usuario.last_name,\n            requires=db.usuario.first_name.requires and db.usuario.last_name.requires,\n            label=\'apellido\'\n            ),\n\n        Field(\'sexo\',\n            type=\'string\',\n            default=estudiante.sexo,\n            requires=db.estudiante.sexo.requires,\n            label=\'sexo\'\n            ),\n        Field(\'fecha_nacimiento\',\n            type=\'date\',\n            default=estudiante.fecha_nacimiento,\n            requires=db.estudiante.fecha_nacimiento.requires,\n            label=\'fecha_de_nacimiento\'\n            ),\n        Field(\'promedio\',\n            type=\'string\',\n            default= estudiante.promedio,\n            requires=db.estudiante.promedio.requires,\n            label=\'promedio\'\n            ),\n        Field(\'nombre_liceo\',\n            type=\'string\',\n            default="            "+estudiante.nombre_liceo,\n            requires=db.estudiante.nombre_liceo.requires,\n            label=\'nombre_liceo\'\n            ),\n        Field(\'email\',\n            type=\'string\',\n            default=usuario.email,\n            requires=db.usuario.email.requires,\n            label=\'email\',\n            ),\n        Field(\'telefono_habitacion\',\n            type=\'integer\',\n            default=estudiante.telefono_habitacion,\n            requires=db.estudiante.telefono_habitacion.requires,\n            label=\'telefono_habitacion\',\n            ),\n        Field(\'direccion\',\n            type=\'string\',\n            default= estudiante.direccion,\n            requires=db.estudiante.direccion.requires,\n            label=\'direccion\'),\n        readonly = True\n        )\n\n    if formEstudiante.process(session=None, formname=\'perfil del Estudiante\', keepvalues=True).accepted:\n        response.flash = \'El formulario fue aceptado exitosamente.\'\n\n    elif formEstudiante.errors:\n        #error = True\n        response.flash = \'Hay un error en un campo.\'\n\n    ############################\n    ###fin de Consula de datos\n    ############################\n\n    return dict(formDatosBasicos = formDatosBasicos, formEstudiante = formEstudiante)\n\nresponse._vars=response._caller(coordinadorLiceo)\n'
p7
sS'snapshot'
p8
(dp9
S'exception'
p10
(dp11
S'__hash__'
p12
S"<method-wrapper '__hash__' of exceptions.AttributeError object>"
p13
sS'__setattr__'
p14
S"<method-wrapper '__setattr__' of exceptions.AttributeError object>"
p15
sS'__reduce_ex__'
p16
S'<built-in method __reduce_ex__ of exceptions.AttributeError object>'
p17
sS'__getslice__'
p18
S"<method-wrapper '__getslice__' of exceptions.AttributeError object>"
p19
sS'__getitem__'
p20
S"<method-wrapper '__getitem__' of exceptions.AttributeError object>"
p21
sS'__setstate__'
p22
S'<built-in method __setstate__ of exceptions.AttributeError object>'
p23
sS'__reduce__'
p24
S'<built-in method __reduce__ of exceptions.AttributeError object>'
p25
sS'__str__'
p26
S"<method-wrapper '__str__' of exceptions.AttributeError object>"
p27
sS'__format__'
p28
S'<built-in method __format__ of exceptions.AttributeError object>'
p29
sS'__getattribute__'
p30
S"<method-wrapper '__getattribute__' of exceptions.AttributeError object>"
p31
sS'__class__'
p32
S"<type 'exceptions.AttributeError'>"
p33
sS'__unicode__'
p34
S'<built-in method __unicode__ of exceptions.AttributeError object>'
p35
sS'__delattr__'
p36
S"<method-wrapper '__delattr__' of exceptions.AttributeError object>"
p37
sS'__subclasshook__'
p38
S'<built-in method __subclasshook__ of type object>'
p39
sS'__repr__'
p40
S"<method-wrapper '__repr__' of exceptions.AttributeError object>"
p41
sS'args'
p42
S'("\'list\' object has no attribute \'filename\'",)'
p43
sS'__dict__'
p44
S'{}'
p45
sS'__sizeof__'
p46
S'<built-in method __sizeof__ of exceptions.AttributeError object>'
p47
sS'__doc__'
p48
S"'Attribute not found.'"
p49
sS'__init__'
p50
S"<method-wrapper '__init__' of exceptions.AttributeError object>"
p51
sS'__new__'
p52
S'<built-in method __new__ of type object>'
p53
ssS'evalue'
p54
S"'list' object has no attribute 'filename'"
p55
sS'request'
p56
cgluon.html
XML_unpickle
p57
(S's\x95g\x00\x00<div><table><tr><td style="font-weight:bold;vertical-align:top;">ajax</td><td style="vertical-align:top;">:</td><td><div>False</div></td></tr><tr><td style="font-weight:bold;vertical-align:top;">application</td><td style="vertical-align:top;">:</td><td><div>SisPIOrafael2</div></td></tr><tr><td style="font-weight:bold;vertical-align:top;">args</td><td style="vertical-align:top;">:</td><td><div><table></table></div></td></tr><tr><td style="font-weight:bold;vertical-align:top;">cid</td><td style="vertical-align:top;">:</td><td><div>None</div></td></tr><tr><td style="font-weight:bold;vertical-align:top;">client</td><td style="vertical-align:top;">:</td><td><div>127.0.0.1</div></td></tr><tr><td style="font-weight:bold;vertical-align:top;">controller</td><td style="vertical-align:top;">:</td><td><div>default</div></td></tr><tr><td style="font-weight:bold;vertical-align:top;">cookies</td><td style="vertical-align:top;">:</td><td><div><table><tr><td style="font-weight:bold;vertical-align:top;">session_id_admin</td><td style="vertical-align:top;">:</td><td><div>127.0.0.1-d8afe675-7c03-4be0-8d7d-3eecbd5907b3<table><tr><td style="font-weight:bold;vertical-align:top;">comment</td><td style="vertical-align:top;">:</td><td><div></div></td></tr><tr><td style="font-weight:bold;vertical-align:top;">domain</td><td style="vertical-align:top;">:</td><td><div></div></td></tr><tr><td style="font-weight:bold;vertical-align:top;">expires</td><td style="vertical-align:top;">:</td><td><div></div></td></tr><tr><td style="font-weight:bold;vertical-align:top;">httponly</td><td style="vertical-align:top;">:</td><td><div></div></td></tr><tr><td style="font-weight:bold;vertical-align:top;">max-age</td><td style="vertical-align:top;">:</td><td><div></div></td></tr><tr><td style="font-weight:bold;vertical-align:top;">path</td><td style="vertical-align:top;">:</td><td><div></div></td></tr><tr><td style="font-weight:bold;vertical-align:top;">secure</td><td style="vertical-align:top;">:</td><td><div></div></td></tr><tr><td style="font-weight:bold;vertical-align:top;">version</td><td style="vertical-align:top;">:</td><td><div></div></td></tr></table></div></td></tr><tr><td style="font-weight:bold;vertical-align:top;">session_id_sispiorafael2</td><td style="vertical-align:top;">:</td><td><div>127.0.0.1-752278f2-a589-4bd3-8942-1036e4c7279e<table><tr><td style="font-weight:bold;vertical-align:top;">comment</td><td style="vertical-align:top;">:</td><td><div></div></td></tr><tr><td style="font-weight:bold;vertical-align:top;">domain</td><td style="vertical-align:top;">:</td><td><div></div></td></tr><tr><td style="font-weight:bold;vertical-align:top;">expires</td><td style="vertical-align:top;">:</td><td><div></div></td></tr><tr><td style="font-weight:bold;vertical-align:top;">httponly</td><td style="vertical-align:top;">:</td><td><div></div></td></tr><tr><td style="font-weight:bold;vertical-align:top;">max-age</td><td style="vertical-align:top;">:</td><td><div></div></td></tr><tr><td style="font-weight:bold;vertical-align:top;">path</td><td style="vertical-align:top;">:</td><td><div></div></td></tr><tr><td style="font-weight:bold;vertical-align:top;">secure</td><td style="vertical-align:top;">:</td><td><div></div></td></tr><tr><td style="font-weight:bold;vertical-align:top;">version</td><td style="vertical-align:top;">:</td><td><div></div></td></tr></table></div></td></tr><tr><td style="font-weight:bold;vertical-align:top;">session_id_welcome</td><td style="vertical-align:top;">:</td><td><div>127.0.0.1-8b6e74d6-6ac9-4bb4-ab1d-17ceda65c2ad<table><tr><td style="font-weight:bold;vertical-align:top;">comment</td><td style="vertical-align:top;">:</td><td><div></div></td></tr><tr><td style="font-weight:bold;vertical-align:top;">domain</td><td style="vertical-align:top;">:</td><td><div></div></td></tr><tr><td style="font-weight:bold;vertical-align:top;">expires</td><td style="vertical-align:top;">:</td><td><div></div></td></tr><tr><td style="font-weight:bold;vertical-align:top;">httponly</td><td style="vertical-align:top;">:</td><td><div></div></td></tr><tr><td style="font-weight:bold;vertical-align:top;">max-age</td><td style="vertical-align:top;">:</td><td><div></div></td></tr><tr><td style="font-weight:bold;vertical-align:top;">path</td><td style="vertical-align:top;">:</td><td><div></div></td></tr><tr><td style="font-weight:bold;vertical-align:top;">secure</td><td style="vertical-align:top;">:</td><td><div></div></td></tr><tr><td style="font-weight:bold;vertical-align:top;">version</td><td style="vertical-align:top;">:</td><td><div></div></td></tr></table></div></td></tr></table></div></td></tr><tr><td style="font-weight:bold;vertical-align:top;">env</td><td style="vertical-align:top;">:</td><td><div><table><tr><td style="font-weight:bold;vertical-align:top;">CONTENT_LENGTH</td><td style="vertical-align:top;">:</td><td><div>469</div></td></tr><tr><td style="font-weight:bold;vertical-align:top;">CONTENT_TYPE</td><td style="vertical-align:top;">:</td><td><div>multipart/form-data; boundary=----WebKitFormBoundaryvjgdakAqfRWd8aVU</div></td></tr><tr><td style="font-weight:bold;vertical-align:top;">HTTP_ACCEPT</td><td style="vertical-align:top;">:</td><td><div>text/html,application/xhtml+xml,application/xml;q=0.9,image/webp,image/apng,*/*;q=0.8</div></td></tr><tr><td style="font-weight:bold;vertical-align:top;">HTTP_ACCEPT_ENCODING</td><td style="vertical-align:top;">:</td><td><div>gzip, deflate, br</div></td></tr><tr><td style="font-weight:bold;vertical-align:top;">HTTP_ACCEPT_LANGUAGE</td><td style="vertical-align:top;">:</td><td><div>es-419,es;q=0.8</div></td></tr><tr><td style="font-weight:bold;vertical-align:top;">HTTP_CACHE_CONTROL</td><td style="vertical-align:top;">:</td><td><div>max-age=0</div></td></tr><tr><td style="font-weight:bold;vertical-align:top;">HTTP_CONNECTION</td><td style="vertical-align:top;">:</td><td><div>keep-alive</div></td></tr><tr><td style="font-weight:bold;vertical-align:top;">HTTP_CONTENT_LENGTH</td><td style="vertical-align:top;">:</td><td><div>469</div></td></tr><tr><td style="font-weight:bold;vertical-align:top;">HTTP_CONTENT_TYPE</td><td style="vertical-align:top;">:</td><td><div>multipart/form-data; boundary=----WebKitFormBoundaryvjgdakAqfRWd8aVU</div></td></tr><tr><td style="font-weight:bold;vertical-align:top;">HTTP_COOKIE</td><td style="vertical-align:top;">:</td><td><div>session_id_welcome=127.0.0.1-8b6e74d6-6ac9-4bb4-ab1d-17ceda65c2ad; session_id_admin=127.0.0.1-d8afe675-7c03-4be0-8d7d-3eecbd5907b3; session_id_sispiorafael2=127.0.0.1-752278f2-a589-4bd3-8942-1036e4c7279e</div></td></tr><tr><td style="font-weight:bold;vertical-align:top;">HTTP_HOST</td><td style="vertical-align:top;">:</td><td><div>127.0.0.1:8000</div></td></tr><tr><td style="font-weight:bold;vertical-align:top;">HTTP_ORIGIN</td><td style="vertical-align:top;">:</td><td><div>http://127.0.0.1:8000</div></td></tr><tr><td style="font-weight:bold;vertical-align:top;">HTTP_REFERER</td><td style="vertical-align:top;">:</td><td><div>http://127.0.0.1:8000/SisPIOrafael2/default/coordinadorLiceo?fileToUpload=cargarCoordinadoresSede.csv</div></td></tr><tr><td style="font-weight:bold;vertical-align:top;">HTTP_UPGRADE_INSECURE_REQUESTS</td><td style="vertical-align:top;">:</td><td><div>1</div></td></tr><tr><td style="font-weight:bold;vertical-align:top;">HTTP_USER_AGENT</td><td style="vertical-align:top;">:</td><td><div>Mozilla/5.0 (Windows NT 10.0; Win64; x64) AppleWebKit/537.36 (KHTML, like Gecko) Chrome/61.0.3163.100 Safari/537.36</div></td></tr><tr><td style="font-weight:bold;vertical-align:top;">PATH_INFO</td><td style="vertical-align:top;">:</td><td><div>/SisPIOrafael2/default/coordinadorLiceo</div></td></tr><tr><td style="font-weight:bold;vertical-align:top;">QUERY_STRING</td><td style="vertical-align:top;">:</td><td><div>fileToUpload=cargarCoordinadoresSede.csv</div></td></tr><tr><td style="font-weight:bold;vertical-align:top;">REMOTE_ADDR</td><td style="vertical-align:top;">:</td><td><div>127.0.0.1</div></td></tr><tr><td style="font-weight:bold;vertical-align:top;">REMOTE_PORT</td><td style="vertical-align:top;">:</td><td><div>51442</div></td></tr><tr><td style="font-weight:bold;vertical-align:top;">REQUEST_METHOD</td><td style="vertical-align:top;">:</td><td><div>POST</div></td></tr><tr><td style="font-weight:bold;vertical-align:top;">SCRIPT_NAME</td><td style="vertical-align:top;">:</td><td><div></div></td></tr><tr><td style="font-weight:bold;vertical-align:top;">SERVER_NAME</td><td style="vertical-align:top;">:</td><td><div>Rafa-PC</div></td></tr><tr><td style="font-weight:bold;vertical-align:top;">SERVER_PORT</td><td style="vertical-align:top;">:</td><td><div>8000</div></td></tr><tr><td style="font-weight:bold;vertical-align:top;">SERVER_PROTOCOL</td><td style="vertical-align:top;">:</td><td><div>HTTP/1.1</div></td></tr><tr><td style="font-weight:bold;vertical-align:top;">SERVER_SOFTWARE</td><td style="vertical-align:top;">:</td><td><div>Rocket 1.2.6</div></td></tr><tr><td style="font-weight:bold;vertical-align:top;">app_folders</td><td style="vertical-align:top;">:</td><td><div>set([&#x27;C:\\\\Users\\\\Rafael Cisneros\\\\Desktop\\\\web2py\\\\web2py\\\\applications\\\\SisPIOrafael2\\\\&#x27;, &#x27;C:\\\\Users\\\\Rafael Cisneros\\\\Desktop\\\\web2py\\\\web2py\\\\applications\\\\admin\\\\&#x27;, &#x27;C:\\\\Users\\\\Rafael Cisneros\\\\Desktop\\\\web2py\\\\web2py\\\\applications\\\\welcome\\\\&#x27;])</div></td></tr><tr><td style="font-weight:bold;vertical-align:top;">applications_parent</td><td style="vertical-align:top;">:</td><td><div>C:\\Users\\Rafael Cisneros\\Desktop\\web2py\\web2py</div></td></tr><tr><td style="font-weight:bold;vertical-align:top;">cmd_args</td><td style="vertical-align:top;">:</td><td><div><table></table></div></td></tr><tr><td style="font-weight:bold;vertical-align:top;">cmd_options</td><td style="vertical-align:top;">:</td><td><div>&lt;Values at 0x3c2bee0: {&#x27;verbose&#x27;: False, &#x27;ip&#x27;: &#x27;127.0.0.1&#x27;, &#x27;debuglevel&#x27;: 30, &#x27;with_scheduler&#x27;: False, &#x27;shutdown_timeout&#x27;: 5, &#x27;taskbar&#x27;: False, &#x27;with_coverage&#x27;: False, &#x27;pid_filename&#x27;: &#x27;httpserver.pid&#x27;, &#x27;maxthreads&#x27;: None, &#x27;softcron&#x27;: False, &#x27;server_name&#x27;: &#x27;Rafa-PC&#x27;, &#x27;bpython&#x27;: False, &#x27;nogui&#x27;: False, &#x27;port&#x27;: 8000, &#x27;print_errors&#x27;: False, &#x27;extcron&#x27;: False, &#x27;runcron&#x27;: False, &#x27;run_system_tests&#x27;: False, &#x27;test&#x27;: None, &#x27;folder&#x27;: &#x27;C:\\\\Users\\\\Rafael Cisneros\\\\Desktop\\\\web2py\\\\web2py&#x27;, &#x27;config&#x27;: &#x27;&#x27;, &#x27;minthreads&#x27;: None, &#x27;shell&#x27;: None, &#x27;run&#x27;: &#x27;&#x27;, &#x27;log_filename&#x27;: &#x27;httpserver.log&#x27;, &#x27;profiler_dir&#x27;: None, &#x27;args&#x27;: [&#x27;&#x27;], &#x27;socket_timeout&#x27;: 5, &#x27;ssl_ca_certificate&#x27;: None, &#x27;scheduler&#x27;: None, &#x27;interfaces&#x27;: None, &#x27;ssl_private_key&#x27;: &#x27;&#x27;, &#x27;gae&#x27;: None, &#x27;password&#x27;: &#x27;******&#x27;, &#x27;request_queue_size&#x27;: 5, &#x27;ssl_certificate&#x27;: &#x27;&#x27;, &#x27;cronjob&#x27;: False, &#x27;numthreads&#x27;: None, &#x27;quiet&#x27;: False, &#x27;import_models&#x27;: False, &#x27;timeout&#x27;: 10, &#x27;plain&#x27;: False, &#x27;nobanner&#x27;: False}&gt;</div></td></tr><tr><td style="font-weight:bold;vertical-align:top;">content_length</td><td style="vertical-align:top;">:</td><td><div>469</div></td></tr><tr><td style="font-weight:bold;vertical-align:top;">content_type</td><td style="vertical-align:top;">:</td><td><div>multipart/form-data; boundary=----WebKitFormBoundaryvjgdakAqfRWd8aVU</div></td></tr><tr><td style="font-weight:bold;vertical-align:top;">db_sessions</td><td style="vertical-align:top;">:</td><td><div>set([])</div></td></tr><tr><td style="font-weight:bold;vertical-align:top;">debugging</td><td style="vertical-align:top;">:</td><td><div>False</div></td></tr><tr><td style="font-weight:bold;vertical-align:top;">gluon_parent</td><td style="vertical-align:top;">:</td><td><div>C:\\Users\\Rafael Cisneros\\Desktop\\web2py\\web2py</div></td></tr><tr><td style="font-weight:bold;vertical-align:top;">http_accept</td><td style="vertical-align:top;">:</td><td><div>text/html,application/xhtml+xml,application/xml;q=0.9,image/webp,image/apng,*/*;q=0.8</div></td></tr><tr><td style="font-weight:bold;vertical-align:top;">http_accept_encoding</td><td style="vertical-align:top;">:</td><td><div>gzip, deflate, br</div></td></tr><tr><td style="font-weight:bold;vertical-align:top;">http_accept_language</td><td style="vertical-align:top;">:</td><td><div>es-419,es;q=0.8</div></td></tr><tr><td style="font-weight:bold;vertical-align:top;">http_cache_control</td><td style="vertical-align:top;">:</td><td><div>max-age=0</div></td></tr><tr><td style="font-weight:bold;vertical-align:top;">http_connection</td><td style="vertical-align:top;">:</td><td><div>keep-alive</div></td></tr><tr><td style="font-weight:bold;vertical-align:top;">http_content_length</td><td style="vertical-align:top;">:</td><td><div>469</div></td></tr><tr><td style="font-weight:bold;vertical-align:top;">http_content_type</td><td style="vertical-align:top;">:</td><td><div>multipart/form-data; boundary=----WebKitFormBoundaryvjgdakAqfRWd8aVU</div></td></tr><tr><td style="font-weight:bold;vertical-align:top;">http_cookie</td><td style="vertical-align:top;">:</td><td><div>session_id_welcome=127.0.0.1-8b6e74d6-6ac9-4bb4-ab1d-17ceda65c2ad; session_id_admin=127.0.0.1-d8afe675-7c03-4be0-8d7d-3eecbd5907b3; session_id_sispiorafael2=127.0.0.1-752278f2-a589-4bd3-8942-1036e4c7279e</div></td></tr><tr><td style="font-weight:bold;vertical-align:top;">http_host</td><td style="vertical-align:top;">:</td><td><div>127.0.0.1:8000</div></td></tr><tr><td style="font-weight:bold;vertical-align:top;">http_origin</td><td style="vertical-align:top;">:</td><td><div>http://127.0.0.1:8000</div></td></tr><tr><td style="font-weight:bold;vertical-align:top;">http_referer</td><td style="vertical-align:top;">:</td><td><div>http://127.0.0.1:8000/SisPIOrafael2/default/coordinadorLiceo?fileToUpload=cargarCoordinadoresSede.csv</div></td></tr><tr><td style="font-weight:bold;vertical-align:top;">http_upgrade_insecure_requests</td><td style="vertical-align:top;">:</td><td><div>1</div></td></tr><tr><td style="font-weight:bold;vertical-align:top;">http_user_agent</td><td style="vertical-align:top;">:</td><td><div>Mozilla/5.0 (Windows NT 10.0; Win64; x64) AppleWebKit/537.36 (KHTML, like Gecko) Chrome/61.0.3163.100 Safari/537.36</div></td></tr><tr><td style="font-weight:bold;vertical-align:top;">is_jython</td><td style="vertical-align:top;">:</td><td><div>False</div></td></tr><tr><td style="font-weight:bold;vertical-align:top;">is_pypy</td><td style="vertical-align:top;">:</td><td><div>False</div></td></tr><tr><td style="font-weight:bold;vertical-align:top;">is_source</td><td style="vertical-align:top;">:</td><td><div>False</div></td></tr><tr><td style="font-weight:bold;vertical-align:top;">local_hosts</td><td style="vertical-align:top;">:</td><td><div><table><tr><td><div>2001:0:5ef5:79fd:2c27:ffe:4138:404f</div></td></tr><tr><td><div>Rafa-PC.cantv.net</div></td></tr><tr><td><div>Rafa-PC</div></td></tr><tr><td><div>::ffff:127.0.0.1</div></td></tr><tr><td><div>::1</div></td></tr><tr><td><div>fe80::2c27:ffe:4138:404f%5</div></td></tr><tr><td><div>190.199.191.176</div></td></tr><tr><td><div>fe80::4018:b4d4:ee94:6775%15</div></td></tr><tr><td><div>127.0.0.1</div></td></tr></table></div></td></tr><tr><td style="font-weight:bold;vertical-align:top;">path_info</td><td style="vertical-align:top;">:</td><td><div>/SisPIOrafael2/default/coordinadorLiceo</div></td></tr><tr><td style="font-weight:bold;vertical-align:top;">query_string</td><td style="vertical-align:top;">:</td><td><div>fileToUpload=cargarCoordinadoresSede.csv</div></td></tr><tr><td style="font-weight:bold;vertical-align:top;">remote_addr</td><td style="vertical-align:top;">:</td><td><div>127.0.0.1</div></td></tr><tr><td style="font-weight:bold;vertical-align:top;">remote_port</td><td style="vertical-align:top;">:</td><td><div>51442</div></td></tr><tr><td style="font-weight:bold;vertical-align:top;">request_method</td><td style="vertical-align:top;">:</td><td><div>POST</div></td></tr><tr><td style="font-weight:bold;vertical-align:top;">request_uri</td><td style="vertical-align:top;">:</td><td><div>/SisPIOrafael2/default/coordinadorLiceo?fileToUpload=cargarCoordinadoresSede.csv</div></td></tr><tr><td style="font-weight:bold;vertical-align:top;">script_name</td><td style="vertical-align:top;">:</td><td><div></div></td></tr><tr><td style="font-weight:bold;vertical-align:top;">server_name</td><td style="vertical-align:top;">:</td><td><div>Rafa-PC</div></td></tr><tr><td style="font-weight:bold;vertical-align:top;">server_port</td><td style="vertical-align:top;">:</td><td><div>8000</div></td></tr><tr><td style="font-weight:bold;vertical-align:top;">server_protocol</td><td style="vertical-align:top;">:</td><td><div>HTTP/1.1</div></td></tr><tr><td style="font-weight:bold;vertical-align:top;">server_software</td><td style="vertical-align:top;">:</td><td><div>Rocket 1.2.6</div></td></tr><tr><td style="font-weight:bold;vertical-align:top;">web2py_path</td><td style="vertical-align:top;">:</td><td><div>C:\\Users\\Rafael Cisneros\\Desktop\\web2py\\web2py</div></td></tr><tr><td style="font-weight:bold;vertical-align:top;">web2py_version</td><td style="vertical-align:top;">:</td><td><div>2.14.6-stable+timestamp.2016.05.10.00.21.47</div></td></tr><tr><td style="font-weight:bold;vertical-align:top;">wsgi.errors</td><td style="vertical-align:top;">:</td><td><div>&lt;open file &#x27;&lt;stderr&gt;&#x27;, mode &#x27;w&#x27; at 0x0215D0D0&gt;</div></td></tr><tr><td style="font-weight:bold;vertical-align:top;">wsgi.file_wrapper</td><td style="vertical-align:top;">:</td><td><div>&lt;class wsgiref.util.FileWrapper at 0x02FFA068&gt;</div></td></tr><tr><td style="font-weight:bold;vertical-align:top;">wsgi.input</td><td style="vertical-align:top;">:</td><td><div>&lt;socket._fileobject object at 0x049ACDB0&gt;</div></td></tr><tr><td style="font-weight:bold;vertical-align:top;">wsgi.multiprocess</td><td style="vertical-align:top;">:</td><td><div>False</div></td></tr><tr><td style="font-weight:bold;vertical-align:top;">wsgi.multithread</td><td style="vertical-align:top;">:</td><td><div>True</div></td></tr><tr><td style="font-weight:bold;vertical-align:top;">wsgi.run_once</td><td style="vertical-align:top;">:</td><td><div>False</div></td></tr><tr><td style="font-weight:bold;vertical-align:top;">wsgi.url_scheme</td><td style="vertical-align:top;">:</td><td><div>http</div></td></tr><tr><td style="font-weight:bold;vertical-align:top;">wsgi.version</td><td style="vertical-align:top;">:</td><td><div><table><tr><td><div>1</div></td></tr><tr><td><div>0</div></td></tr></table></div></td></tr><tr><td style="font-weight:bold;vertical-align:top;">wsgi_errors</td><td style="vertical-align:top;">:</td><td><div>&lt;open file &#x27;&lt;stderr&gt;&#x27;, mode &#x27;w&#x27; at 0x0215D0D0&gt;</div></td></tr><tr><td style="font-weight:bold;vertical-align:top;">wsgi_file_wrapper</td><td style="vertical-align:top;">:</td><td><div>&lt;class wsgiref.util.FileWrapper at 0x02FFA068&gt;</div></td></tr><tr><td style="font-weight:bold;vertical-align:top;">wsgi_input</td><td style="vertical-align:top;">:</td><td><div>&lt;socket._fileobject object at 0x049ACDB0&gt;</div></td></tr><tr><td style="font-weight:bold;vertical-align:top;">wsgi_multiprocess</td><td style="vertical-align:top;">:</td><td><div>False</div></td></tr><tr><td style="font-weight:bold;vertical-align:top;">wsgi_multithread</td><td style="vertical-align:top;">:</td><td><div>True</div></td></tr><tr><td style="font-weight:bold;vertical-align:top;">wsgi_run_once</td><td style="vertical-align:top;">:</td><td><div>False</div></td></tr><tr><td style="font-weight:bold;vertical-align:top;">wsgi_url_scheme</td><td style="vertical-align:top;">:</td><td><div>http</div></td></tr><tr><td style="font-weight:bold;vertical-align:top;">wsgi_version</td><td style="vertical-align:top;">:</td><td><div><table><tr><td><div>1</div></td></tr><tr><td><div>0</div></td></tr></table></div></td></tr></table></div></td></tr><tr><td style="font-weight:bold;vertical-align:top;">extension</td><td style="vertical-align:top;">:</td><td><div>html</div></td></tr><tr><td style="font-weight:bold;vertical-align:top;">folder</td><td style="vertical-align:top;">:</td><td><div>C:\\Users\\Rafael Cisneros\\Desktop\\web2py\\web2py\\applications\\SisPIOrafael2\\</div></td></tr><tr><td style="font-weight:bold;vertical-align:top;">function</td><td style="vertical-align:top;">:</td><td><div>coordinadorLiceo</div></td></tr><tr><td style="font-weight:bold;vertical-align:top;">global_settings</td><td style="vertical-align:top;">:</td><td><div><table><tr><td style="font-weight:bold;vertical-align:top;">app_folders</td><td style="vertical-align:top;">:</td><td><div>set([&#x27;C:\\\\Users\\\\Rafael Cisneros\\\\Desktop\\\\web2py\\\\web2py\\\\applications\\\\SisPIOrafael2\\\\&#x27;, &#x27;C:\\\\Users\\\\Rafael Cisneros\\\\Desktop\\\\web2py\\\\web2py\\\\applications\\\\admin\\\\&#x27;, &#x27;C:\\\\Users\\\\Rafael Cisneros\\\\Desktop\\\\web2py\\\\web2py\\\\applications\\\\welcome\\\\&#x27;])</div></td></tr><tr><td style="font-weight:bold;vertical-align:top;">applications_parent</td><td style="vertical-align:top;">:</td><td><div>C:\\Users\\Rafael Cisneros\\Desktop\\web2py\\web2py</div></td></tr><tr><td style="font-weight:bold;vertical-align:top;">cmd_args</td><td style="vertical-align:top;">:</td><td><div><table></table></div></td></tr><tr><td style="font-weight:bold;vertical-align:top;">cmd_options</td><td style="vertical-align:top;">:</td><td><div>&lt;Values at 0x3c2bee0: {&#x27;verbose&#x27;: False, &#x27;ip&#x27;: &#x27;127.0.0.1&#x27;, &#x27;debuglevel&#x27;: 30, &#x27;with_scheduler&#x27;: False, &#x27;shutdown_timeout&#x27;: 5, &#x27;taskbar&#x27;: False, &#x27;with_coverage&#x27;: False, &#x27;pid_filename&#x27;: &#x27;httpserver.pid&#x27;, &#x27;maxthreads&#x27;: None, &#x27;softcron&#x27;: False, &#x27;server_name&#x27;: &#x27;Rafa-PC&#x27;, &#x27;bpython&#x27;: False, &#x27;nogui&#x27;: False, &#x27;port&#x27;: 8000, &#x27;print_errors&#x27;: False, &#x27;extcron&#x27;: False, &#x27;runcron&#x27;: False, &#x27;run_system_tests&#x27;: False, &#x27;test&#x27;: None, &#x27;folder&#x27;: &#x27;C:\\\\Users\\\\Rafael Cisneros\\\\Desktop\\\\web2py\\\\web2py&#x27;, &#x27;config&#x27;: &#x27;&#x27;, &#x27;minthreads&#x27;: None, &#x27;shell&#x27;: None, &#x27;run&#x27;: &#x27;&#x27;, &#x27;log_filename&#x27;: &#x27;httpserver.log&#x27;, &#x27;profiler_dir&#x27;: None, &#x27;args&#x27;: [&#x27;&#x27;], &#x27;socket_timeout&#x27;: 5, &#x27;ssl_ca_certificate&#x27;: None, &#x27;scheduler&#x27;: None, &#x27;interfaces&#x27;: None, &#x27;ssl_private_key&#x27;: &#x27;&#x27;, &#x27;gae&#x27;: None, &#x27;password&#x27;: &#x27;******&#x27;, &#x27;request_queue_size&#x27;: 5, &#x27;ssl_certificate&#x27;: &#x27;&#x27;, &#x27;cronjob&#x27;: False, &#x27;numthreads&#x27;: None, &#x27;quiet&#x27;: False, &#x27;import_models&#x27;: False, &#x27;timeout&#x27;: 10, &#x27;plain&#x27;: False, &#x27;nobanner&#x27;: False}&gt;</div></td></tr><tr><td style="font-weight:bold;vertical-align:top;">db_sessions</td><td style="vertical-align:top;">:</td><td><div>set([])</div></td></tr><tr><td style="font-weight:bold;vertical-align:top;">debugging</td><td style="vertical-align:top;">:</td><td><div>False</div></td></tr><tr><td style="font-weight:bold;vertical-align:top;">gluon_parent</td><td style="vertical-align:top;">:</td><td><div>C:\\Users\\Rafael Cisneros\\Desktop\\web2py\\web2py</div></td></tr><tr><td style="font-weight:bold;vertical-align:top;">is_jython</td><td style="vertical-align:top;">:</td><td><div>False</div></td></tr><tr><td style="font-weight:bold;vertical-align:top;">is_pypy</td><td style="vertical-align:top;">:</td><td><div>False</div></td></tr><tr><td style="font-weight:bold;vertical-align:top;">is_source</td><td style="vertical-align:top;">:</td><td><div>False</div></td></tr><tr><td style="font-weight:bold;vertical-align:top;">local_hosts</td><td style="vertical-align:top;">:</td><td><div><table><tr><td><div>2001:0:5ef5:79fd:2c27:ffe:4138:404f</div></td></tr><tr><td><div>Rafa-PC.cantv.net</div></td></tr><tr><td><div>Rafa-PC</div></td></tr><tr><td><div>::ffff:127.0.0.1</div></td></tr><tr><td><div>::1</div></td></tr><tr><td><div>fe80::2c27:ffe:4138:404f%5</div></td></tr><tr><td><div>190.199.191.176</div></td></tr><tr><td><div>fe80::4018:b4d4:ee94:6775%15</div></td></tr><tr><td><div>127.0.0.1</div></td></tr></table></div></td></tr><tr><td style="font-weight:bold;vertical-align:top;">web2py_version</td><td style="vertical-align:top;">:</td><td><div>2.14.6-stable+timestamp.2016.05.10.00.21.47</div></td></tr></table></div></td></tr><tr><td style="font-weight:bold;vertical-align:top;">is_https</td><td style="vertical-align:top;">:</td><td><div>False</div></td></tr><tr><td style="font-weight:bold;vertical-align:top;">is_local</td><td style="vertical-align:top;">:</td><td><div>True</div></td></tr><tr><td style="font-weight:bold;vertical-align:top;">is_restful</td><td style="vertical-align:top;">:</td><td><div>False</div></td></tr><tr><td style="font-weight:bold;vertical-align:top;">is_scheduler</td><td style="vertical-align:top;">:</td><td><div>False</div></td></tr><tr><td style="font-weight:bold;vertical-align:top;">is_shell</td><td style="vertical-align:top;">:</td><td><div>False</div></td></tr><tr><td style="font-weight:bold;vertical-align:top;">now</td><td style="vertical-align:top;">:</td><td><div>datetime.datetime(2017, 10, 22, 13, 45, 53, 528000)</div></td></tr><tr><td style="font-weight:bold;vertical-align:top;">raw_args</td><td style="vertical-align:top;">:</td><td><div></div></td></tr><tr><td style="font-weight:bold;vertical-align:top;">raw_extension</td><td style="vertical-align:top;">:</td><td><div>None</div></td></tr><tr><td style="font-weight:bold;vertical-align:top;">url</td><td style="vertical-align:top;">:</td><td><div>/SisPIOrafael2/default/coordinadorLiceo</div></td></tr><tr><td style="font-weight:bold;vertical-align:top;">utcnow</td><td style="vertical-align:top;">:</td><td><div>datetime.datetime(2017, 10, 22, 17, 45, 53, 528000)</div></td></tr><tr><td style="font-weight:bold;vertical-align:top;">wsgi</td><td style="vertical-align:top;">:</td><td><div>&lt;gluon.main.LazyWSGI object at 0x045E12F0&gt;</div></td></tr></table></div>'
tRp58
sS'frames'
p59
(lp60
(dp61
S'file'
p62
S'C:\\Users\\Rafael Cisneros\\Desktop\\web2py\\web2py\\gluon\\restricted.py'
p63
sS'dump'
p64
(dp65
S'environment'
p66
S"{'A': <class 'gluon.html.A'>, 'ANY_OF': <class 'gluon.validators.ANY_OF'>, 'ASSIGNJS': <function ASSIGNJS>, 'AppConfig': <function AppConfig>, 'Auth': <class 'gluon.tools.Auth'>, 'B': <class 'gluon.html.B'>, 'BEAUTIFY': <class 'gluon.html.BEAUTIFY'>, 'BODY': <class 'gluon.html.BODY'>, 'BR': <class 'gluon.html.BR'>, 'BUTTON': <class 'gluon.html.BUTTON'>, ...}"
p67
sS'ccode'
p68
S'<code object <module> at 04700C80, file "C:\\User...s\\SisPIOrafael2\\controllers/default.py", line 10>'
p69
ssS'lnum'
p70
I227
sS'lines'
p71
(dp72
I224
S'            ccode = code'
p73
sI225
S'        else:'
p74
sI226
S'            ccode = compile2(code, layer)'
p75
sI227
S'        exec ccode in environment'
p76
sI228
S'    except HTTP:'
p77
sI229
S'        raise'
p78
sI230
S'    except RestrictedError:'
p79
sI231
S'        # do not encapsulate (obfuscate) the original RestrictedError'
p80
sI222
S'    try:'
p81
sI223
S'        if isinstance(code, types.CodeType):'
p82
ssS'call'
p83
S"(code='# -*- coding: utf-8 -*-\\n# this file is released ...esponse._vars=response._caller(coordinadorLiceo)\\n', environment={'A': <class 'gluon.html.A'>, 'ANY_OF': <class 'gluon.validators.ANY_OF'>, 'ASSIGNJS': <function ASSIGNJS>, 'AppConfig': <function AppConfig>, 'Auth': <class 'gluon.tools.Auth'>, 'B': <class 'gluon.html.B'>, 'BEAUTIFY': <class 'gluon.html.BEAUTIFY'>, 'BODY': <class 'gluon.html.BODY'>, 'BR': <class 'gluon.html.BR'>, 'BUTTON': <class 'gluon.html.BUTTON'>, ...}, layer=r'C:\\Users\\Rafael Cisneros\\Desktop\\web2py\\web2py\\applications\\SisPIOrafael2\\controllers/default.py')"
p84
sS'func'
p85
S'restricted'
p86
sa(dp87
g62
S'C:\\Users\\Rafael Cisneros\\Desktop\\web2py\\web2py\\applications\\SisPIOrafael2\\controllers\\default.py'
p88
sg64
(dp89
S'formEstudiante'
p90
S'undefined'
p91
sS'formDatosBasicos'
p92
g91
sS'builtindict'
p93
S"<type 'dict'>"
p94
ssg70
I627
sg71
(dp95
I616
S''
sI617
S'    elif formEstudiante.errors:'
p96
sI618
S'        #error = True'
p97
sI619
S"        response.flash = 'Hay un error en un campo.'"
p98
sI620
S''
sI621
S'    ############################'
p99
sI622
S'    ###fin de Consula de datos'
p100
sI623
S'    ############################'
p101
sI624
S''
sI625
S'    return dict(formDatosBasicos = formDatosBasicos, formEstudiante = formEstudiante)'
p102
ssg83
S'()'
p103
sg85
S'<module>'
p104
sa(dp105
g62
S'C:\\Users\\Rafael Cisneros\\Desktop\\web2py\\web2py\\gluon\\globals.py'
p106
sg64
(dp107
S'self'
p108
g91
sS'f'
S'<function coordinadorLiceo>'
p109
ssg70
I417
sg71
(dp110
I416
S'        self._vars = None'
p111
sI417
S'        self._caller = lambda f: f()'
p112
sI418
S'        self._view_environment = None'
p113
sI419
S'        self._custom_commit = None'
p114
sI420
S'        self._custom_rollback = None'
p115
sI421
S"        self.generic_patterns = ['*']"
p116
sI412
S"        self.flash = ''            # used by the default view layout"
p117
sI413
S'        self.meta = Storage()      # used by web2py_ajax.html'
p118
sI414
S'        self.menu = []             # used by the default view layout'
p119
sI415
S'        self.files = []            # used by web2py_ajax.html'
p120
ssg83
S'(f=<function coordinadorLiceo>)'
p121
sg85
S'<lambda>'
p122
sa(dp123
g62
S'C:\\Users\\Rafael Cisneros\\Desktop\\web2py\\web2py\\gluon\\tools.py'
p124
sg64
(dp125
S'action'
p126
S'<function coordinadorLiceo>'
p127
sS'a'
S'()'
p128
sS'b'
g45
ssg70
I4241
sg71
(dp129
I4236
S'                    flag = condition'
p130
sI4237
S'                if not flag:'
p131
sI4238
S'                    current.session.flash = self.messages.access_denied'
p132
sI4239
S'                    return call_or_redirect('
p133
sI4240
S'                        self.settings.on_failed_authorization)'
p134
sI4241
S'                return action(*a, **b)'
p135
sI4242
S'            f.__doc__ = action.__doc__'
p136
sI4243
S'            f.__name__ = action.__name__'
p137
sI4244
S'            f.__dict__.update(action.__dict__)'
p138
sI4245
S'            return f'
p139
ssg83
S'(*a=(), **b={})'
p140
sg85
S'f'
sa(dp141
g62
S'C:\\Users\\Rafael Cisneros\\Desktop\\web2py\\web2py\\gluon\\tools.py'
p142
sg64
(dp143
S'action'
p144
S'<function coordinadorLiceo>'
p145
sS'a'
S'()'
p146
sS'b'
g45
ssg70
I4241
sg71
(dp147
I4236
S'                    flag = condition'
p148
sI4237
S'                if not flag:'
p149
sI4238
S'                    current.session.flash = self.messages.access_denied'
p150
sI4239
S'                    return call_or_redirect('
p151
sI4240
S'                        self.settings.on_failed_authorization)'
p152
sI4241
S'                return action(*a, **b)'
p153
sI4242
S'            f.__doc__ = action.__doc__'
p154
sI4243
S'            f.__name__ = action.__name__'
p155
sI4244
S'            f.__dict__.update(action.__dict__)'
p156
sI4245
S'            return f'
p157
ssg83
S'(*a=(), **b={})'
p158
sg85
S'f'
sa(dp159
g62
S'C:\\Users\\Rafael Cisneros\\Desktop\\web2py\\web2py\\applications\\SisPIOrafael2\\controllers\\default.py'
p160
sg64
(dp161
S'extension'
p162
g91
ssg70
I291
sg71
(dp163
I288
S"                            INPUT(_name='archivo', _type='file')"
p164
sI289
S'                            )'
p165
sI290
S"    if formularioArchivo.accepts(request.vars,formname='formularioArchivo'): # Chequeamos si hay un archivo cargado"
p166
sI291
S'        archivo =request.vars.fileToUpload.filename.split(".")  # Separamos el nombre del archivo de la extension'
p167
sI292
S'        nombreArchivo, extension = archivo[0], archivo[1]'
p168
sI293
S'        if extension == "csv":          # Chequeamos la extension del archivo'
p169
sI294
S'            ######################'
p170
sI295
S'            # Cargando Estudiantes'
p171
sI286
S'    formularioArchivo = FORM('
p172
sI287
S"                            INPUT(_name='tituloArchivo', _type='text'),"
p173
ssg83
S'()'
p174
sg85
S'coordinadorLiceo'
p175
sasS'pyver'
p176
S'Python 2.7.9: C:\\Users\\Rafael Cisneros\\Desktop\\web2py\\web2py\\web2py.exe (prefix: C:\\Python27)'
p177
sS'session'
p178
g57
(S's\x9e\n\x00\x00<div><table><tr><td style="font-weight:bold;vertical-align:top;">auth</td><td style="vertical-align:top;">:</td><td><div><table><tr><td style="font-weight:bold;vertical-align:top;">expiration</td><td style="vertical-align:top;">:</td><td><div>3600</div></td></tr><tr><td style="font-weight:bold;vertical-align:top;">hmac_key</td><td style="vertical-align:top;">:</td><td><div>af3233cd-0d16-4e00-9c89-df446ceccf2b</div></td></tr><tr><td style="font-weight:bold;vertical-align:top;">last_visit</td><td style="vertical-align:top;">:</td><td><div>datetime.datetime(2017, 10, 22, 13, 45, 47, 265000)</div></td></tr><tr><td style="font-weight:bold;vertical-align:top;">remember_me</td><td style="vertical-align:top;">:</td><td><div>False</div></td></tr><tr><td style="font-weight:bold;vertical-align:top;">user</td><td style="vertical-align:top;">:</td><td><div><table><tr><td style="font-weight:bold;vertical-align:top;">email</td><td style="vertical-align:top;">:</td><td><div></div></td></tr><tr><td style="font-weight:bold;vertical-align:top;">first_name</td><td style="vertical-align:top;">:</td><td><div>Hugo Rafael</div></td></tr><tr><td style="font-weight:bold;vertical-align:top;">id</td><td style="vertical-align:top;">:</td><td><div>4L</div></td></tr><tr><td style="font-weight:bold;vertical-align:top;">last_name</td><td style="vertical-align:top;">:</td><td><div>Capriles Radonsky</div></td></tr><tr><td style="font-weight:bold;vertical-align:top;">registration_id</td><td style="vertical-align:top;">:</td><td><div></div></td></tr><tr><td style="font-weight:bold;vertical-align:top;">registration_key</td><td style="vertical-align:top;">:</td><td><div></div></td></tr><tr><td style="font-weight:bold;vertical-align:top;">reset_password_key</td><td style="vertical-align:top;">:</td><td><div></div></td></tr><tr><td style="font-weight:bold;vertical-align:top;">username</td><td style="vertical-align:top;">:</td><td><div>19825783</div></td></tr></table></div></td></tr><tr><td style="font-weight:bold;vertical-align:top;">user_groups</td><td style="vertical-align:top;">:</td><td><div><table><tr><td style="font-weight:bold;vertical-align:top;">3</td><td style="vertical-align:top;">:</td><td><div>Representante_liceo</div></td></tr></table></div></td></tr></table></div></td></tr><tr><td style="font-weight:bold;vertical-align:top;">flash</td><td style="vertical-align:top;">:</td><td><div>None</div></td></tr><tr><td style="font-weight:bold;vertical-align:top;">last_orderby</td><td style="vertical-align:top;">:</td><td><div>None</div></td></tr><tr><td style="font-weight:bold;vertical-align:top;">last_query</td><td style="vertical-align:top;">:</td><td><div>db.usuario.id&gt;0</div></td></tr></table></div>'
tRp179
sS'etype'
p180
S"<type 'exceptions.AttributeError'>"
p181
sS'date'
p182
S'Sun Oct 22 13:45:53 2017'
p183
sS'response'
p184
g57
(S's\x81@\x00\x00<div><table><tr><td style="font-weight:bold;vertical-align:top;">body</td><td style="vertical-align:top;">:</td><td><div>&lt;cStringIO.StringO object at 0x09A1DC20&gt;</div></td></tr><tr><td style="font-weight:bold;vertical-align:top;">cookies</td><td style="vertical-align:top;">:</td><td><div><table><tr><td style="font-weight:bold;vertical-align:top;">session_id_sispiorafael2</td><td style="vertical-align:top;">:</td><td><div>127.0.0.1-752278f2-a589-4bd3-8942-1036e4c7279e<table><tr><td style="font-weight:bold;vertical-align:top;">comment</td><td style="vertical-align:top;">:</td><td><div></div></td></tr><tr><td style="font-weight:bold;vertical-align:top;">domain</td><td style="vertical-align:top;">:</td><td><div></div></td></tr><tr><td style="font-weight:bold;vertical-align:top;">expires</td><td style="vertical-align:top;">:</td><td><div></div></td></tr><tr><td style="font-weight:bold;vertical-align:top;">httponly</td><td style="vertical-align:top;">:</td><td><div></div></td></tr><tr><td style="font-weight:bold;vertical-align:top;">max-age</td><td style="vertical-align:top;">:</td><td><div></div></td></tr><tr><td style="font-weight:bold;vertical-align:top;">path</td><td style="vertical-align:top;">:</td><td><div>/</div></td></tr><tr><td style="font-weight:bold;vertical-align:top;">secure</td><td style="vertical-align:top;">:</td><td><div></div></td></tr><tr><td style="font-weight:bold;vertical-align:top;">version</td><td style="vertical-align:top;">:</td><td><div></div></td></tr></table></div></td></tr></table></div></td></tr><tr><td style="font-weight:bold;vertical-align:top;">delimiters</td><td style="vertical-align:top;">:</td><td><div><table><tr><td><div>{{</div></td></tr><tr><td><div>}}</div></td></tr></table></div></td></tr><tr><td style="font-weight:bold;vertical-align:top;">files</td><td style="vertical-align:top;">:</td><td><div><table></table></div></td></tr><tr><td style="font-weight:bold;vertical-align:top;">flash</td><td style="vertical-align:top;">:</td><td><div></div></td></tr><tr><td style="font-weight:bold;vertical-align:top;">form_label_separator</td><td style="vertical-align:top;">:</td><td><div></div></td></tr><tr><td style="font-weight:bold;vertical-align:top;">formstyle</td><td style="vertical-align:top;">:</td><td><div>bootstrap3_inline</div></td></tr><tr><td style="font-weight:bold;vertical-align:top;">generic_patterns</td><td style="vertical-align:top;">:</td><td><div><table><tr><td><div>*</div></td></tr></table></div></td></tr><tr><td style="font-weight:bold;vertical-align:top;">google_analytics_id</td><td style="vertical-align:top;">:</td><td><div>None</div></td></tr><tr><td style="font-weight:bold;vertical-align:top;">headers</td><td style="vertical-align:top;">:</td><td><div><table><tr><td style="font-weight:bold;vertical-align:top;">X-Powered-By</td><td style="vertical-align:top;">:</td><td><div>web2py</div></td></tr></table></div></td></tr><tr><td style="font-weight:bold;vertical-align:top;">logo</td><td style="vertical-align:top;">:</td><td><div><a class="navbar-brand" href="http://www.web2py.com/" id="web2py-logo"><b>web<span>2</span>py</b>&trade;&nbsp;</a></div></td></tr><tr><td style="font-weight:bold;vertical-align:top;">menu</td><td style="vertical-align:top;">:</td><td><div><table><tr><td><div><table><tr><td><div>Inicio</div></td></tr><tr><td><div>False</div></td></tr><tr><td><div>/SisPIOrafael2/default/index</div></td></tr><tr><td><div><table></table></div></td></tr></table></div></td></tr><tr><td><div><table><tr><td><div>Mis Sitios</div></td></tr><tr><td><div>False</div></td></tr><tr><td><div>/admin/default/site</div></td></tr></table></div></td></tr><tr><td><div><table><tr><td><div>Esta Aplicaci\xc3\xb3n</div></td></tr><tr><td><div>False</div></td></tr><tr><td><div>#</div></td></tr><tr><td><div><table><tr><td><div><table><tr><td><div>Design</div></td></tr><tr><td><div>False</div></td></tr><tr><td><div>/admin/default/design/SisPIOrafael2</div></td></tr></table></div></td></tr><tr><td><div><li class="divider"></li></div></td></tr><tr><td><div><table><tr><td><div>Controlador</div></td></tr><tr><td><div>False</div></td></tr><tr><td><div>/admin/default/edit/SisPIOrafael2/controllers/default.py</div></td></tr></table></div></td></tr><tr><td><div><table><tr><td><div>Vista</div></td></tr><tr><td><div>False</div></td></tr><tr><td><div>/admin/default/edit/SisPIOrafael2/views/default/coordinadorLiceo.html</div></td></tr></table></div></td></tr><tr><td><div><table><tr><td><div>Modelo BDD</div></td></tr><tr><td><div>False</div></td></tr><tr><td><div>/admin/default/edit/SisPIOrafael2/models/db.py</div></td></tr></table></div></td></tr><tr><td><div><table><tr><td><div>Modelo "menu"</div></td></tr><tr><td><div>False</div></td></tr><tr><td><div>/admin/default/edit/SisPIOrafael2/models/menu.py</div></td></tr></table></div></td></tr><tr><td><div><table><tr><td><div>Config.ini</div></td></tr><tr><td><div>False</div></td></tr><tr><td><div>/admin/default/edit/SisPIOrafael2/private/appconfig.ini</div></td></tr></table></div></td></tr><tr><td><div><table><tr><td><div>Dise\xc3\xb1o de p\xc3\xa1gina</div></td></tr><tr><td><div>False</div></td></tr><tr><td><div>/admin/default/edit/SisPIOrafael2/views/layout.html</div></td></tr></table></div></td></tr><tr><td><div><table><tr><td><div>Hoja de estilo</div></td></tr><tr><td><div>False</div></td></tr><tr><td><div>/admin/default/edit/SisPIOrafael2/static/css/web2py-bootstrap3.css</div></td></tr></table></div></td></tr><tr><td><div><table><tr><td><div>Base de datos</div></td></tr><tr><td><div>False</div></td></tr><tr><td><div>/SisPIOrafael2/appadmin/index</div></td></tr></table></div></td></tr><tr><td><div><table><tr><td><div>Errores</div></td></tr><tr><td><div>False</div></td></tr><tr><td><div>/admin/default/errors/SisPIOrafael2</div></td></tr></table></div></td></tr><tr><td><div><table><tr><td><div>Acerca de</div></td></tr><tr><td><div>False</div></td></tr><tr><td><div>/admin/default/about/SisPIOrafael2</div></td></tr></table></div></td></tr></table></div></td></tr></table></div></td></tr><tr><td><div><table><tr><td><div>web2py.com</div></td></tr><tr><td><div>False</div></td></tr><tr><td><div>#</div></td></tr><tr><td><div><table><tr><td><div><table><tr><td><div>Descargas</div></td></tr><tr><td><div>False</div></td></tr><tr><td><div>http://www.web2py.com/examples/default/download</div></td></tr></table></div></td></tr><tr><td><div><table><tr><td><div>Soporte</div></td></tr><tr><td><div>False</div></td></tr><tr><td><div>http://www.web2py.com/examples/default/support</div></td></tr></table></div></td></tr><tr><td><div><table><tr><td><div>Demostraci\xc3\xb3n</div></td></tr><tr><td><div>False</div></td></tr><tr><td><div>http://web2py.com/demo_admin</div></td></tr></table></div></td></tr><tr><td><div><table><tr><td><div>Ejemplos R\xc3\xa1pidos</div></td></tr><tr><td><div>False</div></td></tr><tr><td><div>http://web2py.com/examples/default/examples</div></td></tr></table></div></td></tr><tr><td><div><table><tr><td><div>FAQ</div></td></tr><tr><td><div>False</div></td></tr><tr><td><div>http://web2py.com/AlterEgo</div></td></tr></table></div></td></tr><tr><td><div><table><tr><td><div>V\xc3\xaddeos</div></td></tr><tr><td><div>False</div></td></tr><tr><td><div>http://www.web2py.com/examples/default/videos/</div></td></tr></table></div></td></tr><tr><td><div><table><tr><td><div>Aplicaciones Libres</div></td></tr><tr><td><div>False</div></td></tr><tr><td><div>http://web2py.com/appliances</div></td></tr></table></div></td></tr><tr><td><div><table><tr><td><div>Plugins</div></td></tr><tr><td><div>False</div></td></tr><tr><td><div>http://web2py.com/plugins</div></td></tr></table></div></td></tr><tr><td><div><table><tr><td><div>Recetas</div></td></tr><tr><td><div>False</div></td></tr><tr><td><div>http://web2pyslices.com/</div></td></tr></table></div></td></tr></table></div></td></tr></table></div></td></tr><tr><td><div><table><tr><td><div>Documentaci\xc3\xb3n</div></td></tr><tr><td><div>False</div></td></tr><tr><td><div>#</div></td></tr><tr><td><div><table><tr><td><div><table><tr><td><div>Online book</div></td></tr><tr><td><div>False</div></td></tr><tr><td><div>http://www.web2py.com/book</div></td></tr></table></div></td></tr><tr><td><div><li class="divider"></li></div></td></tr><tr><td><div><table><tr><td><div>Prefacio</div></td></tr><tr><td><div>False</div></td></tr><tr><td><div>http://www.web2py.com/book/default/chapter/00</div></td></tr></table></div></td></tr><tr><td><div><table><tr><td><div>Introducci\xc3\xb3n</div></td></tr><tr><td><div>False</div></td></tr><tr><td><div>http://www.web2py.com/book/default/chapter/01</div></td></tr></table></div></td></tr><tr><td><div><table><tr><td><div>Python</div></td></tr><tr><td><div>False</div></td></tr><tr><td><div>http://www.web2py.com/book/default/chapter/02</div></td></tr></table></div></td></tr><tr><td><div><table><tr><td><div>Resumen</div></td></tr><tr><td><div>False</div></td></tr><tr><td><div>http://www.web2py.com/book/default/chapter/03</div></td></tr></table></div></td></tr><tr><td><div><table><tr><td><div>El N\xc3\xbacleo</div></td></tr><tr><td><div>False</div></td></tr><tr><td><div>http://www.web2py.com/book/default/chapter/04</div></td></tr></table></div></td></tr><tr><td><div><table><tr><td><div>Las Vistas</div></td></tr><tr><td><div>False</div></td></tr><tr><td><div>http://www.web2py.com/book/default/chapter/05</div></td></tr></table></div></td></tr><tr><td><div><table><tr><td><div>Base de datos</div></td></tr><tr><td><div>False</div></td></tr><tr><td><div>http://www.web2py.com/book/default/chapter/06</div></td></tr></table></div></td></tr><tr><td><div><table><tr><td><div>Formularios y validadores</div></td></tr><tr><td><div>False</div></td></tr><tr><td><div>http://www.web2py.com/book/default/chapter/07</div></td></tr></table></div></td></tr><tr><td><div><table><tr><td><div>Correo electr\xc3\xb3nico y SMS</div></td></tr><tr><td><div>False</div></td></tr><tr><td><div>http://www.web2py.com/book/default/chapter/08</div></td></tr></table></div></td></tr><tr><td><div><table><tr><td><div>Control de Acceso</div></td></tr><tr><td><div>False</div></td></tr><tr><td><div>http://www.web2py.com/book/default/chapter/09</div></td></tr></table></div></td></tr><tr><td><div><table><tr><td><div>Servicios</div></td></tr><tr><td><div>False</div></td></tr><tr><td><div>http://www.web2py.com/book/default/chapter/10</div></td></tr></table></div></td></tr><tr><td><div><table><tr><td><div>Recetas AJAX</div></td></tr><tr><td><div>False</div></td></tr><tr><td><div>http://www.web2py.com/book/default/chapter/11</div></td></tr></table></div></td></tr><tr><td><div><table><tr><td><div>Componentes y Plugins</div></td></tr><tr><td><div>False</div></td></tr><tr><td><div>http://www.web2py.com/book/default/chapter/12</div></td></tr></table></div></td></tr><tr><td><div><table><tr><td><div>Recetas de despliegue</div></td></tr><tr><td><div>False</div></td></tr><tr><td><div>http://www.web2py.com/book/default/chapter/13</div></td></tr></table></div></td></tr><tr><td><div><table><tr><td><div>Otras Recetas</div></td></tr><tr><td><div>False</div></td></tr><tr><td><div>http://www.web2py.com/book/default/chapter/14</div></td></tr></table></div></td></tr><tr><td><div><table><tr><td><div>Helping web2py</div></td></tr><tr><td><div>False</div></td></tr><tr><td><div>http://www.web2py.com/book/default/chapter/15</div></td></tr></table></div></td></tr><tr><td><div><table><tr><td><div>Buy web2py\'s book</div></td></tr><tr><td><div>False</div></td></tr><tr><td><div>http://stores.lulu.com/web2py</div></td></tr></table></div></td></tr></table></div></td></tr></table></div></td></tr><tr><td><div><table><tr><td><div>Comunidad</div></td></tr><tr><td><div>False</div></td></tr><tr><td><div>None</div></td></tr><tr><td><div><table><tr><td><div><table><tr><td><div>Grupos</div></td></tr><tr><td><div>False</div></td></tr><tr><td><div>http://www.web2py.com/examples/default/usergroups</div></td></tr></table></div></td></tr><tr><td><div><table><tr><td><div>Twitter</div></td></tr><tr><td><div>False</div></td></tr><tr><td><div>http://twitter.com/web2py</div></td></tr></table></div></td></tr><tr><td><div><table><tr><td><div>Chat en vivo</div></td></tr><tr><td><div>False</div></td></tr><tr><td><div>http://webchat.freenode.net/?channels=web2py</div></td></tr></table></div></td></tr></table></div></td></tr></table></div></td></tr></table></div></td></tr><tr><td style="font-weight:bold;vertical-align:top;">meta</td><td style="vertical-align:top;">:</td><td><div><table><tr><td style="font-weight:bold;vertical-align:top;">author</td><td style="vertical-align:top;">:</td><td><div>Your Name &lt;you@example.com&gt;</div></td></tr><tr><td style="font-weight:bold;vertical-align:top;">description</td><td style="vertical-align:top;">:</td><td><div>a cool new app</div></td></tr><tr><td style="font-weight:bold;vertical-align:top;">generator</td><td style="vertical-align:top;">:</td><td><div>Web2py Web Framework</div></td></tr><tr><td style="font-weight:bold;vertical-align:top;">keywords</td><td style="vertical-align:top;">:</td><td><div><table><tr><td><div>web2py</div></td></tr><tr><td><div>python</div></td></tr><tr><td><div>framework</div></td></tr></table></div></td></tr></table></div></td></tr><tr><td style="font-weight:bold;vertical-align:top;">models_to_run</td><td style="vertical-align:top;">:</td><td><div><table><tr><td><div>^\\w+\\.py$</div></td></tr><tr><td><div>^default/\\w+\\.py$</div></td></tr><tr><td><div>^default/coordinadorLiceo/\\w+\\.py$</div></td></tr></table></div></td></tr><tr><td style="font-weight:bold;vertical-align:top;">postprocessing</td><td style="vertical-align:top;">:</td><td><div><table></table></div></td></tr><tr><td style="font-weight:bold;vertical-align:top;">session_client</td><td style="vertical-align:top;">:</td><td><div>127.0.0.1</div></td></tr><tr><td style="font-weight:bold;vertical-align:top;">session_cookie_compression_level</td><td style="vertical-align:top;">:</td><td><div>None</div></td></tr><tr><td style="font-weight:bold;vertical-align:top;">session_cookie_expires</td><td style="vertical-align:top;">:</td><td><div>None</div></td></tr><tr><td style="font-weight:bold;vertical-align:top;">session_data_name</td><td style="vertical-align:top;">:</td><td><div>session_data_sispiorafael2</div></td></tr><tr><td style="font-weight:bold;vertical-align:top;">session_file</td><td style="vertical-align:top;">:</td><td><div>&lt;open file &#x27;C:\\\\Users\\\\Rafael Cisneros\\\\Desktop\\\\web2py\\\\web2py\\\\applications\\\\SisPIOrafael2\\\\sessions\\\\162\\\\0c1\\\\127.0.0.1-752278f2-a589-4bd3-8942-1036e4c7279e&#x27;, mode &#x27;rb+&#x27; at 0x044C65F8&gt;</div></td></tr><tr><td style="font-weight:bold;vertical-align:top;">session_filename</td><td style="vertical-align:top;">:</td><td><div>C:\\Users\\Rafael Cisneros\\Desktop\\web2py\\web2py\\applications\\SisPIOrafael2\\sessions\\127.0.0.1-752278f2-a589-4bd3-8942-1036e4c7279e</div></td></tr><tr><td style="font-weight:bold;vertical-align:top;">session_hash</td><td style="vertical-align:top;">:</td><td><div>9df35f54f353417bbf85b3961515b3e8</div></td></tr><tr><td style="font-weight:bold;vertical-align:top;">session_id</td><td style="vertical-align:top;">:</td><td><div>127.0.0.1-752278f2-a589-4bd3-8942-1036e4c7279e</div></td></tr><tr><td style="font-weight:bold;vertical-align:top;">session_id_name</td><td style="vertical-align:top;">:</td><td><div>session_id_sispiorafael2</div></td></tr><tr><td style="font-weight:bold;vertical-align:top;">session_locked</td><td style="vertical-align:top;">:</td><td><div>True</div></td></tr><tr><td style="font-weight:bold;vertical-align:top;">session_masterapp</td><td style="vertical-align:top;">:</td><td><div>SisPIOrafael2</div></td></tr><tr><td style="font-weight:bold;vertical-align:top;">session_new</td><td style="vertical-align:top;">:</td><td><div>False</div></td></tr><tr><td style="font-weight:bold;vertical-align:top;">session_storage_type</td><td style="vertical-align:top;">:</td><td><div>file</div></td></tr><tr><td style="font-weight:bold;vertical-align:top;">status</td><td style="vertical-align:top;">:</td><td><div>200</div></td></tr><tr><td style="font-weight:bold;vertical-align:top;">subtitle</td><td style="vertical-align:top;">:</td><td><div></div></td></tr><tr><td style="font-weight:bold;vertical-align:top;">title</td><td style="vertical-align:top;">:</td><td><div>Sispiorafael2</div></td></tr><tr><td style="font-weight:bold;vertical-align:top;">view</td><td style="vertical-align:top;">:</td><td><div>default/coordinadorLiceo.html</div></td></tr></table></div>'
tRp185
sS'locals'
p186
(dp187
S'erroresCarga'
p188
S'[]'
p189
sS'liceo'
p190
S"'Liceo1'"
p191
sS'cohorte'
p192
S"'2017/2018'"
p193
sS'cargaExitosa'
p194
S'[]'
p195
sS'formularioArchivo'
p196
S'<gluon.html.FORM object>'
p197
sssS'traceback'
p198
S'Traceback (most recent call last):\n  File "C:\\Users\\Rafael Cisneros\\Desktop\\web2py\\web2py\\gluon\\restricted.py", line 227, in restricted\n    exec ccode in environment\n  File "C:\\Users\\Rafael Cisneros\\Desktop\\web2py\\web2py\\applications\\SisPIOrafael2\\controllers/default.py", line 627, in <module>\n  File "C:\\Users\\Rafael Cisneros\\Desktop\\web2py\\web2py\\gluon\\globals.py", line 417, in <lambda>\n    self._caller = lambda f: f()\n  File "C:\\Users\\Rafael Cisneros\\Desktop\\web2py\\web2py\\gluon\\tools.py", line 4241, in f\n    return action(*a, **b)\n  File "C:\\Users\\Rafael Cisneros\\Desktop\\web2py\\web2py\\gluon\\tools.py", line 4241, in f\n    return action(*a, **b)\n  File "C:\\Users\\Rafael Cisneros\\Desktop\\web2py\\web2py\\applications\\SisPIOrafael2\\controllers/default.py", line 291, in coordinadorLiceo\n    archivo =request.vars.fileToUpload.filename.split(".")  # Separamos el nombre del archivo de la extension\nAttributeError: \'list\' object has no attribute \'filename\'\n'
p199
s.