(dp1
S'output'
p2
S"<type 'exceptions.AttributeError'> 'str' object has no attribute 'filename'"
p3
sS'layer'
p4
S'C:\\Users\\Rafael Cisneros\\Desktop\\web2py\\web2py\\applications\\SisPIOrafael2\\views\\default/admin.html'
p5
sS'code'
p6
S'response.write(\'<!DOCTYPE html>\\r\\n<html lang="es">\\r\\n\\r\\n<head>\\r\\n    <meta charset="utf-8">\\r\\n    <meta http-equiv="X-UA-Compatible" content="IE=edge">\\r\\n    <meta name="viewport" content="width=device-width, initial-scale=1">\\r\\n    <!-- The above 3 meta tags *must* come first in the head; any other head content must come *after* these tags. Will make it responsive-->\\r\\n    <title>Sistema PIO</title>\\r\\n    <link rel="shortcut icon" href="\', escape=False)\nresponse.write(URL(\'static\', \'images/logoUSB.png\'))\nresponse.write(\'" />\\r\\n     <!-- Bootstrap -->\\r\\n    <link href="\', escape=False)\nresponse.write(URL(\'static\', \'css/bootstrap.min.css\'))\nresponse.write(\'" rel="stylesheet">\\r\\n    <link href="\', escape=False)\nresponse.write(URL(\'static\', \'css/bootstrap-theme.min.css\'))\nresponse.write(\'" rel="stylesheet">\\r\\n    <link href="\', escape=False)\nresponse.write(URL(\'static\', \'css/index.css\'))\nresponse.write(\'" rel="stylesheet">\\r\\n\\r\\n    <!-- HTML5 shim and Respond.js for IE8 support of HTML5 elements and media queries -->\\r\\n    <!-- WARNING: Respond.js doesn\\\'t work if you view the page via file:// -->\\r\\n    <!--[if lt IE 9]>\\r\\n      <script src="https://oss.maxcdn.com/html5shiv/3.7.3/html5shiv.min.js"></script>\\r\\n      <script src="https://oss.maxcdn.com/respond/1.4.2/respond.min.js"></script>\\r\\n    <![endif]-->\\r\\n</head>\\r\\n<div class="container">\\r\\n        <div class="row">\\r\\n            <!--HEADER --> \\r\\n            <div class="col-sm-12">\\r\\n                <img id="Logo" class="img-responsive" src="\', escape=False)\nresponse.write(URL(\'static\', \'images/bar7.png\'))\nresponse.write(\'" >\\r\\n            </div>\\r\\n            \\r\\n             <!--Navbar -->\\r\\n            <div class=" col-sm-12">\\r\\n                \\r\\n                <nav class="navbar navbar-default inicioSesion">\\r\\n                  <div class="container-fluid">\\r\\n                    <!-- Brand and toggle get grouped for better mobile display -->\\r\\n                    <div class="navbar-header">\\r\\n                      <button type="button" class="navbar-toggle collapsed" data-toggle="collapse" data-target="#bs-example-navbar-collapse-1" aria-expanded="false">\\r\\n                        <span class="sr-only">Toggle navigation</span>\\r\\n                        <span class="icon-bar"></span>\\r\\n                        <span class="icon-bar"></span>\\r\\n                        <span class="icon-bar"></span>\\r\\n                      </button>\\r\\n                    </div>\\r\\n\\r\\n                    <!-- Collect the nav links, forms, and other content for toggling -->\\r\\n                    <div class="collapse navbar-collapse" id="bs-example-navbar-collapse-1">\\r\\n                      <ul class="nav navbar-nav navbar-right">\\r\\n                          <li class="dropdown">\\r\\n                              <a href="#" class="dropdown-toggle" data-toggle="dropdown" role="button" aria-haspopup="true" aria-expanded="false">Nombre de usuario <span class="caret"></span></a>\\r\\n                              <ul class="dropdown-menu">\\r\\n                                    <li id="userinfo"><a href="#"><span class="glyphicon glyphicon-user "></span> Mi perfil </a></li>\\r\\n                                    <li id="enviar"><a href="#"><span class="glyphicon glyphicon-envelope"></span> Contactanos</a></li>\\r\\n                                    <li role="separator" class="divider"></li>\\r\\n                                    <li><a href="\', escape=False)\nresponse.write(URL(\'default\', \'user\', args=\'logout\'))\nresponse.write(\'"><span class="glyphicon glyphicon-log-out"></span> Salir </a></li>\\r\\n                              </ul>\\r\\n                          </li>\\r\\n                        </ul>\\r\\n                    </div><!-- /.navbar-collapse -->\\r\\n                  </div><!-- /.container-fluid -->\\r\\n                </nav>\\r\\n            </div><!--col12-->\\r\\n        </div><!--row-->\\r\\n            \\r\\n    </div><!--container-->\\r\\n\\r\\n<body>\\r\\n    <div  class="container">\\r\\n         <!-- Information-->\\r\\n        <div id="inicio" class="row">\\r\\n            <div class="col-md-12">  \\r\\n              <div class="row">\\r\\n                <div class="col-md-3">\\r\\n                    <!--Aspirantes-->\\r\\n                    <h3> Aspirantes </h3>\\r\\n                    <div class="row">\\r\\n                    <ul class="nav nav-pills nav-stacked">\\r\\n                    <li role="presentation"><a id="add">Agregar Manualmente </a></li>\\r\\n                     <li role="presentation" ><a id="upload" href="#">Cargar archivo</a></li>\\r\\n                      <li role="presentation"><a id="lookfor" href="#">Consultar</a></li>\\r\\n                     <li role="presentation"><a id="edit" href="#">Modificar</a></li>\\r\\n                      <li role="presentation"><a id="comp" href="#">Generar comprobante</a></li>\\r\\n                    </ul>\\r\\n                    </div>\\r\\n                     <!--OTROS-->   \\r\\n                    <h3> Otros </h3>\\r\\n                    <div class="row">\\r\\n                    <ul class="nav nav-pills nav-stacked">\\r\\n                      <li role="presentation" class="active"><a id="principal" href="#">Inicio</a></li>\\r\\n                     <li role="presentation" ><a id="news" href="#">Noticias</a></li>\\r\\n                      <li role="presentation"><a class="perfil" href="#">Mi Perfil</a></li>\\r\\n                     <li role="presentation"><a id="allow" href="#">Permisos</a></li>\\r\\n                      <li role="presentation"><a id="contacto" href="#">Correo Masivo</a></li>\\r\\n                      <li role="presentation"><a id="pass" href="#">Cambiar contrase\\xc3\\xb1a</a></li>\\r\\n                      <li role="presentation"><a id="logOut" href="\', escape=False)\nresponse.write(URL(\'default\', \'user\', args=\'logout\'))\nresponse.write(\'">Salir</a></li>\\r\\n                    </ul>\\r\\n                        <br>\\r\\n                  </div>\\r\\n                </div>\\r\\n                <div class="col-md-9">\\r\\n                    <!-- INICIO -->\\r\\n                    <div id="information">\\r\\n                         <h1> Bienvenido al PIO </h1>\\r\\n                        <br><br>\\r\\n                        <p><strong>Coordinadores,</strong></p><br>\\r\\n                        <p class="textCoor">\\r\\n                            Bienvenido al Sistema PIO, para continuar en el proceso de carga de estudiantes es obligatorio llenar el siguiente formulario: <a class="perfil"><strong>Validar mis datos </strong></a></p>\\r\\n                        <p class="textCoor"> \\r\\n                            Recuerde imprimir su comprobante de carga de estudiantes con la opcion generar comprobante, luego de ingresar a sus alumnos al sistema.</p>\\r\\n                        <div>\\r\\n                            <h1 class="datos1">\', escape=False)\nresponse.write(formAdministrador[0][0][1][0])\nresponse.write(\'  </h1>\\r\\n                            <h1 class="datos1"><a id="Editar" href="#"><span class="glyphicon glyphicon-edit green-icn"></span></a></h1>\\r\\n                            <p class="datos">\\r\\n                                <b>Nombre completo: </b> Maigualida Margarita De la Santisima Trinidad Perez Bustamante\\r\\n                                <br>\\r\\n                                <b>Cedula de identidad: </b> 1234567<br>\\r\\n                                <b>Correo electronico: </b> fulanito@uncorreo.com <br>\\r\\n                                <b>Telefono:</b>  (0123) 25689632\\r\\n                                <br>\\r\\n                            </p>\\r\\n                        </div>\\r\\n                    </div>\\r\\n                    <!-- Noticias -->\\r\\n                    <div id="noticias">\\r\\n                        <h1>Noticias</h1>\\r\\n                        <p class="textCoor">No hay noticias recientes</p>\\r\\n                    \\r\\n                    </div>\\r\\n                    <!--Agregar Manual-->\\r\\n                    <div id="agregar">\\r\\n                        <h1>Agregar usuarios al Sistema PIO</h1><br>\\r\\n                        <form method="get" >\\r\\n                        <fieldset>\\r\\n                            <legend>Tipo de usuario</legend>\\r\\n                            <div class="form-group">\\r\\n                                <label for="quien"  class="col-sm-8 control-label lineCentral">Seleccione el tipo de usuario a ingresar: </label><br>\\r\\n                                   <br><input type="checkbox" class="" name="estudiantes" value="Estudiantes" >Estudiante<br>\\r\\n                                    <input type="checkbox" class="" name="profesores" value="Profesores" >Profesor <br>\\r\\n                                    <input type="checkbox" class="" name="coordinadorLiceo" value="CoorLiceo" >Coordinador Liceo <br>\\r\\n                                    <input type="checkbox" class="" name="coorPio" value="coorPio" >Coordinador Pio<br>\\r\\n                            </div>\\r\\n                        </fieldset>\\r\\n                        <fieldset>\\r\\n                            <legend>Datos personales</legend>\\r\\n                        <!-- Person ID -->\\r\\n                            <label for="cedula">Cedula de identidad: </label>\\r\\n                            <input type="text" id="cedula" name="ID" placeholder="Cedula de identidad" required> <br>\\r\\n                        <!-- Person name -->\\r\\n                            <label for="name">Nombres: </label>\\r\\n                            <input type="text" id="nombre" name="Nombre" placeholder="Primer y segundo nombre" required > <br>\\r\\n                        <!-- Person last name -->\\r\\n                            <label for="apellido">Apellidos: </label>\\r\\n                            <input type="text" id="apellido" name="Apellido" placeholder="Primer y segundo apellido"> <br>\\r\\n                        \\r\\n                        <!-- Person average-->\\r\\n                            <label for="promedioEntero">Promedio:</label>\\r\\n                            <input type="number" min="0" max="2" step="1" value="0" id="promedioEntero" class="text-right" name="PromedioEntero">\\r\\n                            <strong> .</strong>\\r\\n                            <input type="number" min="0" max="2" step="1" value="0" id="promedioDecimal" class="text-right" name="PromedioDecimal" required>\\r\\n                            <br>\\r\\n                        <!-- Person country -->\\r\\n                            <label for="country" >Liceo de procedencia: </label>\\r\\n                            <select class="select-style" name="cities" >\\r\\n                                <option value="ccs" disable >Seleccione uno</option>\\r\\n                                <option value="ccs">Programa de Cadena 2017</option>\\r\\n                            </select>\\r\\n                            <br>\\r\\n                        <!--Person email -->\\r\\n                            <label for="email">Email: </label>\\r\\n                            <input type="email" id="email" name="Email" placeholder="Correo electronico"><br>\\r\\n                        <!-- Person mobile -->\\r\\n                            <label for="mobile">Telefono principal: </label>\\r\\n                            <input type="tel" id="mobile" name="Mobile" placeholder="Telefono principal" max="11">\\r\\n                            <br>\\r\\n                        <!-- Person address-->\\r\\n                            <label class="dir" for="direccion">Direccion:</label>\\r\\n                            <div class="textarea1"><textarea id="direccion" > </textarea> </div>\\r\\n                            <br>\\r\\n                        </fieldset> <br>\\r\\n                        \\r\\n                        <div class="save text-center"><input type="submit" class="btn btn-primary save" value="Agregar"></div>\\r\\n                      </form>\\r\\n                    \\r\\n                    </div>\\r\\n                     <!--CARGAR ARCHIVO-->\\r\\n                    <div id="cargar">\\r\\n                         <div class="row">\\r\\n                            <div class="container">\\r\\n                                  <h2>Cargar archivo</h2>\\r\\n                                  <p>Seleccione el tipo de usuario a cargar:</p>\\r\\n                                  <form>\\r\\n                                    <div class="radio">\\r\\n                                      <label><input type="radio" name="optradio">Estudiante</label>\\r\\n                                    </div>\\r\\n                                    <div class="radio">\\r\\n                                      <label><input type="radio" name="optradio">Profesor</label>\\r\\n                                    </div>\\r\\n                                    <div class="radio">\\r\\n                                      <label><input type="radio" name="optradio">Coordinador liceo</label>\\r\\n                                    </div>\\r\\n                                    <div class="radio">\\r\\n                                      <label><input type="radio" name="optradio">Coordinador sede</label>\\r\\n                                    </div>\\r\\n                                  </form>\\r\\n                                </div>\\r\\n                                 <div class="container">\\r\\n                                    <!--<form method="get" enctype="multipart/form-data">-->\\r\\n                                    <form action="" enctype="multipart/form-data" method="post">\\r\\n                                            <fieldset>\\r\\n                                                <legend>Seleccionar archivo</legend>\\r\\n                                                <div class="form-group">\\r\\n                                                    <br>\\r\\n                                                    <p class="textCoor">Por favor selecione su archivo a cargar y presione enviar</p><br>\\r\\n                                                    <label for="file">Archivo: </label> \\r\\n                            \\t\\t\\t\\t        <input type="file" id="file" name="fileToUpload" require><br><br>\\r\\n                                                     <div class="save text-center"><input type="submit" class="btn btn-primary save" value="Enviar"></div>\\r\\n                                                </div>\\r\\n                                        </fieldset>\\r\\n                                    </form>\\r\\n                                </div>\\r\\n                             \', escape=False)\nif request.get_vars:\n    response.write(\'\\r\\n                             \', escape=False)\n    response.write(request.vars[\'fileToUpload\'])\n    response.write(\'\\r\\n                             \', escape=False)\n    response.write(request.vars.fileToUpload.filename)\n    response.write(\'\\r\\n                             \', escape=False)\n    pass\nresponse.write(\'\\r\\n                        </div>\\r\\n                    </div>\\r\\n                    <!-- MI PERFIL -->\\r\\n                    <div id="miPerfil" class="row">\\r\\n                     <form method="get" >\\r\\n                        \\r\\n                        <fieldset>\\r\\n                            <legend>Datos personales</legend>\\r\\n                        <!-- Person ID -->\\r\\n                            <label for="cedula">Cedula de identidad: </label>\\r\\n                            <input type="text" id="cedula" name="ID" placeholder="Cedula de identidad" readonly="readonly"> <br>\\r\\n                        <!-- Person name -->\\r\\n                            <label for="name">Nombres: </label>\\r\\n                            <input type="text" id="nombre" name="Nombre" placeholder="Primer y segundo nombre" required readonly="readonly"> <br>\\r\\n                        <!-- Person last name -->\\r\\n                            <label for="apellido">Apellidos: </label>\\r\\n                            <input type="text" id="apellido" name="Apellido" placeholder="Primer y segundo apellido" readonly="readonly"> <br>\\r\\n                        \\r\\n                        <!-- Person gender -->\\r\\n                            <label for="gender">Genero: </label>\\r\\n                            <input type="radio" class="gender" name="gender" value="female">Femenino \\r\\n                            <input type="radio" class="gender" name="gender" value="male" checked>Masculino <br>\\r\\n                        <!-- Person age-->\\r\\n                            <label for="age">Edad:</label>\\r\\n                            <input type="number" min="0" max="150" step="1" value="18" id="age" name="age" required><br>\\r\\n                        <!-- Person Birth-->\\r\\n                            <label for="birthday">Fecha de nacimiento:</label>\\r\\n                            <input type="date" id="birthday" name="birthday" required><br>\\r\\n                        <!-- Person average-->\\r\\n                            <label for="promedioEntero">Promedio:</label>\\r\\n                            <input type="number" min="0" max="20" step="1" value="0" id="promedioEntero" class="text-right" name="PromedioEntero" readonly="readonly">\\r\\n                            <strong> .</strong>\\r\\n                            <input type="number" min="0" max="20" step="1" value="0" id="promedioDecimal" class="text-right" name="PromedioDecimal" readonly="readonly">\\r\\n                            \\r\\n                            <br>\\r\\n                        <!-- Person country -->\\r\\n                            <label for="country" >Liceo de procedencia: </label>\\r\\n                            <select class="select-style" name="cities" >\\r\\n                                <option value="ccs" disable >Seleccione uno</option>\\r\\n                                <option value="ccs">Programa de Cadena 2017</option>\\r\\n                            </select>\\r\\n                        </fieldset> <br>\\r\\n                        <fieldset>\\r\\n                            <legend>Informacion de contacto</legend>\\r\\n                        <!--Person email -->\\r\\n                            <label for="email">Email: </label>\\r\\n                            <input type="email" id="email" name="Email" placeholder="Correo electronico" required><br>\\r\\n                        <!-- Person mobile -->\\r\\n                            <label for="mobile">Telefono principal: </label>\\r\\n                            <input type="tel" id="mobile" name="Mobile" placeholder="Telefono principal" require max="11">\\r\\n                            <br>\\r\\n                        <!-- Person mobile -->\\r\\n                            <label for="secundario">Telefono secundario: </label>\\r\\n                            <input type="tel" id="secundario" name="Mobile2" placeholder="Telefono secundario" require max="11">\\r\\n                            <br>\\r\\n                        <!-- Person address-->\\r\\n                            <label class="dir" for="direccion">Direccion:</label>\\r\\n                            <div class="textarea1"><textarea id="direccion" > </textarea> </div>\\r\\n                            <br>\\r\\n                        </fieldset> <br>\\r\\n                        \\r\\n                        <div class="save text-center"><input type="submit" class="btn btn-primary save" value="Guardar"></div>\\r\\n                      </form>\\r\\n                     </div>\\r\\n                    <!-- CONSULTA -->\\r\\n                    <div id="consultar" class="row">\\r\\n                      <form method="get" >\\r\\n                        <h1>Consultas </h1><br>\\r\\n                        <p class="textCoor">Busqueda de todos los alumnos:</p>\\r\\n                            <div class="form-group">\\r\\n                                   <input type="checkbox" class="gender marg" name="todos" value="todos" checked>Todos<br>\\r\\n                            </div>\\r\\n                           <div class="buscar"><button type="button" class="btn btn-primary save"  value="Consultar" data-toggle="modal" data-target="#ConsultarModal">\\r\\n                              Consultar\\r\\n                            </button></div>\\r\\n                         <!-- institucionn -->\\r\\n                            <p class="textCoor">Busqueda por:</p><br>\\r\\n                            <div class="form-group">\\r\\n                            <label for="institucion"  class="col-sm-2 control-label lineCentral">Institucion: </label>\\r\\n                                <select class="selectStyle" name="institucion" required >\\r\\n                                    <option value="" inactive >Seleccione una institucion</option>\\r\\n                                    <option value="">Institucion</option>\\r\\n                                </select>\\r\\n                            </div>\\r\\n                        <br>\\r\\n                             <!-- Por profesor -->\\r\\n                            \\r\\n                            <div class="form-group">\\r\\n                            <label for="profesor"  class="col-sm-2 control-label lineCentral">Profesor: </label>\\r\\n                                <select class="selectStyle" name="profesor" required >\\r\\n                                    <option value="" inactive >Seleccione un profesor</option>\\r\\n                                    <option value="">Institucion</option>\\r\\n                                </select>\\r\\n                            </div>\\r\\n                        <br>\\r\\n                             <!-- Por cohorte -->\\r\\n                                \\r\\n                                <div class="form-group">\\r\\n                                <label for="profesor"  class="col-sm-2 control-label lineCentral">Cohorte: </label>\\r\\n                                    <select class="selectStyle" name="profesor" required >\\r\\n                                        <option value="" inactive >Seleccione una cohorte</option>\\r\\n                                        <option value="">Institucion</option>\\r\\n                                    </select>\\r\\n                                </div>\\r\\n                            <br>\\r\\n                               \\r\\n                             <!--Edad-->\\r\\n                                    <div class="form-group">\\r\\n                                    <label for="profesor"  class="col-sm-2 control-label lineCentral">Edad: </label>\\r\\n                                        <select class="selectStyle" name="profesor" required >\\r\\n                                            <option value="" inactive >Seleccione una edad</option>\\r\\n                                            <option value="">Institucion</option>\\r\\n                                        </select>\\r\\n                                    </div>\\r\\n                                <br>\\r\\n                        <!--Genero--> \\r\\n                                \\r\\n                                <div class="form-group">\\r\\n                                <label for="profesor"  class="col-sm-2 control-label lineCentral">Genero: </label>\\r\\n                                   <input type="checkbox" class="gender marg" name="gender" value="female" >Femenino<br>\\r\\n\\t\\t\\t\\t                    <input type="checkbox" class="gender marg" name="gender" value="male" >Masculino <br>\\r\\n                                </div>\\r\\n                            <br>\\r\\n                        <!--NOtas-->\\r\\n                            \\r\\n                                <div class="form-group">\\r\\n                                    <strong>Nota menor que:</strong>\\r\\n                                    <input type="number" min="0" max="20" step="1" value="0" id="promedioEntero" class="text-right" name="PromedioEntero">\\r\\n                                    <strong>  Nota mayor que: </strong>\\r\\n                                    <input type="number" min="0" max="20" step="1" value="0" id="promedioDecimal" class="text-right" name="PromedioDecimal"><br>\\r\\n                                </div>\\r\\n                            <br>\\r\\n                         <!--Fecha-->\\r\\n                           \\r\\n                                <div class="form-group">\\r\\n                                    <strong>Fecha entre:</strong>\\r\\n                                    <input type="date" id="fecha1" name="fecha" required>\\r\\n                                    <strong> y : </strong>\\r\\n                                    <input type="date" id="fecha2" name="fecha" required><br><br>\\r\\n                                </div>\\r\\n                            <br>\\r\\n                           <!-- Button trigger modal -->\\r\\n                            <div class="save text-center"><button type="button" class="btn btn-primary save"  value="Consultar" data-toggle="modal" data-target="#ConsultarModal">\\r\\n                              Consultar\\r\\n                            </button></div>\\r\\n                        </form>\\r\\n                        <!-- Modal -->\\r\\n                            <div class="modal fade" id="ConsultarModal" tabindex="-1" role="dialog" aria-labelledby="modalConsult">\\r\\n                              <div class="modal-dialog modal-lg" role="document">\\r\\n                                <div class="modal-content">\\r\\n                                  <div class="modal-header">\\r\\n                                    <button type="button" class="close" data-dismiss="modal" aria-label="Close"><span aria-hidden="true">&times;</span></button>\\r\\n                                    <h4 class="modal-title" id="modalConsult">Consulta</h4>\\r\\n                                  </div>\\r\\n                                  <div class="modal-body">                                                                                  \\r\\n                                          <div class="table-responsive">          \\r\\n                                          <table class="table">\\r\\n                                            <thead>\\r\\n                                              <tr>\\r\\n                                                <th>CD</th>\\r\\n                                                <th>Nombre</th>\\r\\n                                                <th>Apellido</th>\\r\\n                                                <th>Correo</th>\\r\\n                                                <th>Status</th>\\r\\n                                                <th>Promedio</th>\\r\\n                                              </tr>\\r\\n                                            </thead>\\r\\n                                            <tbody>\\r\\n                                              <tr>\\r\\n                                                <td>260733</td>\\r\\n                                                <td>Anna</td>\\r\\n                                                <td>Pitt</td>\\r\\n                                                <td>fulanito@gmail.com</td>\\r\\n                                                <td>ACTIVA</td>\\r\\n                                                <td>20.0</td>\\r\\n                                              </tr>\\r\\n                                            </tbody>\\r\\n                                          </table>\\r\\n                                          </div>\\r\\n                                  </div>\\r\\n                                  <div class="modal-footer">\\r\\n                                    <button type="button" class="btn btn-default" data-dismiss="modal">Close</button>\\r\\n                                    <button type="button" class="btn btn-primary">Imprimir</button>\\r\\n                                  </div>\\r\\n                                </div>\\r\\n                              </div>\\r\\n                            </div>\\r\\n                    </div>\\r\\n                    <!--MODIFICAR-->\\r\\n                    <div id="modificar">\\r\\n                        <h1>Modificar datos del estudiante</h1>\\r\\n                    </div>\\r\\n                    <!--REPORTE-->\\r\\n                    <div id="reporte">\\r\\n                        <h1>Generar comprobrante</h1>\\r\\n                    </div>\\r\\n                    <!--PERMISOS-->\\r\\n                    <div id="permiso">\\r\\n                        <h1>Permisos</h1><br>\\r\\n                        <p class="textCoor">Ingrese la cedula de indentidad de la persona que le otorga permiso de ADMINISTRADOR</p>\\r\\n                        <br>\\r\\n                         <!-- Person ID -->\\r\\n                            <label for="cedula">Cedula de identidad: </label>\\r\\n                            <input type="text" id="id" name="ID" placeholder="Cedula de identidad"> <br><br>\\r\\n                        <div class="save text-center"><input type="submit" class="btn btn-primary save" value="Permitir"></div>\\r\\n                    </div>\\r\\n                    <!-- CONTRASENA -->\\r\\n                    <div id="cambioContra" class="row">\\r\\n                        <h1>Cambiar contrase\\xc3\\xb1a</h1><br><br>\\r\\n                    <form method="get">\\r\\n                       <!-- Contrase;a actual -->\\r\\n                            <label for="contrase\\xc3\\xb1a">Contrase\\xc3\\xb1a actual: </label>\\r\\n                            <input type="password" id="contrasena" name="contrase\\xc3\\xb1a" placeholder="Contrase\\xc3\\xb1a actual" required> <br>\\r\\n                        <!-- Contrase;a nueva -->\\r\\n                            <label for="contrase\\xc3\\xb1a">Contrase\\xc3\\xb1a nueva: </label>\\r\\n                            <input type="password" id="password" name="contrase\\xc3\\xb1a" placeholder="Contrase\\xc3\\xb1a nueva" required> <br>\\r\\n                        <!-- Contrase;a nueva -->\\r\\n                            <label for="contrase\\xc3\\xb1a">Confirmar contrase\\xc3\\xb1a: </label>\\r\\n                            <input type="password" id="confirm_password" name="contrase\\xc3\\xb1a" placeholder="Contrase\\xc3\\xb1a nueva" required> <br><br>\\r\\n                        <div class="save text-center"><input type="submit" class="btn btn-primary save" value="Guardar"></div>\\r\\n                        </form>\\r\\n                    </div>\\r\\n                    <!-- Contactanos -->\\r\\n                    <div id="enviarEmail" class="row">\\r\\n                        <h1>Correos Masivos </h1>\\r\\n                        <p class="textCoor marg">Seleccione a las personas que sera dirigido el correo electronico</p>\\r\\n\\r\\n                        <p class="textCoor marg "> Si presenta algun problema comunicarse con el servicio tecnico.</p>\\r\\n                        <form role="form" method="post" >\\r\\n                            <br><br>\\r\\n                            <!-- institucionn -->\\r\\n                            <div class="form-group">\\r\\n                                <label for="quien"  class="col-sm-2 control-label lineCentral">Dirigido a: </label><br>\\r\\n                                   <br><input type="checkbox" class="gender marg" name="estudiantes" value="Estudiantes" >Estudiantes<br>\\r\\n                                    <input type="checkbox" class="gender marg" name="profesores" value="Profesores" >Profesores <br>\\r\\n                                    <input type="checkbox" class="gender marg" name="coordinadorLiceo" value="CoorLiceo" >Coordinadores Liceo <br>\\r\\n                                    <input type="checkbox" class="gender marg" name="coorPio" value="coorPio" >Coordinador Pio<br>\\r\\n                            </div>\\r\\n                        <br>\\r\\n                            <!-- Asunto-->\\r\\n                            <div class="form-group">\\r\\n                                <label for="name" class="col-sm-4 control-label">Correo especifico:</label>\\r\\n                                <br><br>\\r\\n                                <div class="col-sm-10">\\r\\n                                    <input type="email" class="form-control" id="email" name="email" placeholder="Ingrese correo destino" value="" required>\\r\\n                                </div>\\r\\n                            </div>\\r\\n                            <br>\\r\\n                           <br>\\r\\n                            <!-- Asunto-->\\r\\n                            <div class="form-group">\\r\\n                                <label for="name" class="col-sm-2 control-label">Asunto</label>\\r\\n                                <br><br>\\r\\n                                <div class="col-sm-10">\\r\\n                                    <input type="text" class="form-control" id="asunto" name="asunto" placeholder="Asunto" value="" required>\\r\\n                                </div>\\r\\n                            </div>\\r\\n                           <br>\\r\\n                            <!-- mensaje -->\\r\\n                            <div class="form-group">\\r\\n                                <br><br>\\r\\n                                <label for="message" class="col-sm-2 control-label">Mensaje</label><br><br>\\r\\n                                <div class="col-sm-10">\\r\\n                                    <textarea class="form-control" rows="4" name="message" required></textarea>\\r\\n                                </div>\\r\\n                            </div>\\r\\n                            \\r\\n                            <div class="form-group">\\r\\n                                <div class="col-sm-10 col-sm-offset-2">\\r\\n                                    <br><br><div class="send">\\r\\n                                    <input id="submit" name="submit" type="submit" value="Enviar" class="btn btn-primary"></div>\\r\\n                                    <br><br>\\r\\n                                    <br>\\r\\n                                </div>\\r\\n                            </div>\\r\\n                        </form>\\r\\n                    </div>\\r\\n                    \\r\\n                </div>\\r\\n                </div><!--row-->\\r\\n              </div><!--colmd12-->\\r\\n                \\r\\n            </div><!-- row -->\\r\\n            \\r\\n            \\r\\n        </div><!-- col md 10-->\\r\\n    </div><!-- container-->\\r\\n   \\r\\n\\r\\n    <footer class="container-fluid footer">\\r\\n        <div class="row">\\r\\n            <p class="text-center minText">Universidad Simon Bolivar<br>Sartenejas, Baruta, Edo. Miranda - Apartado 89000 - Cable Unibolivar - Caracas Venezuela. Tel\\xc3\\xa9fono +58 0212-9063111.<br>\\r\\nDise\\xc3\\xb1ada y desarrollada por Software for the World</p>\\r\\n        </div>\\r\\n    </footer>\\r\\n\\r\\n    <!-- jQuery (necessary for Bootstrap\\\'s JavaScript plugins) -->\\r\\n     <script src="https://ajax.googleapis.com/ajax/libs/jquery/1.12.4/jquery.min.js"></script>\\r\\n    <!-- Include all compiled plugins (below), or include individual files as needed -->\\r\\n    <script src="\', escape=False)\nresponse.write(URL(\'static\', \'js/bootstrap.min.js\'))\nresponse.write(\'"></script>\\r\\n    <!-- JQUERY-->\\r\\n    <script>\\r\\n        /*Comparacion de contrase;as*/\\r\\n        var password = document.getElementById("password")\\r\\n          , confirm_password = document.getElementById("confirm_password");\\r\\n\\r\\n        function validatePassword(){\\r\\n          if(password.value != confirm_password.value) {\\r\\n            confirm_password.setCustomValidity("Las contrase\\xc3\\xb1as no coinciden");\\r\\n          } else {\\r\\n            confirm_password.setCustomValidity(\\\'\\\');\\r\\n          }\\r\\n        }\\r\\n\\r\\n        password.onchange = validatePassword;\\r\\n        confirm_password.onkeyup = validatePassword;\\r\\n        \\r\\n        \\r\\n        /*Cambio de seleccion en el menu izquierdo*/\\r\\n    $(".nav-stacked a").on("click", function(){\\r\\n       $(".nav").find(".active").removeClass("active");\\r\\n       $(this).parent().addClass("active");\\r\\n    });\\r\\n        \\r\\n    $(document).ready(function(){\\r\\n       \\r\\n    $(".glyphicon, #userinfo" ).click(function(){\\r\\n        $("#information, #agregar,#modificar").hide();\\r\\n        $("#enviarEmail, #cargar,#permiso").hide();\\r\\n        $("#cambioContra, #reporte").hide();\\r\\n        $("#noticias, #consultar").hide();\\r\\n        $("#miPerfil").show();\\r\\n        $(".nav").find(".active").removeClass("active");\\r\\n        $(".perfil").parent().addClass("active");\\r\\n    });\\r\\n   \\r\\n    $(".perfil").click(function(){\\r\\n        $("#information, #agregar, #cargar").hide();\\r\\n        $("#enviarEmail,#permiso").hide();\\r\\n        $("#noticias, #reporte").hide();\\r\\n        $("#cambioContra, #consultar").hide();\\r\\n        $("#miPerfil").show();\\r\\n         $(".nav").find(".active").removeClass("active");\\r\\n        $(".perfil").parent().addClass("active");\\r\\n    });\\r\\n    $("#principal").click(function(){\\r\\n        $("#information").show();\\r\\n        $("#noticias, #agregar, #cargar").hide();\\r\\n        $("#enviarEmail,#modificar").hide();\\r\\n        $("#cambioContra, #reporte,#permiso").hide();\\r\\n        $("#miPerfil, #consultar").hide();\\r\\n    });\\r\\n    $("#pass").click(function(){\\r\\n        $("#information, #agregar, #cargar").hide();\\r\\n        $("#enviarEmail,#modificar").hide();\\r\\n        $("#noticias, #reporte,#permiso").hide();\\r\\n        $("#cambioContra").show();\\r\\n        $("#miPerfil, #consultar").hide();\\r\\n    });\\r\\n     $("#comp").click(function(){\\r\\n        $("#information, #agregar, #cargar").hide();\\r\\n        $("#enviarEmail,#permiso").hide();\\r\\n        $("#noticias,#modificar").hide();\\r\\n         $("#reporte").show();\\r\\n        $("#cambioContra").hide();\\r\\n        $("#miPerfil, #consultar").hide();\\r\\n    });\\r\\n    $("#upload").click(function(){\\r\\n        $("#information, #agregar, #cargar").hide();\\r\\n        $("#enviarEmail,#permiso").hide();\\r\\n        $("#noticias,#modificar").hide();\\r\\n        $("#cambioContra, #reporte").hide();\\r\\n        $("#cargar").show();\\r\\n        $("#miPerfil, #consultar").hide();\\r\\n    });\\r\\n    $("#lookfor").click(function(){\\r\\n        $("#information, #agregar, #cargar").hide();\\r\\n        $("#enviarEmail,#modificar").hide();\\r\\n        $("#noticias,#permiso").hide();\\r\\n        $("#cambioContra").hide();\\r\\n        $("#consultar").show();\\r\\n        $("#miPerfil, #reporte").hide();\\r\\n    });\\r\\n    $("#add").click(function(){\\r\\n        $("#information, #cargar").hide();\\r\\n        $("#enviarEmail,#permiso").hide();\\r\\n        $("#noticias, #consultar").hide();\\r\\n        $("#agregar").show();\\r\\n        $("#cambioContra,#modificar").hide();\\r\\n        $("#miPerfil, #reporte").hide();\\r\\n    });\\r\\n    $("#edit").click(function(){\\r\\n        $("#information, #cargar").hide();\\r\\n        $("#enviarEmail,#permiso").hide();\\r\\n        $("#noticias, #consultar").hide();\\r\\n        $("#modificar").show();\\r\\n        $("#cambioContra,#agregar").hide();\\r\\n        $("#miPerfil, #reporte").hide();\\r\\n    });\\r\\n    $("#news").click(function(){\\r\\n        $("#information, #agregar, #cargar, #consultar,#permiso").hide();\\r\\n        $("#enviarEmail,#modificar").hide();\\r\\n        $("#noticias").show();\\r\\n        $("#cambioContra").hide();\\r\\n        $("#miPerfil, #reporte").hide();\\r\\n    });\\r\\n    $("#allow").click(function(){\\r\\n        $("#information, #agregar, #cargar, #consultar,#permiso").hide();\\r\\n        $("#enviarEmail,#modificar").hide();\\r\\n        $("#noticias").hide();\\r\\n        $("#permiso").show();\\r\\n        $("#cambioContra").hide();\\r\\n        $("#miPerfil, #reporte").hide();\\r\\n    });\\r\\n    $("#contacto, #enviar").click(function(){\\r\\n        $("#information, #agregar, #cargar").hide();\\r\\n        $("#enviarEmail").show();\\r\\n        $("#cambioContra, #consultar").hide();\\r\\n        $("#noticias, #reporte,#permiso").hide();\\r\\n        $("#miPerfil,#modificar").hide();\\r\\n        $(".nav").find(".active").removeClass("active");\\r\\n        $("#contacto").parent().addClass("active");\\r\\n    });\\r\\n});\\r\\n    </script>\\r\\n\\r\\n</body>\\r\\n</html>\\r\\n\', escape=False)'
p7
sS'snapshot'
p8
(dp9
S'exception'
p10
(dp11
S'__hash__'
p12
S"<method-wrapper '__hash__' of exceptions.AttributeError object>"
p13
sS'__setattr__'
p14
S"<method-wrapper '__setattr__' of exceptions.AttributeError object>"
p15
sS'__reduce_ex__'
p16
S'<built-in method __reduce_ex__ of exceptions.AttributeError object>'
p17
sS'__getslice__'
p18
S"<method-wrapper '__getslice__' of exceptions.AttributeError object>"
p19
sS'__getitem__'
p20
S"<method-wrapper '__getitem__' of exceptions.AttributeError object>"
p21
sS'__setstate__'
p22
S'<built-in method __setstate__ of exceptions.AttributeError object>'
p23
sS'__reduce__'
p24
S'<built-in method __reduce__ of exceptions.AttributeError object>'
p25
sS'__str__'
p26
S"<method-wrapper '__str__' of exceptions.AttributeError object>"
p27
sS'__format__'
p28
S'<built-in method __format__ of exceptions.AttributeError object>'
p29
sS'__getattribute__'
p30
S"<method-wrapper '__getattribute__' of exceptions.AttributeError object>"
p31
sS'__class__'
p32
S"<type 'exceptions.AttributeError'>"
p33
sS'__unicode__'
p34
S'<built-in method __unicode__ of exceptions.AttributeError object>'
p35
sS'__delattr__'
p36
S"<method-wrapper '__delattr__' of exceptions.AttributeError object>"
p37
sS'__subclasshook__'
p38
S'<built-in method __subclasshook__ of type object>'
p39
sS'__repr__'
p40
S"<method-wrapper '__repr__' of exceptions.AttributeError object>"
p41
sS'args'
p42
S'("\'str\' object has no attribute \'filename\'",)'
p43
sS'__dict__'
p44
S'{}'
p45
sS'__sizeof__'
p46
S'<built-in method __sizeof__ of exceptions.AttributeError object>'
p47
sS'__doc__'
p48
S"'Attribute not found.'"
p49
sS'__init__'
p50
S"<method-wrapper '__init__' of exceptions.AttributeError object>"
p51
sS'__new__'
p52
S'<built-in method __new__ of type object>'
p53
ssS'evalue'
p54
S"'str' object has no attribute 'filename'"
p55
sS'request'
p56
cgluon.html
XML_unpickle
p57
(S'sBf\x00\x00<div><table><tr><td style="font-weight:bold;vertical-align:top;">ajax</td><td style="vertical-align:top;">:</td><td><div>False</div></td></tr><tr><td style="font-weight:bold;vertical-align:top;">application</td><td style="vertical-align:top;">:</td><td><div>SisPIOrafael2</div></td></tr><tr><td style="font-weight:bold;vertical-align:top;">args</td><td style="vertical-align:top;">:</td><td><div><table></table></div></td></tr><tr><td style="font-weight:bold;vertical-align:top;">cid</td><td style="vertical-align:top;">:</td><td><div>None</div></td></tr><tr><td style="font-weight:bold;vertical-align:top;">client</td><td style="vertical-align:top;">:</td><td><div>127.0.0.1</div></td></tr><tr><td style="font-weight:bold;vertical-align:top;">controller</td><td style="vertical-align:top;">:</td><td><div>default</div></td></tr><tr><td style="font-weight:bold;vertical-align:top;">cookies</td><td style="vertical-align:top;">:</td><td><div><table><tr><td style="font-weight:bold;vertical-align:top;">session_id_admin</td><td style="vertical-align:top;">:</td><td><div>127.0.0.1-93627c6e-081f-4e59-9dd3-cb771819e599<table><tr><td style="font-weight:bold;vertical-align:top;">comment</td><td style="vertical-align:top;">:</td><td><div></div></td></tr><tr><td style="font-weight:bold;vertical-align:top;">domain</td><td style="vertical-align:top;">:</td><td><div></div></td></tr><tr><td style="font-weight:bold;vertical-align:top;">expires</td><td style="vertical-align:top;">:</td><td><div></div></td></tr><tr><td style="font-weight:bold;vertical-align:top;">httponly</td><td style="vertical-align:top;">:</td><td><div></div></td></tr><tr><td style="font-weight:bold;vertical-align:top;">max-age</td><td style="vertical-align:top;">:</td><td><div></div></td></tr><tr><td style="font-weight:bold;vertical-align:top;">path</td><td style="vertical-align:top;">:</td><td><div></div></td></tr><tr><td style="font-weight:bold;vertical-align:top;">secure</td><td style="vertical-align:top;">:</td><td><div></div></td></tr><tr><td style="font-weight:bold;vertical-align:top;">version</td><td style="vertical-align:top;">:</td><td><div></div></td></tr></table></div></td></tr><tr><td style="font-weight:bold;vertical-align:top;">session_id_sispiomaria</td><td style="vertical-align:top;">:</td><td><div>127.0.0.1-e447848a-4b3c-4a0e-8bdf-91192955b3c9<table><tr><td style="font-weight:bold;vertical-align:top;">comment</td><td style="vertical-align:top;">:</td><td><div></div></td></tr><tr><td style="font-weight:bold;vertical-align:top;">domain</td><td style="vertical-align:top;">:</td><td><div></div></td></tr><tr><td style="font-weight:bold;vertical-align:top;">expires</td><td style="vertical-align:top;">:</td><td><div></div></td></tr><tr><td style="font-weight:bold;vertical-align:top;">httponly</td><td style="vertical-align:top;">:</td><td><div></div></td></tr><tr><td style="font-weight:bold;vertical-align:top;">max-age</td><td style="vertical-align:top;">:</td><td><div></div></td></tr><tr><td style="font-weight:bold;vertical-align:top;">path</td><td style="vertical-align:top;">:</td><td><div></div></td></tr><tr><td style="font-weight:bold;vertical-align:top;">secure</td><td style="vertical-align:top;">:</td><td><div></div></td></tr><tr><td style="font-weight:bold;vertical-align:top;">version</td><td style="vertical-align:top;">:</td><td><div></div></td></tr></table></div></td></tr><tr><td style="font-weight:bold;vertical-align:top;">session_id_sispiorafael2</td><td style="vertical-align:top;">:</td><td><div>127.0.0.1-2a04b74e-f0d0-4477-949f-24a4a69c78a2<table><tr><td style="font-weight:bold;vertical-align:top;">comment</td><td style="vertical-align:top;">:</td><td><div></div></td></tr><tr><td style="font-weight:bold;vertical-align:top;">domain</td><td style="vertical-align:top;">:</td><td><div></div></td></tr><tr><td style="font-weight:bold;vertical-align:top;">expires</td><td style="vertical-align:top;">:</td><td><div></div></td></tr><tr><td style="font-weight:bold;vertical-align:top;">httponly</td><td style="vertical-align:top;">:</td><td><div></div></td></tr><tr><td style="font-weight:bold;vertical-align:top;">max-age</td><td style="vertical-align:top;">:</td><td><div></div></td></tr><tr><td style="font-weight:bold;vertical-align:top;">path</td><td style="vertical-align:top;">:</td><td><div></div></td></tr><tr><td style="font-weight:bold;vertical-align:top;">secure</td><td style="vertical-align:top;">:</td><td><div></div></td></tr><tr><td style="font-weight:bold;vertical-align:top;">version</td><td style="vertical-align:top;">:</td><td><div></div></td></tr></table></div></td></tr><tr><td style="font-weight:bold;vertical-align:top;">session_id_welcome</td><td style="vertical-align:top;">:</td><td><div>127.0.0.1-a248fea8-c187-4e3f-9ced-b19e91552838<table><tr><td style="font-weight:bold;vertical-align:top;">comment</td><td style="vertical-align:top;">:</td><td><div></div></td></tr><tr><td style="font-weight:bold;vertical-align:top;">domain</td><td style="vertical-align:top;">:</td><td><div></div></td></tr><tr><td style="font-weight:bold;vertical-align:top;">expires</td><td style="vertical-align:top;">:</td><td><div></div></td></tr><tr><td style="font-weight:bold;vertical-align:top;">httponly</td><td style="vertical-align:top;">:</td><td><div></div></td></tr><tr><td style="font-weight:bold;vertical-align:top;">max-age</td><td style="vertical-align:top;">:</td><td><div></div></td></tr><tr><td style="font-weight:bold;vertical-align:top;">path</td><td style="vertical-align:top;">:</td><td><div></div></td></tr><tr><td style="font-weight:bold;vertical-align:top;">secure</td><td style="vertical-align:top;">:</td><td><div></div></td></tr><tr><td style="font-weight:bold;vertical-align:top;">version</td><td style="vertical-align:top;">:</td><td><div></div></td></tr></table></div></td></tr></table></div></td></tr><tr><td style="font-weight:bold;vertical-align:top;">env</td><td style="vertical-align:top;">:</td><td><div><table><tr><td style="font-weight:bold;vertical-align:top;">HTTP_ACCEPT</td><td style="vertical-align:top;">:</td><td><div>text/html,application/xhtml+xml,application/xml;q=0.9,image/webp,image/apng,*/*;q=0.8</div></td></tr><tr><td style="font-weight:bold;vertical-align:top;">HTTP_ACCEPT_ENCODING</td><td style="vertical-align:top;">:</td><td><div>gzip, deflate, br</div></td></tr><tr><td style="font-weight:bold;vertical-align:top;">HTTP_ACCEPT_LANGUAGE</td><td style="vertical-align:top;">:</td><td><div>es-419,es;q=0.8</div></td></tr><tr><td style="font-weight:bold;vertical-align:top;">HTTP_CACHE_CONTROL</td><td style="vertical-align:top;">:</td><td><div>max-age=0</div></td></tr><tr><td style="font-weight:bold;vertical-align:top;">HTTP_CONNECTION</td><td style="vertical-align:top;">:</td><td><div>keep-alive</div></td></tr><tr><td style="font-weight:bold;vertical-align:top;">HTTP_COOKIE</td><td style="vertical-align:top;">:</td><td><div>session_id_welcome=127.0.0.1-a248fea8-c187-4e3f-9ced-b19e91552838; session_id_sispiomaria=127.0.0.1-e447848a-4b3c-4a0e-8bdf-91192955b3c9; session_id_sispiorafael2=127.0.0.1-2a04b74e-f0d0-4477-949f-24a4a69c78a2; session_id_admin=127.0.0.1-93627c6e-081f-4e59-9dd3-cb771819e599</div></td></tr><tr><td style="font-weight:bold;vertical-align:top;">HTTP_HOST</td><td style="vertical-align:top;">:</td><td><div>127.0.0.1:8000</div></td></tr><tr><td style="font-weight:bold;vertical-align:top;">HTTP_REFERER</td><td style="vertical-align:top;">:</td><td><div>http://127.0.0.1:8000/SisPIOrafael2/default/admin</div></td></tr><tr><td style="font-weight:bold;vertical-align:top;">HTTP_UPGRADE_INSECURE_REQUESTS</td><td style="vertical-align:top;">:</td><td><div>1</div></td></tr><tr><td style="font-weight:bold;vertical-align:top;">HTTP_USER_AGENT</td><td style="vertical-align:top;">:</td><td><div>Mozilla/5.0 (Windows NT 10.0; Win64; x64) AppleWebKit/537.36 (KHTML, like Gecko) Chrome/61.0.3163.100 Safari/537.36</div></td></tr><tr><td style="font-weight:bold;vertical-align:top;">PATH_INFO</td><td style="vertical-align:top;">:</td><td><div>/SisPIOrafael2/default/admin</div></td></tr><tr><td style="font-weight:bold;vertical-align:top;">QUERY_STRING</td><td style="vertical-align:top;">:</td><td><div>fileToUpload=ejemplo.csv</div></td></tr><tr><td style="font-weight:bold;vertical-align:top;">REMOTE_ADDR</td><td style="vertical-align:top;">:</td><td><div>127.0.0.1</div></td></tr><tr><td style="font-weight:bold;vertical-align:top;">REMOTE_PORT</td><td style="vertical-align:top;">:</td><td><div>56811</div></td></tr><tr><td style="font-weight:bold;vertical-align:top;">REQUEST_METHOD</td><td style="vertical-align:top;">:</td><td><div>GET</div></td></tr><tr><td style="font-weight:bold;vertical-align:top;">SCRIPT_NAME</td><td style="vertical-align:top;">:</td><td><div></div></td></tr><tr><td style="font-weight:bold;vertical-align:top;">SERVER_NAME</td><td style="vertical-align:top;">:</td><td><div>Rafa-PC</div></td></tr><tr><td style="font-weight:bold;vertical-align:top;">SERVER_PORT</td><td style="vertical-align:top;">:</td><td><div>8000</div></td></tr><tr><td style="font-weight:bold;vertical-align:top;">SERVER_PROTOCOL</td><td style="vertical-align:top;">:</td><td><div>HTTP/1.1</div></td></tr><tr><td style="font-weight:bold;vertical-align:top;">SERVER_SOFTWARE</td><td style="vertical-align:top;">:</td><td><div>Rocket 1.2.6</div></td></tr><tr><td style="font-weight:bold;vertical-align:top;">app_folders</td><td style="vertical-align:top;">:</td><td><div>set([&#x27;C:\\\\Users\\\\Rafael Cisneros\\\\Desktop\\\\web2py\\\\web2py\\\\applications\\\\SisPIOMaria\\\\&#x27;, &#x27;C:\\\\Users\\\\Rafael Cisneros\\\\Desktop\\\\web2py\\\\web2py\\\\applications\\\\SisPIOrafael2\\\\&#x27;, &#x27;C:\\\\Users\\\\Rafael Cisneros\\\\Desktop\\\\web2py\\\\web2py\\\\applications\\\\admin\\\\&#x27;, &#x27;C:\\\\Users\\\\Rafael Cisneros\\\\Desktop\\\\web2py\\\\web2py\\\\applications\\\\welcome\\\\&#x27;])</div></td></tr><tr><td style="font-weight:bold;vertical-align:top;">applications_parent</td><td style="vertical-align:top;">:</td><td><div>C:\\Users\\Rafael Cisneros\\Desktop\\web2py\\web2py</div></td></tr><tr><td style="font-weight:bold;vertical-align:top;">cmd_args</td><td style="vertical-align:top;">:</td><td><div><table></table></div></td></tr><tr><td style="font-weight:bold;vertical-align:top;">cmd_options</td><td style="vertical-align:top;">:</td><td><div>&lt;Values at 0x301bf08: {&#x27;verbose&#x27;: False, &#x27;ip&#x27;: &#x27;127.0.0.1&#x27;, &#x27;debuglevel&#x27;: 30, &#x27;with_scheduler&#x27;: False, &#x27;shutdown_timeout&#x27;: 5, &#x27;taskbar&#x27;: False, &#x27;with_coverage&#x27;: False, &#x27;pid_filename&#x27;: &#x27;httpserver.pid&#x27;, &#x27;maxthreads&#x27;: None, &#x27;softcron&#x27;: False, &#x27;server_name&#x27;: &#x27;Rafa-PC&#x27;, &#x27;bpython&#x27;: False, &#x27;nogui&#x27;: False, &#x27;port&#x27;: 8000, &#x27;print_errors&#x27;: False, &#x27;extcron&#x27;: False, &#x27;runcron&#x27;: False, &#x27;run_system_tests&#x27;: False, &#x27;test&#x27;: None, &#x27;folder&#x27;: &#x27;C:\\\\Users\\\\Rafael Cisneros\\\\Desktop\\\\web2py\\\\web2py&#x27;, &#x27;config&#x27;: &#x27;&#x27;, &#x27;minthreads&#x27;: None, &#x27;shell&#x27;: None, &#x27;run&#x27;: &#x27;&#x27;, &#x27;log_filename&#x27;: &#x27;httpserver.log&#x27;, &#x27;profiler_dir&#x27;: None, &#x27;args&#x27;: [&#x27;&#x27;], &#x27;socket_timeout&#x27;: 5, &#x27;ssl_ca_certificate&#x27;: None, &#x27;scheduler&#x27;: None, &#x27;interfaces&#x27;: None, &#x27;ssl_private_key&#x27;: &#x27;&#x27;, &#x27;gae&#x27;: None, &#x27;password&#x27;: &#x27;******&#x27;, &#x27;request_queue_size&#x27;: 5, &#x27;ssl_certificate&#x27;: &#x27;&#x27;, &#x27;cronjob&#x27;: False, &#x27;numthreads&#x27;: None, &#x27;quiet&#x27;: False, &#x27;import_models&#x27;: False, &#x27;timeout&#x27;: 10, &#x27;plain&#x27;: False, &#x27;nobanner&#x27;: False}&gt;</div></td></tr><tr><td style="font-weight:bold;vertical-align:top;">db_sessions</td><td style="vertical-align:top;">:</td><td><div>set([])</div></td></tr><tr><td style="font-weight:bold;vertical-align:top;">debugging</td><td style="vertical-align:top;">:</td><td><div>True</div></td></tr><tr><td style="font-weight:bold;vertical-align:top;">gluon_parent</td><td style="vertical-align:top;">:</td><td><div>C:\\Users\\Rafael Cisneros\\Desktop\\web2py\\web2py</div></td></tr><tr><td style="font-weight:bold;vertical-align:top;">http_accept</td><td style="vertical-align:top;">:</td><td><div>text/html,application/xhtml+xml,application/xml;q=0.9,image/webp,image/apng,*/*;q=0.8</div></td></tr><tr><td style="font-weight:bold;vertical-align:top;">http_accept_encoding</td><td style="vertical-align:top;">:</td><td><div>gzip, deflate, br</div></td></tr><tr><td style="font-weight:bold;vertical-align:top;">http_accept_language</td><td style="vertical-align:top;">:</td><td><div>es-419,es;q=0.8</div></td></tr><tr><td style="font-weight:bold;vertical-align:top;">http_cache_control</td><td style="vertical-align:top;">:</td><td><div>max-age=0</div></td></tr><tr><td style="font-weight:bold;vertical-align:top;">http_connection</td><td style="vertical-align:top;">:</td><td><div>keep-alive</div></td></tr><tr><td style="font-weight:bold;vertical-align:top;">http_cookie</td><td style="vertical-align:top;">:</td><td><div>session_id_welcome=127.0.0.1-a248fea8-c187-4e3f-9ced-b19e91552838; session_id_sispiomaria=127.0.0.1-e447848a-4b3c-4a0e-8bdf-91192955b3c9; session_id_sispiorafael2=127.0.0.1-2a04b74e-f0d0-4477-949f-24a4a69c78a2; session_id_admin=127.0.0.1-93627c6e-081f-4e59-9dd3-cb771819e599</div></td></tr><tr><td style="font-weight:bold;vertical-align:top;">http_host</td><td style="vertical-align:top;">:</td><td><div>127.0.0.1:8000</div></td></tr><tr><td style="font-weight:bold;vertical-align:top;">http_referer</td><td style="vertical-align:top;">:</td><td><div>http://127.0.0.1:8000/SisPIOrafael2/default/admin</div></td></tr><tr><td style="font-weight:bold;vertical-align:top;">http_upgrade_insecure_requests</td><td style="vertical-align:top;">:</td><td><div>1</div></td></tr><tr><td style="font-weight:bold;vertical-align:top;">http_user_agent</td><td style="vertical-align:top;">:</td><td><div>Mozilla/5.0 (Windows NT 10.0; Win64; x64) AppleWebKit/537.36 (KHTML, like Gecko) Chrome/61.0.3163.100 Safari/537.36</div></td></tr><tr><td style="font-weight:bold;vertical-align:top;">is_jython</td><td style="vertical-align:top;">:</td><td><div>False</div></td></tr><tr><td style="font-weight:bold;vertical-align:top;">is_pypy</td><td style="vertical-align:top;">:</td><td><div>False</div></td></tr><tr><td style="font-weight:bold;vertical-align:top;">is_source</td><td style="vertical-align:top;">:</td><td><div>False</div></td></tr><tr><td style="font-weight:bold;vertical-align:top;">local_hosts</td><td style="vertical-align:top;">:</td><td><div><table><tr><td><div>2001:0:5ef5:79fd:2c27:ffe:4138:404f</div></td></tr><tr><td><div>Rafa-PC.cantv.net</div></td></tr><tr><td><div>Rafa-PC</div></td></tr><tr><td><div>::ffff:127.0.0.1</div></td></tr><tr><td><div>::1</div></td></tr><tr><td><div>fe80::2c27:ffe:4138:404f%5</div></td></tr><tr><td><div>190.199.191.176</div></td></tr><tr><td><div>fe80::4018:b4d4:ee94:6775%15</div></td></tr><tr><td><div>127.0.0.1</div></td></tr></table></div></td></tr><tr><td style="font-weight:bold;vertical-align:top;">path_info</td><td style="vertical-align:top;">:</td><td><div>/SisPIOrafael2/default/admin</div></td></tr><tr><td style="font-weight:bold;vertical-align:top;">query_string</td><td style="vertical-align:top;">:</td><td><div>fileToUpload=ejemplo.csv</div></td></tr><tr><td style="font-weight:bold;vertical-align:top;">remote_addr</td><td style="vertical-align:top;">:</td><td><div>127.0.0.1</div></td></tr><tr><td style="font-weight:bold;vertical-align:top;">remote_port</td><td style="vertical-align:top;">:</td><td><div>56811</div></td></tr><tr><td style="font-weight:bold;vertical-align:top;">request_method</td><td style="vertical-align:top;">:</td><td><div>GET</div></td></tr><tr><td style="font-weight:bold;vertical-align:top;">request_uri</td><td style="vertical-align:top;">:</td><td><div>/SisPIOrafael2/default/admin?fileToUpload=ejemplo.csv</div></td></tr><tr><td style="font-weight:bold;vertical-align:top;">script_name</td><td style="vertical-align:top;">:</td><td><div></div></td></tr><tr><td style="font-weight:bold;vertical-align:top;">server_name</td><td style="vertical-align:top;">:</td><td><div>Rafa-PC</div></td></tr><tr><td style="font-weight:bold;vertical-align:top;">server_port</td><td style="vertical-align:top;">:</td><td><div>8000</div></td></tr><tr><td style="font-weight:bold;vertical-align:top;">server_protocol</td><td style="vertical-align:top;">:</td><td><div>HTTP/1.1</div></td></tr><tr><td style="font-weight:bold;vertical-align:top;">server_software</td><td style="vertical-align:top;">:</td><td><div>Rocket 1.2.6</div></td></tr><tr><td style="font-weight:bold;vertical-align:top;">web2py_path</td><td style="vertical-align:top;">:</td><td><div>C:\\Users\\Rafael Cisneros\\Desktop\\web2py\\web2py</div></td></tr><tr><td style="font-weight:bold;vertical-align:top;">web2py_version</td><td style="vertical-align:top;">:</td><td><div>2.14.6-stable+timestamp.2016.05.10.00.21.47</div></td></tr><tr><td style="font-weight:bold;vertical-align:top;">wsgi.errors</td><td style="vertical-align:top;">:</td><td><div>&lt;open file &#x27;&lt;stderr&gt;&#x27;, mode &#x27;w&#x27; at 0x0209D0D0&gt;</div></td></tr><tr><td style="font-weight:bold;vertical-align:top;">wsgi.file_wrapper</td><td style="vertical-align:top;">:</td><td><div>&lt;class wsgiref.util.FileWrapper at 0x02F25148&gt;</div></td></tr><tr><td style="font-weight:bold;vertical-align:top;">wsgi.input</td><td style="vertical-align:top;">:</td><td><div>&lt;socket._fileobject object at 0x03F25870&gt;</div></td></tr><tr><td style="font-weight:bold;vertical-align:top;">wsgi.multiprocess</td><td style="vertical-align:top;">:</td><td><div>False</div></td></tr><tr><td style="font-weight:bold;vertical-align:top;">wsgi.multithread</td><td style="vertical-align:top;">:</td><td><div>True</div></td></tr><tr><td style="font-weight:bold;vertical-align:top;">wsgi.run_once</td><td style="vertical-align:top;">:</td><td><div>False</div></td></tr><tr><td style="font-weight:bold;vertical-align:top;">wsgi.url_scheme</td><td style="vertical-align:top;">:</td><td><div>http</div></td></tr><tr><td style="font-weight:bold;vertical-align:top;">wsgi.version</td><td style="vertical-align:top;">:</td><td><div><table><tr><td><div>1</div></td></tr><tr><td><div>0</div></td></tr></table></div></td></tr><tr><td style="font-weight:bold;vertical-align:top;">wsgi_errors</td><td style="vertical-align:top;">:</td><td><div>&lt;open file &#x27;&lt;stderr&gt;&#x27;, mode &#x27;w&#x27; at 0x0209D0D0&gt;</div></td></tr><tr><td style="font-weight:bold;vertical-align:top;">wsgi_file_wrapper</td><td style="vertical-align:top;">:</td><td><div>&lt;class wsgiref.util.FileWrapper at 0x02F25148&gt;</div></td></tr><tr><td style="font-weight:bold;vertical-align:top;">wsgi_input</td><td style="vertical-align:top;">:</td><td><div>&lt;socket._fileobject object at 0x03F25870&gt;</div></td></tr><tr><td style="font-weight:bold;vertical-align:top;">wsgi_multiprocess</td><td style="vertical-align:top;">:</td><td><div>False</div></td></tr><tr><td style="font-weight:bold;vertical-align:top;">wsgi_multithread</td><td style="vertical-align:top;">:</td><td><div>True</div></td></tr><tr><td style="font-weight:bold;vertical-align:top;">wsgi_run_once</td><td style="vertical-align:top;">:</td><td><div>False</div></td></tr><tr><td style="font-weight:bold;vertical-align:top;">wsgi_url_scheme</td><td style="vertical-align:top;">:</td><td><div>http</div></td></tr><tr><td style="font-weight:bold;vertical-align:top;">wsgi_version</td><td style="vertical-align:top;">:</td><td><div><table><tr><td><div>1</div></td></tr><tr><td><div>0</div></td></tr></table></div></td></tr></table></div></td></tr><tr><td style="font-weight:bold;vertical-align:top;">extension</td><td style="vertical-align:top;">:</td><td><div>html</div></td></tr><tr><td style="font-weight:bold;vertical-align:top;">folder</td><td style="vertical-align:top;">:</td><td><div>C:\\Users\\Rafael Cisneros\\Desktop\\web2py\\web2py\\applications\\SisPIOrafael2\\</div></td></tr><tr><td style="font-weight:bold;vertical-align:top;">function</td><td style="vertical-align:top;">:</td><td><div>admin</div></td></tr><tr><td style="font-weight:bold;vertical-align:top;">global_settings</td><td style="vertical-align:top;">:</td><td><div><table><tr><td style="font-weight:bold;vertical-align:top;">app_folders</td><td style="vertical-align:top;">:</td><td><div>set([&#x27;C:\\\\Users\\\\Rafael Cisneros\\\\Desktop\\\\web2py\\\\web2py\\\\applications\\\\SisPIOMaria\\\\&#x27;, &#x27;C:\\\\Users\\\\Rafael Cisneros\\\\Desktop\\\\web2py\\\\web2py\\\\applications\\\\SisPIOrafael2\\\\&#x27;, &#x27;C:\\\\Users\\\\Rafael Cisneros\\\\Desktop\\\\web2py\\\\web2py\\\\applications\\\\admin\\\\&#x27;, &#x27;C:\\\\Users\\\\Rafael Cisneros\\\\Desktop\\\\web2py\\\\web2py\\\\applications\\\\welcome\\\\&#x27;])</div></td></tr><tr><td style="font-weight:bold;vertical-align:top;">applications_parent</td><td style="vertical-align:top;">:</td><td><div>C:\\Users\\Rafael Cisneros\\Desktop\\web2py\\web2py</div></td></tr><tr><td style="font-weight:bold;vertical-align:top;">cmd_args</td><td style="vertical-align:top;">:</td><td><div><table></table></div></td></tr><tr><td style="font-weight:bold;vertical-align:top;">cmd_options</td><td style="vertical-align:top;">:</td><td><div>&lt;Values at 0x301bf08: {&#x27;verbose&#x27;: False, &#x27;ip&#x27;: &#x27;127.0.0.1&#x27;, &#x27;debuglevel&#x27;: 30, &#x27;with_scheduler&#x27;: False, &#x27;shutdown_timeout&#x27;: 5, &#x27;taskbar&#x27;: False, &#x27;with_coverage&#x27;: False, &#x27;pid_filename&#x27;: &#x27;httpserver.pid&#x27;, &#x27;maxthreads&#x27;: None, &#x27;softcron&#x27;: False, &#x27;server_name&#x27;: &#x27;Rafa-PC&#x27;, &#x27;bpython&#x27;: False, &#x27;nogui&#x27;: False, &#x27;port&#x27;: 8000, &#x27;print_errors&#x27;: False, &#x27;extcron&#x27;: False, &#x27;runcron&#x27;: False, &#x27;run_system_tests&#x27;: False, &#x27;test&#x27;: None, &#x27;folder&#x27;: &#x27;C:\\\\Users\\\\Rafael Cisneros\\\\Desktop\\\\web2py\\\\web2py&#x27;, &#x27;config&#x27;: &#x27;&#x27;, &#x27;minthreads&#x27;: None, &#x27;shell&#x27;: None, &#x27;run&#x27;: &#x27;&#x27;, &#x27;log_filename&#x27;: &#x27;httpserver.log&#x27;, &#x27;profiler_dir&#x27;: None, &#x27;args&#x27;: [&#x27;&#x27;], &#x27;socket_timeout&#x27;: 5, &#x27;ssl_ca_certificate&#x27;: None, &#x27;scheduler&#x27;: None, &#x27;interfaces&#x27;: None, &#x27;ssl_private_key&#x27;: &#x27;&#x27;, &#x27;gae&#x27;: None, &#x27;password&#x27;: &#x27;******&#x27;, &#x27;request_queue_size&#x27;: 5, &#x27;ssl_certificate&#x27;: &#x27;&#x27;, &#x27;cronjob&#x27;: False, &#x27;numthreads&#x27;: None, &#x27;quiet&#x27;: False, &#x27;import_models&#x27;: False, &#x27;timeout&#x27;: 10, &#x27;plain&#x27;: False, &#x27;nobanner&#x27;: False}&gt;</div></td></tr><tr><td style="font-weight:bold;vertical-align:top;">db_sessions</td><td style="vertical-align:top;">:</td><td><div>set([])</div></td></tr><tr><td style="font-weight:bold;vertical-align:top;">debugging</td><td style="vertical-align:top;">:</td><td><div>True</div></td></tr><tr><td style="font-weight:bold;vertical-align:top;">gluon_parent</td><td style="vertical-align:top;">:</td><td><div>C:\\Users\\Rafael Cisneros\\Desktop\\web2py\\web2py</div></td></tr><tr><td style="font-weight:bold;vertical-align:top;">is_jython</td><td style="vertical-align:top;">:</td><td><div>False</div></td></tr><tr><td style="font-weight:bold;vertical-align:top;">is_pypy</td><td style="vertical-align:top;">:</td><td><div>False</div></td></tr><tr><td style="font-weight:bold;vertical-align:top;">is_source</td><td style="vertical-align:top;">:</td><td><div>False</div></td></tr><tr><td style="font-weight:bold;vertical-align:top;">local_hosts</td><td style="vertical-align:top;">:</td><td><div><table><tr><td><div>2001:0:5ef5:79fd:2c27:ffe:4138:404f</div></td></tr><tr><td><div>Rafa-PC.cantv.net</div></td></tr><tr><td><div>Rafa-PC</div></td></tr><tr><td><div>::ffff:127.0.0.1</div></td></tr><tr><td><div>::1</div></td></tr><tr><td><div>fe80::2c27:ffe:4138:404f%5</div></td></tr><tr><td><div>190.199.191.176</div></td></tr><tr><td><div>fe80::4018:b4d4:ee94:6775%15</div></td></tr><tr><td><div>127.0.0.1</div></td></tr></table></div></td></tr><tr><td style="font-weight:bold;vertical-align:top;">web2py_version</td><td style="vertical-align:top;">:</td><td><div>2.14.6-stable+timestamp.2016.05.10.00.21.47</div></td></tr></table></div></td></tr><tr><td style="font-weight:bold;vertical-align:top;">is_https</td><td style="vertical-align:top;">:</td><td><div>False</div></td></tr><tr><td style="font-weight:bold;vertical-align:top;">is_local</td><td style="vertical-align:top;">:</td><td><div>True</div></td></tr><tr><td style="font-weight:bold;vertical-align:top;">is_restful</td><td style="vertical-align:top;">:</td><td><div>False</div></td></tr><tr><td style="font-weight:bold;vertical-align:top;">is_scheduler</td><td style="vertical-align:top;">:</td><td><div>False</div></td></tr><tr><td style="font-weight:bold;vertical-align:top;">is_shell</td><td style="vertical-align:top;">:</td><td><div>False</div></td></tr><tr><td style="font-weight:bold;vertical-align:top;">now</td><td style="vertical-align:top;">:</td><td><div>datetime.datetime(2017, 10, 21, 15, 18, 28, 251000)</div></td></tr><tr><td style="font-weight:bold;vertical-align:top;">raw_args</td><td style="vertical-align:top;">:</td><td><div></div></td></tr><tr><td style="font-weight:bold;vertical-align:top;">raw_extension</td><td style="vertical-align:top;">:</td><td><div>None</div></td></tr><tr><td style="font-weight:bold;vertical-align:top;">url</td><td style="vertical-align:top;">:</td><td><div>/SisPIOrafael2/default/admin</div></td></tr><tr><td style="font-weight:bold;vertical-align:top;">utcnow</td><td style="vertical-align:top;">:</td><td><div>datetime.datetime(2017, 10, 21, 19, 18, 28, 251000)</div></td></tr><tr><td style="font-weight:bold;vertical-align:top;">wsgi</td><td style="vertical-align:top;">:</td><td><div>&lt;gluon.main.LazyWSGI object at 0x03DE6E90&gt;</div></td></tr></table></div>'
tRp58
sS'frames'
p59
(lp60
(dp61
S'file'
p62
S'C:\\Users\\Rafael Cisneros\\Desktop\\web2py\\web2py\\gluon\\restricted.py'
p63
sS'dump'
p64
(dp65
S'environment'
p66
S"{'A': <class 'gluon.html.A'>, 'ANY_OF': <class 'gluon.validators.ANY_OF'>, 'ASSIGNJS': <function ASSIGNJS>, 'AppConfig': <function AppConfig>, 'Auth': <class 'gluon.tools.Auth'>, 'B': <class 'gluon.html.B'>, 'BEAUTIFY': <class 'gluon.html.BEAUTIFY'>, 'BODY': <class 'gluon.html.BODY'>, 'BR': <class 'gluon.html.BR'>, 'BUTTON': <class 'gluon.html.BUTTON'>, ...}"
p67
sS'ccode'
p68
S'<code object <module> at 041DF770, file "C:\\User...\\SisPIOrafael2\\views\\default/admin.html", line 1>'
p69
ssS'lnum'
p70
I227
sS'lines'
p71
(dp72
I224
S'            ccode = code'
p73
sI225
S'        else:'
p74
sI226
S'            ccode = compile2(code, layer)'
p75
sI227
S'        exec ccode in environment'
p76
sI228
S'    except HTTP:'
p77
sI229
S'        raise'
p78
sI230
S'    except RestrictedError:'
p79
sI231
S'        # do not encapsulate (obfuscate) the original RestrictedError'
p80
sI222
S'    try:'
p81
sI223
S'        if isinstance(code, types.CodeType):'
p82
ssS'call'
p83
S'(code=\'response.write(\\\'<!DOCTYPE html>\\\\r\\\\n<html lang="e...pt>\\\\r\\\\n\\\\r\\\\n</body>\\\\r\\\\n</html>\\\\r\\\\n\\\', escape=False)\', environment={\'A\': <class \'gluon.html.A\'>, \'ANY_OF\': <class \'gluon.validators.ANY_OF\'>, \'ASSIGNJS\': <function ASSIGNJS>, \'AppConfig\': <function AppConfig>, \'Auth\': <class \'gluon.tools.Auth\'>, \'B\': <class \'gluon.html.B\'>, \'BEAUTIFY\': <class \'gluon.html.BEAUTIFY\'>, \'BODY\': <class \'gluon.html.BODY\'>, \'BR\': <class \'gluon.html.BR\'>, \'BUTTON\': <class \'gluon.html.BUTTON\'>, ...}, layer=r\'C:\\Users\\Rafael Cisneros\\Desktop\\web2py\\web2py\\applications\\SisPIOrafael2\\views\\default/admin.html\')'
p84
sS'func'
p85
S'restricted'
p86
sa(dp87
g62
S'C:\\Users\\Rafael Cisneros\\Desktop\\web2py\\web2py\\applications\\SisPIOrafael2\\views\\default\\admin.html'
p88
sg64
(dp89
S'head'
p90
S'undefined'
p91
ssg70
I22
sg71
(dp92
I13
S'response.write(\'"><span class="glyphicon glyphicon-log-out"></span> Salir </a></li>\\r\\n                              </ul>\\r\\n                          </li>\\r\\n                        </ul>\\r\\n                    </div><!-- /.navbar-collapse -->\\r\\n                  </div><!-- /.container-fluid -->\\r\\n                </nav>\\r\\n            </div><!--col12-->\\r\\n        </div><!--row-->\\r\\n            \\r\\n    </div><!--container-->\\r\\n\\r\\n<body>\\r\\n    <div  class="container">\\r\\n         <!-- Information-->\\r\\n        <div id="inicio" class="row">\\r\\n            <div class="col-md-12">  \\r\\n              <div class="row">\\r\\n                <div class="col-md-3">\\r\\n                    <!--Aspirantes-->\\r\\n                    <h3> Aspirantes </h3>\\r\\n                    <div class="row">\\r\\n                    <ul class="nav nav-pills nav-stacked">\\r\\n                    <li role="presentation"><a id="add">Agregar Manualmente </a></li>\\r\\n                     <li role="presentation" ><a id="upload" href="#">Cargar archivo</a></li>\\r\\n                      <li role="presentation"><a id="lookfor" href="#">Consultar</a></li>\\r\\n                     <li role="presentation"><a id="edit" href="#">Modificar</a></li>\\r\\n                      <li role="presentation"><a id="comp" href="#">Generar comprobante</a></li>\\r\\n                    </ul>\\r\\n                    </div>\\r\\n                     <!--OTROS-->   \\r\\n                    <h3> Otros </h3>\\r\\n                    <div class="row">\\r\\n                    <ul class="nav nav-pills nav-stacked">\\r\\n                      <li role="presentation" class="active"><a id="principal" href="#">Inicio</a></li>\\r\\n                     <li role="presentation" ><a id="news" href="#">Noticias</a></li>\\r\\n                      <li role="presentation"><a class="perfil" href="#">Mi Perfil</a></li>\\r\\n                     <li role="presentation"><a id="allow" href="#">Permisos</a></li>\\r\\n                      <li role="presentation"><a id="contacto" href="#">Correo Masivo</a></li>\\r\\n                      <li role="presentation"><a id="pass" href="#">Cambiar contrase\\xc3\\xb1a</a></li>\\r\\n                      <li role="presentation"><a id="logOut" href="\', escape=False)'
p93
sI14
S"response.write(URL('default', 'user', args='logout'))"
p94
sI15
S'response.write(\'">Salir</a></li>\\r\\n                    </ul>\\r\\n                        <br>\\r\\n                  </div>\\r\\n                </div>\\r\\n                <div class="col-md-9">\\r\\n                    <!-- INICIO -->\\r\\n                    <div id="information">\\r\\n                         <h1> Bienvenido al PIO </h1>\\r\\n                        <br><br>\\r\\n                        <p><strong>Coordinadores,</strong></p><br>\\r\\n                        <p class="textCoor">\\r\\n                            Bienvenido al Sistema PIO, para continuar en el proceso de carga de estudiantes es obligatorio llenar el siguiente formulario: <a class="perfil"><strong>Validar mis datos </strong></a></p>\\r\\n                        <p class="textCoor"> \\r\\n                            Recuerde imprimir su comprobante de carga de estudiantes con la opcion generar comprobante, luego de ingresar a sus alumnos al sistema.</p>\\r\\n                        <div>\\r\\n                            <h1 class="datos1">\', escape=False)'
p95
sI16
S'response.write(formAdministrador[0][0][1][0])'
p96
sI17
S'response.write(\'  </h1>\\r\\n                            <h1 class="datos1"><a id="Editar" href="#"><span class="glyphicon glyphicon-edit green-icn"></span></a></h1>\\r\\n                            <p class="datos">\\r\\n                                <b>Nombre completo: </b> Maigualida Margarita De la Santisima Trinidad Perez Bustamante\\r\\n                                <br>\\r\\n                                <b>Cedula de identidad: </b> 1234567<br>\\r\\n                                <b>Correo electronico: </b> fulanito@uncorreo.com <br>\\r\\n                                <b>Telefono:</b>  (0123) 25689632\\r\\n                                <br>\\r\\n                            </p>\\r\\n                        </div>\\r\\n                    </div>\\r\\n                    <!-- Noticias -->\\r\\n                    <div id="noticias">\\r\\n                        <h1>Noticias</h1>\\r\\n                        <p class="textCoor">No hay noticias recientes</p>\\r\\n                    \\r\\n                    </div>\\r\\n                    <!--Agregar Manual-->\\r\\n                    <div id="agregar">\\r\\n                        <h1>Agregar usuarios al Sistema PIO</h1><br>\\r\\n                        <form method="get" >\\r\\n                        <fieldset>\\r\\n                            <legend>Tipo de usuario</legend>\\r\\n                            <div class="form-group">\\r\\n                                <label for="quien"  class="col-sm-8 control-label lineCentral">Seleccione el tipo de usuario a ingresar: </label><br>\\r\\n                                   <br><input type="checkbox" class="" name="estudiantes" value="Estudiantes" >Estudiante<br>\\r\\n                                    <input type="checkbox" class="" name="profesores" value="Profesores" >Profesor <br>\\r\\n                                    <input type="checkbox" class="" name="coordinadorLiceo" value="CoorLiceo" >Coordinador Liceo <br>\\r\\n                                    <input type="checkbox" class="" name="coorPio" value="coorPio" >Coordinador Pio<br>\\r\\n                            </div>\\r\\n                        </fieldset>\\r\\n                        <fieldset>\\r\\n                            <legend>Datos personales</legend>\\r\\n                        <!-- Person ID -->\\r\\n                            <label for="cedula">Cedula de identidad: </label>\\r\\n                            <input type="text" id="cedula" name="ID" placeholder="Cedula de identidad" required> <br>\\r\\n                        <!-- Person name -->\\r\\n                            <label for="name">Nombres: </label>\\r\\n                            <input type="text" id="nombre" name="Nombre" placeholder="Primer y segundo nombre" required > <br>\\r\\n                        <!-- Person last name -->\\r\\n                            <label for="apellido">Apellidos: </label>\\r\\n                            <input type="text" id="apellido" name="Apellido" placeholder="Primer y segundo apellido"> <br>\\r\\n                        \\r\\n                        <!-- Person average-->\\r\\n                            <label for="promedioEntero">Promedio:</label>\\r\\n                            <input type="number" min="0" max="2" step="1" value="0" id="promedioEntero" class="text-right" name="PromedioEntero">\\r\\n                            <strong> .</strong>\\r\\n                            <input type="number" min="0" max="2" step="1" value="0" id="promedioDecimal" class="text-right" name="PromedioDecimal" required>\\r\\n                            <br>\\r\\n                        <!-- Person country -->\\r\\n                            <label for="country" >Liceo de procedencia: </label>\\r\\n                            <select class="select-style" name="cities" >\\r\\n                                <option value="ccs" disable >Seleccione uno</option>\\r\\n                                <option value="ccs">Programa de Cadena 2017</option>\\r\\n                            </select>\\r\\n                            <br>\\r\\n                        <!--Person email -->\\r\\n                            <label for="email">Email: </label>\\r\\n                            <input type="email" id="email" name="Email" placeholder="Correo electronico"><br>\\r\\n                        <!-- Person mobile -->\\r\\n                            <label for="mobile">Telefono principal: </label>\\r\\n                            <input type="tel" id="mobile" name="Mobile" placeholder="Telefono principal" max="11">\\r\\n                            <br>\\r\\n                        <!-- Person address-->\\r\\n                            <label class="dir" for="direccion">Direccion:</label>\\r\\n                            <div class="textarea1"><textarea id="direccion" > </textarea> </div>\\r\\n                            <br>\\r\\n                        </fieldset> <br>\\r\\n                        \\r\\n                        <div class="save text-center"><input type="submit" class="btn btn-primary save" value="Agregar"></div>\\r\\n                      </form>\\r\\n                    \\r\\n                    </div>\\r\\n                     <!--CARGAR ARCHIVO-->\\r\\n                    <div id="cargar">\\r\\n                         <div class="row">\\r\\n                            <div class="container">\\r\\n                                  <h2>Cargar archivo</h2>\\r\\n                                  <p>Seleccione el tipo de usuario a cargar:</p>\\r\\n                                  <form>\\r\\n                                    <div class="radio">\\r\\n                                      <label><input type="radio" name="optradio">Estudiante</label>\\r\\n                                    </div>\\r\\n                                    <div class="radio">\\r\\n                                      <label><input type="radio" name="optradio">Profesor</label>\\r\\n                                    </div>\\r\\n                                    <div class="radio">\\r\\n                                      <label><input type="radio" name="optradio">Coordinador liceo</label>\\r\\n                                    </div>\\r\\n                                    <div class="radio">\\r\\n                                      <label><input type="radio" name="optradio">Coordinador sede</label>\\r\\n                                    </div>\\r\\n                                  </form>\\r\\n                                </div>\\r\\n                                 <div class="container">\\r\\n                                    <!--<form method="get" enctype="multipart/form-data">-->\\r\\n                                    <form action="" enctype="multipart/form-data" method="post">\\r\\n                                            <fieldset>\\r\\n                                                <legend>Seleccionar archivo</legend>\\r\\n                                                <div class="form-group">\\r\\n                                                    <br>\\r\\n                                                    <p class="textCoor">Por favor selecione su archivo a cargar y presione enviar</p><br>\\r\\n                                                    <label for="file">Archivo: </label> \\r\\n                            \\t\\t\\t\\t        <input type="file" id="file" name="fileToUpload" require><br><br>\\r\\n                                                     <div class="save text-center"><input type="submit" class="btn btn-primary save" value="Enviar"></div>\\r\\n                                                </div>\\r\\n                                        </fieldset>\\r\\n                                    </form>\\r\\n                                </div>\\r\\n                             \', escape=False)'
p97
sI18
S'if request.get_vars:'
p98
sI19
S"    response.write('\\r\\n                             ', escape=False)"
p99
sI20
S"    response.write(request.vars['fileToUpload'])"
p100
sI21
S"    response.write('\\r\\n                             ', escape=False)"
p101
sI22
S'    response.write(request.vars.fileToUpload.filename)'
p102
sI23
S"    response.write('\\r\\n                             ', escape=False)"
p103
sI24
S'    pass'
p104
sI25
S'response.write(\'\\r\\n                        </div>\\r\\n                    </div>\\r\\n                    <!-- MI PERFIL -->\\r\\n                    <div id="miPerfil" class="row">\\r\\n                     <form method="get" >\\r\\n                        \\r\\n                        <fieldset>\\r\\n                            <legend>Datos personales</legend>\\r\\n                        <!-- Person ID -->\\r\\n                            <label for="cedula">Cedula de identidad: </label>\\r\\n                            <input type="text" id="cedula" name="ID" placeholder="Cedula de identidad" readonly="readonly"> <br>\\r\\n                        <!-- Person name -->\\r\\n                            <label for="name">Nombres: </label>\\r\\n                            <input type="text" id="nombre" name="Nombre" placeholder="Primer y segundo nombre" required readonly="readonly"> <br>\\r\\n                        <!-- Person last name -->\\r\\n                            <label for="apellido">Apellidos: </label>\\r\\n                            <input type="text" id="apellido" name="Apellido" placeholder="Primer y segundo apellido" readonly="readonly"> <br>\\r\\n                        \\r\\n                        <!-- Person gender -->\\r\\n                            <label for="gender">Genero: </label>\\r\\n                            <input type="radio" class="gender" name="gender" value="female">Femenino \\r\\n                            <input type="radio" class="gender" name="gender" value="male" checked>Masculino <br>\\r\\n                        <!-- Person age-->\\r\\n                            <label for="age">Edad:</label>\\r\\n                            <input type="number" min="0" max="150" step="1" value="18" id="age" name="age" required><br>\\r\\n                        <!-- Person Birth-->\\r\\n                            <label for="birthday">Fecha de nacimiento:</label>\\r\\n                            <input type="date" id="birthday" name="birthday" required><br>\\r\\n                        <!-- Person average-->\\r\\n                            <label for="promedioEntero">Promedio:</label>\\r\\n                            <input type="number" min="0" max="20" step="1" value="0" id="promedioEntero" class="text-right" name="PromedioEntero" readonly="readonly">\\r\\n                            <strong> .</strong>\\r\\n                            <input type="number" min="0" max="20" step="1" value="0" id="promedioDecimal" class="text-right" name="PromedioDecimal" readonly="readonly">\\r\\n                            \\r\\n                            <br>\\r\\n                        <!-- Person country -->\\r\\n                            <label for="country" >Liceo de procedencia: </label>\\r\\n                            <select class="select-style" name="cities" >\\r\\n                                <option value="ccs" disable >Seleccione uno</option>\\r\\n                                <option value="ccs">Programa de Cadena 2017</option>\\r\\n                            </select>\\r\\n                        </fieldset> <br>\\r\\n                        <fieldset>\\r\\n                            <legend>Informacion de contacto</legend>\\r\\n                        <!--Person email -->\\r\\n                            <label for="email">Email: </label>\\r\\n                            <input type="email" id="email" name="Email" placeholder="Correo electronico" required><br>\\r\\n                        <!-- Person mobile -->\\r\\n                            <label for="mobile">Telefono principal: </label>\\r\\n                            <input type="tel" id="mobile" name="Mobile" placeholder="Telefono principal" require max="11">\\r\\n                            <br>\\r\\n                        <!-- Person mobile -->\\r\\n                            <label for="secundario">Telefono secundario: </label>\\r\\n                            <input type="tel" id="secundario" name="Mobile2" placeholder="Telefono secundario" require max="11">\\r\\n                            <br>\\r\\n                        <!-- Person address-->\\r\\n                            <label class="dir" for="direccion">Direccion:</label>\\r\\n                            <div class="textarea1"><textarea id="direccion" > </textarea> </div>\\r\\n                            <br>\\r\\n                        </fieldset> <br>\\r\\n                        \\r\\n                        <div class="save text-center"><input type="submit" class="btn btn-primary save" value="Guardar"></div>\\r\\n                      </form>\\r\\n                     </div>\\r\\n                    <!-- CONSULTA -->\\r\\n                    <div id="consultar" class="row">\\r\\n                      <form method="get" >\\r\\n                        <h1>Consultas </h1><br>\\r\\n                        <p class="textCoor">Busqueda de todos los alumnos:</p>\\r\\n                            <div class="form-group">\\r\\n                                   <input type="checkbox" class="gender marg" name="todos" value="todos" checked>Todos<br>\\r\\n                            </div>\\r\\n                           <div class="buscar"><button type="button" class="btn btn-primary save"  value="Consultar" data-toggle="modal" data-target="#ConsultarModal">\\r\\n                              Consultar\\r\\n                            </button></div>\\r\\n                         <!-- institucionn -->\\r\\n                            <p class="textCoor">Busqueda por:</p><br>\\r\\n                            <div class="form-group">\\r\\n                            <label for="institucion"  class="col-sm-2 control-label lineCentral">Institucion: </label>\\r\\n                                <select class="selectStyle" name="institucion" required >\\r\\n                                    <option value="" inactive >Seleccione una institucion</option>\\r\\n                                    <option value="">Institucion</option>\\r\\n                                </select>\\r\\n                            </div>\\r\\n                        <br>\\r\\n                             <!-- Por profesor -->\\r\\n                            \\r\\n                            <div class="form-group">\\r\\n                            <label for="profesor"  class="col-sm-2 control-label lineCentral">Profesor: </label>\\r\\n                                <select class="selectStyle" name="profesor" required >\\r\\n                                    <option value="" inactive >Seleccione un profesor</option>\\r\\n                                    <option value="">Institucion</option>\\r\\n                                </select>\\r\\n                            </div>\\r\\n                        <br>\\r\\n                             <!-- Por cohorte -->\\r\\n                                \\r\\n                                <div class="form-group">\\r\\n                                <label for="profesor"  class="col-sm-2 control-label lineCentral">Cohorte: </label>\\r\\n                                    <select class="selectStyle" name="profesor" required >\\r\\n                                        <option value="" inactive >Seleccione una cohorte</option>\\r\\n                                        <option value="">Institucion</option>\\r\\n                                    </select>\\r\\n                                </div>\\r\\n                            <br>\\r\\n                               \\r\\n                             <!--Edad-->\\r\\n                                    <div class="form-group">\\r\\n                                    <label for="profesor"  class="col-sm-2 control-label lineCentral">Edad: </label>\\r\\n                                        <select class="selectStyle" name="profesor" required >\\r\\n                                            <option value="" inactive >Seleccione una edad</option>\\r\\n                                            <option value="">Institucion</option>\\r\\n                                        </select>\\r\\n                                    </div>\\r\\n                                <br>\\r\\n                        <!--Genero--> \\r\\n                                \\r\\n                                <div class="form-group">\\r\\n                                <label for="profesor"  class="col-sm-2 control-label lineCentral">Genero: </label>\\r\\n                                   <input type="checkbox" class="gender marg" name="gender" value="female" >Femenino<br>\\r\\n\\t\\t\\t\\t                    <input type="checkbox" class="gender marg" name="gender" value="male" >Masculino <br>\\r\\n                                </div>\\r\\n                            <br>\\r\\n                        <!--NOtas-->\\r\\n                            \\r\\n                                <div class="form-group">\\r\\n                                    <strong>Nota menor que:</strong>\\r\\n                                    <input type="number" min="0" max="20" step="1" value="0" id="promedioEntero" class="text-right" name="PromedioEntero">\\r\\n                                    <strong>  Nota mayor que: </strong>\\r\\n                                    <input type="number" min="0" max="20" step="1" value="0" id="promedioDecimal" class="text-right" name="PromedioDecimal"><br>\\r\\n                                </div>\\r\\n                            <br>\\r\\n                         <!--Fecha-->\\r\\n                           \\r\\n                                <div class="form-group">\\r\\n                                    <strong>Fecha entre:</strong>\\r\\n                                    <input type="date" id="fecha1" name="fecha" required>\\r\\n                                    <strong> y : </strong>\\r\\n                                    <input type="date" id="fecha2" name="fecha" required><br><br>\\r\\n                                </div>\\r\\n                            <br>\\r\\n                           <!-- Button trigger modal -->\\r\\n                            <div class="save text-center"><button type="button" class="btn btn-primary save"  value="Consultar" data-toggle="modal" data-target="#ConsultarModal">\\r\\n                              Consultar\\r\\n                            </button></div>\\r\\n                        </form>\\r\\n                        <!-- Modal -->\\r\\n                            <div class="modal fade" id="ConsultarModal" tabindex="-1" role="dialog" aria-labelledby="modalConsult">\\r\\n                              <div class="modal-dialog modal-lg" role="document">\\r\\n                                <div class="modal-content">\\r\\n                                  <div class="modal-header">\\r\\n                                    <button type="button" class="close" data-dismiss="modal" aria-label="Close"><span aria-hidden="true">&times;</span></button>\\r\\n                                    <h4 class="modal-title" id="modalConsult">Consulta</h4>\\r\\n                                  </div>\\r\\n                                  <div class="modal-body">                                                                                  \\r\\n                                          <div class="table-responsive">          \\r\\n                                          <table class="table">\\r\\n                                            <thead>\\r\\n                                              <tr>\\r\\n                                                <th>CD</th>\\r\\n                                                <th>Nombre</th>\\r\\n                                                <th>Apellido</th>\\r\\n                                                <th>Correo</th>\\r\\n                                                <th>Status</th>\\r\\n                                                <th>Promedio</th>\\r\\n                                              </tr>\\r\\n                                            </thead>\\r\\n                                            <tbody>\\r\\n                                              <tr>\\r\\n                                                <td>260733</td>\\r\\n                                                <td>Anna</td>\\r\\n                                                <td>Pitt</td>\\r\\n                                                <td>fulanito@gmail.com</td>\\r\\n                                                <td>ACTIVA</td>\\r\\n                                                <td>20.0</td>\\r\\n                                              </tr>\\r\\n                                            </tbody>\\r\\n                                          </table>\\r\\n                                          </div>\\r\\n                                  </div>\\r\\n                                  <div class="modal-footer">\\r\\n                                    <button type="button" class="btn btn-default" data-dismiss="modal">Close</button>\\r\\n                                    <button type="button" class="btn btn-primary">Imprimir</button>\\r\\n                                  </div>\\r\\n                                </div>\\r\\n                              </div>\\r\\n                            </div>\\r\\n                    </div>\\r\\n                    <!--MODIFICAR-->\\r\\n                    <div id="modificar">\\r\\n                        <h1>Modificar datos del estudiante</h1>\\r\\n                    </div>\\r\\n                    <!--REPORTE-->\\r\\n                    <div id="reporte">\\r\\n                        <h1>Generar comprobrante</h1>\\r\\n                    </div>\\r\\n                    <!--PERMISOS-->\\r\\n                    <div id="permiso">\\r\\n                        <h1>Permisos</h1><br>\\r\\n                        <p class="textCoor">Ingrese la cedula de indentidad de la persona que le otorga permiso de ADMINISTRADOR</p>\\r\\n                        <br>\\r\\n                         <!-- Person ID -->\\r\\n                            <label for="cedula">Cedula de identidad: </label>\\r\\n                            <input type="text" id="id" name="ID" placeholder="Cedula de identidad"> <br><br>\\r\\n                        <div class="save text-center"><input type="submit" class="btn btn-primary save" value="Permitir"></div>\\r\\n                    </div>\\r\\n                    <!-- CONTRASENA -->\\r\\n                    <div id="cambioContra" class="row">\\r\\n                        <h1>Cambiar contrase\\xc3\\xb1a</h1><br><br>\\r\\n                    <form method="get">\\r\\n                       <!-- Contrase;a actual -->\\r\\n                            <label for="contrase\\xc3\\xb1a">Contrase\\xc3\\xb1a actual: </label>\\r\\n                            <input type="password" id="contrasena" name="contrase\\xc3\\xb1a" placeholder="Contrase\\xc3\\xb1a actual" required> <br>\\r\\n                        <!-- Contrase;a nueva -->\\r\\n                            <label for="contrase\\xc3\\xb1a">Contrase\\xc3\\xb1a nueva: </label>\\r\\n                            <input type="password" id="password" name="contrase\\xc3\\xb1a" placeholder="Contrase\\xc3\\xb1a nueva" required> <br>\\r\\n                        <!-- Contrase;a nueva -->\\r\\n                            <label for="contrase\\xc3\\xb1a">Confirmar contrase\\xc3\\xb1a: </label>\\r\\n                            <input type="password" id="confirm_password" name="contrase\\xc3\\xb1a" placeholder="Contrase\\xc3\\xb1a nueva" required> <br><br>\\r\\n                        <div class="save text-center"><input type="submit" class="btn btn-primary save" value="Guardar"></div>\\r\\n                        </form>\\r\\n                    </div>\\r\\n                    <!-- Contactanos -->\\r\\n                    <div id="enviarEmail" class="row">\\r\\n                        <h1>Correos Masivos </h1>\\r\\n                        <p class="textCoor marg">Seleccione a las personas que sera dirigido el correo electronico</p>\\r\\n\\r\\n                        <p class="textCoor marg "> Si presenta algun problema comunicarse con el servicio tecnico.</p>\\r\\n                        <form role="form" method="post" >\\r\\n                            <br><br>\\r\\n                            <!-- institucionn -->\\r\\n                            <div class="form-group">\\r\\n                                <label for="quien"  class="col-sm-2 control-label lineCentral">Dirigido a: </label><br>\\r\\n                                   <br><input type="checkbox" class="gender marg" name="estudiantes" value="Estudiantes" >Estudiantes<br>\\r\\n                                    <input type="checkbox" class="gender marg" name="profesores" value="Profesores" >Profesores <br>\\r\\n                                    <input type="checkbox" class="gender marg" name="coordinadorLiceo" value="CoorLiceo" >Coordinadores Liceo <br>\\r\\n                                    <input type="checkbox" class="gender marg" name="coorPio" value="coorPio" >Coordinador Pio<br>\\r\\n                            </div>\\r\\n                        <br>\\r\\n                            <!-- Asunto-->\\r\\n                            <div class="form-group">\\r\\n                                <label for="name" class="col-sm-4 control-label">Correo especifico:</label>\\r\\n                                <br><br>\\r\\n                                <div class="col-sm-10">\\r\\n                                    <input type="email" class="form-control" id="email" name="email" placeholder="Ingrese correo destino" value="" required>\\r\\n                                </div>\\r\\n                            </div>\\r\\n                            <br>\\r\\n                           <br>\\r\\n                            <!-- Asunto-->\\r\\n                            <div class="form-group">\\r\\n                                <label for="name" class="col-sm-2 control-label">Asunto</label>\\r\\n                                <br><br>\\r\\n                                <div class="col-sm-10">\\r\\n                                    <input type="text" class="form-control" id="asunto" name="asunto" placeholder="Asunto" value="" required>\\r\\n                                </div>\\r\\n                            </div>\\r\\n                           <br>\\r\\n                            <!-- mensaje -->\\r\\n                            <div class="form-group">\\r\\n                                <br><br>\\r\\n                                <label for="message" class="col-sm-2 control-label">Mensaje</label><br><br>\\r\\n                                <div class="col-sm-10">\\r\\n                                    <textarea class="form-control" rows="4" name="message" required></textarea>\\r\\n                                </div>\\r\\n                            </div>\\r\\n                            \\r\\n                            <div class="form-group">\\r\\n                                <div class="col-sm-10 col-sm-offset-2">\\r\\n                                    <br><br><div class="send">\\r\\n                                    <input id="submit" name="submit" type="submit" value="Enviar" class="btn btn-primary"></div>\\r\\n                                    <br><br>\\r\\n                                    <br>\\r\\n                                </div>\\r\\n                            </div>\\r\\n                        </form>\\r\\n                    </div>\\r\\n                    \\r\\n                </div>\\r\\n                </div><!--row-->\\r\\n              </div><!--colmd12-->\\r\\n                \\r\\n            </div><!-- row -->\\r\\n            \\r\\n            \\r\\n        </div><!-- col md 10-->\\r\\n    </div><!-- container-->\\r\\n   \\r\\n\\r\\n    <footer class="container-fluid footer">\\r\\n        <div class="row">\\r\\n            <p class="text-center minText">Universidad Simon Bolivar<br>Sartenejas, Baruta, Edo. Miranda - Apartado 89000 - Cable Unibolivar - Caracas Venezuela. Tel\\xc3\\xa9fono +58 0212-9063111.<br>\\r\\nDise\\xc3\\xb1ada y desarrollada por Software for the World</p>\\r\\n        </div>\\r\\n    </footer>\\r\\n\\r\\n    <!-- jQuery (necessary for Bootstrap\\\'s JavaScript plugins) -->\\r\\n     <script src="https://ajax.googleapis.com/ajax/libs/jquery/1.12.4/jquery.min.js"></script>\\r\\n    <!-- Include all compiled plugins (below), or include individual files as needed -->\\r\\n    <script src="\', escape=False)'
p105
sI26
S"response.write(URL('static', 'js/bootstrap.min.js'))"
p106
sI27
S'response.write(\'"></script>\\r\\n    <!-- JQUERY-->\\r\\n    <script>\\r\\n        /*Comparacion de contrase;as*/\\r\\n        var password = document.getElementById("password")\\r\\n          , confirm_password = document.getElementById("confirm_password");\\r\\n\\r\\n        function validatePassword(){\\r\\n          if(password.value != confirm_password.value) {\\r\\n            confirm_password.setCustomValidity("Las contrase\\xc3\\xb1as no coinciden");\\r\\n          } else {\\r\\n            confirm_password.setCustomValidity(\\\'\\\');\\r\\n          }\\r\\n        }\\r\\n\\r\\n        password.onchange = validatePassword;\\r\\n        confirm_password.onkeyup = validatePassword;\\r\\n        \\r\\n        \\r\\n        /*Cambio de seleccion en el menu izquierdo*/\\r\\n    $(".nav-stacked a").on("click", function(){\\r\\n       $(".nav").find(".active").removeClass("active");\\r\\n       $(this).parent().addClass("active");\\r\\n    });\\r\\n        \\r\\n    $(document).ready(function(){\\r\\n       \\r\\n    $(".glyphicon, #userinfo" ).click(function(){\\r\\n        $("#information, #agregar,#modificar").hide();\\r\\n        $("#enviarEmail, #cargar,#permiso").hide();\\r\\n        $("#cambioContra, #reporte").hide();\\r\\n        $("#noticias, #consultar").hide();\\r\\n        $("#miPerfil").show();\\r\\n        $(".nav").find(".active").removeClass("active");\\r\\n        $(".perfil").parent().addClass("active");\\r\\n    });\\r\\n   \\r\\n    $(".perfil").click(function(){\\r\\n        $("#information, #agregar, #cargar").hide();\\r\\n        $("#enviarEmail,#permiso").hide();\\r\\n        $("#noticias, #reporte").hide();\\r\\n        $("#cambioContra, #consultar").hide();\\r\\n        $("#miPerfil").show();\\r\\n         $(".nav").find(".active").removeClass("active");\\r\\n        $(".perfil").parent().addClass("active");\\r\\n    });\\r\\n    $("#principal").click(function(){\\r\\n        $("#information").show();\\r\\n        $("#noticias, #agregar, #cargar").hide();\\r\\n        $("#enviarEmail,#modificar").hide();\\r\\n        $("#cambioContra, #reporte,#permiso").hide();\\r\\n        $("#miPerfil, #consultar").hide();\\r\\n    });\\r\\n    $("#pass").click(function(){\\r\\n        $("#information, #agregar, #cargar").hide();\\r\\n        $("#enviarEmail,#modificar").hide();\\r\\n        $("#noticias, #reporte,#permiso").hide();\\r\\n        $("#cambioContra").show();\\r\\n        $("#miPerfil, #consultar").hide();\\r\\n    });\\r\\n     $("#comp").click(function(){\\r\\n        $("#information, #agregar, #cargar").hide();\\r\\n        $("#enviarEmail,#permiso").hide();\\r\\n        $("#noticias,#modificar").hide();\\r\\n         $("#reporte").show();\\r\\n        $("#cambioContra").hide();\\r\\n        $("#miPerfil, #consultar").hide();\\r\\n    });\\r\\n    $("#upload").click(function(){\\r\\n        $("#information, #agregar, #cargar").hide();\\r\\n        $("#enviarEmail,#permiso").hide();\\r\\n        $("#noticias,#modificar").hide();\\r\\n        $("#cambioContra, #reporte").hide();\\r\\n        $("#cargar").show();\\r\\n        $("#miPerfil, #consultar").hide();\\r\\n    });\\r\\n    $("#lookfor").click(function(){\\r\\n        $("#information, #agregar, #cargar").hide();\\r\\n        $("#enviarEmail,#modificar").hide();\\r\\n        $("#noticias,#permiso").hide();\\r\\n        $("#cambioContra").hide();\\r\\n        $("#consultar").show();\\r\\n        $("#miPerfil, #reporte").hide();\\r\\n    });\\r\\n    $("#add").click(function(){\\r\\n        $("#information, #cargar").hide();\\r\\n        $("#enviarEmail,#permiso").hide();\\r\\n        $("#noticias, #consultar").hide();\\r\\n        $("#agregar").show();\\r\\n        $("#cambioContra,#modificar").hide();\\r\\n        $("#miPerfil, #reporte").hide();\\r\\n    });\\r\\n    $("#edit").click(function(){\\r\\n        $("#information, #cargar").hide();\\r\\n        $("#enviarEmail,#permiso").hide();\\r\\n        $("#noticias, #consultar").hide();\\r\\n        $("#modificar").show();\\r\\n        $("#cambioContra,#agregar").hide();\\r\\n        $("#miPerfil, #reporte").hide();\\r\\n    });\\r\\n    $("#news").click(function(){\\r\\n        $("#information, #agregar, #cargar, #consultar,#permiso").hide();\\r\\n        $("#enviarEmail,#modificar").hide();\\r\\n        $("#noticias").show();\\r\\n        $("#cambioContra").hide();\\r\\n        $("#miPerfil, #reporte").hide();\\r\\n    });\\r\\n    $("#allow").click(function(){\\r\\n        $("#information, #agregar, #cargar, #consultar,#permiso").hide();\\r\\n        $("#enviarEmail,#modificar").hide();\\r\\n        $("#noticias").hide();\\r\\n        $("#permiso").show();\\r\\n        $("#cambioContra").hide();\\r\\n        $("#miPerfil, #reporte").hide();\\r\\n    });\\r\\n    $("#contacto, #enviar").click(function(){\\r\\n        $("#information, #agregar, #cargar").hide();\\r\\n        $("#enviarEmail").show();\\r\\n        $("#cambioContra, #consultar").hide();\\r\\n        $("#noticias, #reporte,#permiso").hide();\\r\\n        $("#miPerfil,#modificar").hide();\\r\\n        $(".nav").find(".active").removeClass("active");\\r\\n        $("#contacto").parent().addClass("active");\\r\\n    });\\r\\n});\\r\\n    </script>\\r\\n\\r\\n</body>\\r\\n</html>\\r\\n\', escape=False)'
p107
ssg83
S'()'
p108
sg85
S'<module>'
p109
sasS'pyver'
p110
S'Python 2.7.9: C:\\Users\\Rafael Cisneros\\Desktop\\web2py\\web2py\\web2py.exe (prefix: C:\\Python27)'
p111
sS'session'
p112
g57
(S'sr\t\x00\x00<div><table><tr><td style="font-weight:bold;vertical-align:top;">auth</td><td style="vertical-align:top;">:</td><td><div><table><tr><td style="font-weight:bold;vertical-align:top;">expiration</td><td style="vertical-align:top;">:</td><td><div>3600</div></td></tr><tr><td style="font-weight:bold;vertical-align:top;">hmac_key</td><td style="vertical-align:top;">:</td><td><div>76a19ae6-df1d-4958-a8a6-7bdab3c0b54a</div></td></tr><tr><td style="font-weight:bold;vertical-align:top;">last_visit</td><td style="vertical-align:top;">:</td><td><div>datetime.datetime(2017, 10, 21, 15, 18, 28, 251000)</div></td></tr><tr><td style="font-weight:bold;vertical-align:top;">remember_me</td><td style="vertical-align:top;">:</td><td><div>False</div></td></tr><tr><td style="font-weight:bold;vertical-align:top;">user</td><td style="vertical-align:top;">:</td><td><div><table><tr><td style="font-weight:bold;vertical-align:top;">email</td><td style="vertical-align:top;">:</td><td><div>admin@usb.ve</div></td></tr><tr><td style="font-weight:bold;vertical-align:top;">first_name</td><td style="vertical-align:top;">:</td><td><div>SisPIO</div></td></tr><tr><td style="font-weight:bold;vertical-align:top;">id</td><td style="vertical-align:top;">:</td><td><div>1L</div></td></tr><tr><td style="font-weight:bold;vertical-align:top;">last_name</td><td style="vertical-align:top;">:</td><td><div>Admin</div></td></tr><tr><td style="font-weight:bold;vertical-align:top;">registration_id</td><td style="vertical-align:top;">:</td><td><div></div></td></tr><tr><td style="font-weight:bold;vertical-align:top;">registration_key</td><td style="vertical-align:top;">:</td><td><div></div></td></tr><tr><td style="font-weight:bold;vertical-align:top;">reset_password_key</td><td style="vertical-align:top;">:</td><td><div></div></td></tr><tr><td style="font-weight:bold;vertical-align:top;">username</td><td style="vertical-align:top;">:</td><td><div>admin</div></td></tr></table></div></td></tr><tr><td style="font-weight:bold;vertical-align:top;">user_groups</td><td style="vertical-align:top;">:</td><td><div><table><tr><td style="font-weight:bold;vertical-align:top;">5</td><td style="vertical-align:top;">:</td><td><div>Administrador</div></td></tr></table></div></td></tr></table></div></td></tr><tr><td style="font-weight:bold;vertical-align:top;">flash</td><td style="vertical-align:top;">:</td><td><div>None</div></td></tr></table></div>'
tRp113
sS'etype'
p114
S"<type 'exceptions.AttributeError'>"
p115
sS'date'
p116
S'Sat Oct 21 15:18:28 2017'
p117
sS'response'
p118
g57
(S's`@\x00\x00<div><table><tr><td style="font-weight:bold;vertical-align:top;">body</td><td style="vertical-align:top;">:</td><td><div>&lt;cStringIO.StringO object at 0x0496A920&gt;</div></td></tr><tr><td style="font-weight:bold;vertical-align:top;">cookies</td><td style="vertical-align:top;">:</td><td><div><table><tr><td style="font-weight:bold;vertical-align:top;">session_id_sispiorafael2</td><td style="vertical-align:top;">:</td><td><div>127.0.0.1-2a04b74e-f0d0-4477-949f-24a4a69c78a2<table><tr><td style="font-weight:bold;vertical-align:top;">comment</td><td style="vertical-align:top;">:</td><td><div></div></td></tr><tr><td style="font-weight:bold;vertical-align:top;">domain</td><td style="vertical-align:top;">:</td><td><div></div></td></tr><tr><td style="font-weight:bold;vertical-align:top;">expires</td><td style="vertical-align:top;">:</td><td><div></div></td></tr><tr><td style="font-weight:bold;vertical-align:top;">httponly</td><td style="vertical-align:top;">:</td><td><div></div></td></tr><tr><td style="font-weight:bold;vertical-align:top;">max-age</td><td style="vertical-align:top;">:</td><td><div></div></td></tr><tr><td style="font-weight:bold;vertical-align:top;">path</td><td style="vertical-align:top;">:</td><td><div>/</div></td></tr><tr><td style="font-weight:bold;vertical-align:top;">secure</td><td style="vertical-align:top;">:</td><td><div></div></td></tr><tr><td style="font-weight:bold;vertical-align:top;">version</td><td style="vertical-align:top;">:</td><td><div></div></td></tr></table></div></td></tr></table></div></td></tr><tr><td style="font-weight:bold;vertical-align:top;">delimiters</td><td style="vertical-align:top;">:</td><td><div><table><tr><td><div>{{</div></td></tr><tr><td><div>}}</div></td></tr></table></div></td></tr><tr><td style="font-weight:bold;vertical-align:top;">files</td><td style="vertical-align:top;">:</td><td><div><table></table></div></td></tr><tr><td style="font-weight:bold;vertical-align:top;">flash</td><td style="vertical-align:top;">:</td><td><div></div></td></tr><tr><td style="font-weight:bold;vertical-align:top;">form_label_separator</td><td style="vertical-align:top;">:</td><td><div></div></td></tr><tr><td style="font-weight:bold;vertical-align:top;">formstyle</td><td style="vertical-align:top;">:</td><td><div>bootstrap3_inline</div></td></tr><tr><td style="font-weight:bold;vertical-align:top;">generic_patterns</td><td style="vertical-align:top;">:</td><td><div><table><tr><td><div>*</div></td></tr></table></div></td></tr><tr><td style="font-weight:bold;vertical-align:top;">google_analytics_id</td><td style="vertical-align:top;">:</td><td><div>None</div></td></tr><tr><td style="font-weight:bold;vertical-align:top;">headers</td><td style="vertical-align:top;">:</td><td><div><table><tr><td style="font-weight:bold;vertical-align:top;">X-Powered-By</td><td style="vertical-align:top;">:</td><td><div>web2py</div></td></tr></table></div></td></tr><tr><td style="font-weight:bold;vertical-align:top;">logo</td><td style="vertical-align:top;">:</td><td><div><a class="navbar-brand" href="http://www.web2py.com/" id="web2py-logo"><b>web<span>2</span>py</b>&trade;&nbsp;</a></div></td></tr><tr><td style="font-weight:bold;vertical-align:top;">menu</td><td style="vertical-align:top;">:</td><td><div><table><tr><td><div><table><tr><td><div>Inicio</div></td></tr><tr><td><div>False</div></td></tr><tr><td><div>/SisPIOrafael2/default/index</div></td></tr><tr><td><div><table></table></div></td></tr></table></div></td></tr><tr><td><div><table><tr><td><div>Mis Sitios</div></td></tr><tr><td><div>False</div></td></tr><tr><td><div>/admin/default/site</div></td></tr></table></div></td></tr><tr><td><div><table><tr><td><div>Esta Aplicaci\xc3\xb3n</div></td></tr><tr><td><div>False</div></td></tr><tr><td><div>#</div></td></tr><tr><td><div><table><tr><td><div><table><tr><td><div>Design</div></td></tr><tr><td><div>False</div></td></tr><tr><td><div>/admin/default/design/SisPIOrafael2</div></td></tr></table></div></td></tr><tr><td><div><li class="divider"></li></div></td></tr><tr><td><div><table><tr><td><div>Controlador</div></td></tr><tr><td><div>False</div></td></tr><tr><td><div>/admin/default/edit/SisPIOrafael2/controllers/default.py</div></td></tr></table></div></td></tr><tr><td><div><table><tr><td><div>Vista</div></td></tr><tr><td><div>False</div></td></tr><tr><td><div>/admin/default/edit/SisPIOrafael2/views/default/admin.html</div></td></tr></table></div></td></tr><tr><td><div><table><tr><td><div>Modelo BDD</div></td></tr><tr><td><div>False</div></td></tr><tr><td><div>/admin/default/edit/SisPIOrafael2/models/db.py</div></td></tr></table></div></td></tr><tr><td><div><table><tr><td><div>Modelo "menu"</div></td></tr><tr><td><div>False</div></td></tr><tr><td><div>/admin/default/edit/SisPIOrafael2/models/menu.py</div></td></tr></table></div></td></tr><tr><td><div><table><tr><td><div>Config.ini</div></td></tr><tr><td><div>False</div></td></tr><tr><td><div>/admin/default/edit/SisPIOrafael2/private/appconfig.ini</div></td></tr></table></div></td></tr><tr><td><div><table><tr><td><div>Dise\xc3\xb1o de p\xc3\xa1gina</div></td></tr><tr><td><div>False</div></td></tr><tr><td><div>/admin/default/edit/SisPIOrafael2/views/layout.html</div></td></tr></table></div></td></tr><tr><td><div><table><tr><td><div>Hoja de estilo</div></td></tr><tr><td><div>False</div></td></tr><tr><td><div>/admin/default/edit/SisPIOrafael2/static/css/web2py-bootstrap3.css</div></td></tr></table></div></td></tr><tr><td><div><table><tr><td><div>Base de datos</div></td></tr><tr><td><div>False</div></td></tr><tr><td><div>/SisPIOrafael2/appadmin/index</div></td></tr></table></div></td></tr><tr><td><div><table><tr><td><div>Errores</div></td></tr><tr><td><div>False</div></td></tr><tr><td><div>/admin/default/errors/SisPIOrafael2</div></td></tr></table></div></td></tr><tr><td><div><table><tr><td><div>Acerca de</div></td></tr><tr><td><div>False</div></td></tr><tr><td><div>/admin/default/about/SisPIOrafael2</div></td></tr></table></div></td></tr></table></div></td></tr></table></div></td></tr><tr><td><div><table><tr><td><div>web2py.com</div></td></tr><tr><td><div>False</div></td></tr><tr><td><div>#</div></td></tr><tr><td><div><table><tr><td><div><table><tr><td><div>Descargas</div></td></tr><tr><td><div>False</div></td></tr><tr><td><div>http://www.web2py.com/examples/default/download</div></td></tr></table></div></td></tr><tr><td><div><table><tr><td><div>Soporte</div></td></tr><tr><td><div>False</div></td></tr><tr><td><div>http://www.web2py.com/examples/default/support</div></td></tr></table></div></td></tr><tr><td><div><table><tr><td><div>Demostraci\xc3\xb3n</div></td></tr><tr><td><div>False</div></td></tr><tr><td><div>http://web2py.com/demo_admin</div></td></tr></table></div></td></tr><tr><td><div><table><tr><td><div>Ejemplos R\xc3\xa1pidos</div></td></tr><tr><td><div>False</div></td></tr><tr><td><div>http://web2py.com/examples/default/examples</div></td></tr></table></div></td></tr><tr><td><div><table><tr><td><div>FAQ</div></td></tr><tr><td><div>False</div></td></tr><tr><td><div>http://web2py.com/AlterEgo</div></td></tr></table></div></td></tr><tr><td><div><table><tr><td><div>V\xc3\xaddeos</div></td></tr><tr><td><div>False</div></td></tr><tr><td><div>http://www.web2py.com/examples/default/videos/</div></td></tr></table></div></td></tr><tr><td><div><table><tr><td><div>Aplicaciones Libres</div></td></tr><tr><td><div>False</div></td></tr><tr><td><div>http://web2py.com/appliances</div></td></tr></table></div></td></tr><tr><td><div><table><tr><td><div>Plugins</div></td></tr><tr><td><div>False</div></td></tr><tr><td><div>http://web2py.com/plugins</div></td></tr></table></div></td></tr><tr><td><div><table><tr><td><div>Recetas</div></td></tr><tr><td><div>False</div></td></tr><tr><td><div>http://web2pyslices.com/</div></td></tr></table></div></td></tr></table></div></td></tr></table></div></td></tr><tr><td><div><table><tr><td><div>Documentaci\xc3\xb3n</div></td></tr><tr><td><div>False</div></td></tr><tr><td><div>#</div></td></tr><tr><td><div><table><tr><td><div><table><tr><td><div>Online book</div></td></tr><tr><td><div>False</div></td></tr><tr><td><div>http://www.web2py.com/book</div></td></tr></table></div></td></tr><tr><td><div><li class="divider"></li></div></td></tr><tr><td><div><table><tr><td><div>Prefacio</div></td></tr><tr><td><div>False</div></td></tr><tr><td><div>http://www.web2py.com/book/default/chapter/00</div></td></tr></table></div></td></tr><tr><td><div><table><tr><td><div>Introducci\xc3\xb3n</div></td></tr><tr><td><div>False</div></td></tr><tr><td><div>http://www.web2py.com/book/default/chapter/01</div></td></tr></table></div></td></tr><tr><td><div><table><tr><td><div>Python</div></td></tr><tr><td><div>False</div></td></tr><tr><td><div>http://www.web2py.com/book/default/chapter/02</div></td></tr></table></div></td></tr><tr><td><div><table><tr><td><div>Resumen</div></td></tr><tr><td><div>False</div></td></tr><tr><td><div>http://www.web2py.com/book/default/chapter/03</div></td></tr></table></div></td></tr><tr><td><div><table><tr><td><div>El N\xc3\xbacleo</div></td></tr><tr><td><div>False</div></td></tr><tr><td><div>http://www.web2py.com/book/default/chapter/04</div></td></tr></table></div></td></tr><tr><td><div><table><tr><td><div>Las Vistas</div></td></tr><tr><td><div>False</div></td></tr><tr><td><div>http://www.web2py.com/book/default/chapter/05</div></td></tr></table></div></td></tr><tr><td><div><table><tr><td><div>Base de datos</div></td></tr><tr><td><div>False</div></td></tr><tr><td><div>http://www.web2py.com/book/default/chapter/06</div></td></tr></table></div></td></tr><tr><td><div><table><tr><td><div>Formularios y validadores</div></td></tr><tr><td><div>False</div></td></tr><tr><td><div>http://www.web2py.com/book/default/chapter/07</div></td></tr></table></div></td></tr><tr><td><div><table><tr><td><div>Correo electr\xc3\xb3nico y SMS</div></td></tr><tr><td><div>False</div></td></tr><tr><td><div>http://www.web2py.com/book/default/chapter/08</div></td></tr></table></div></td></tr><tr><td><div><table><tr><td><div>Control de Acceso</div></td></tr><tr><td><div>False</div></td></tr><tr><td><div>http://www.web2py.com/book/default/chapter/09</div></td></tr></table></div></td></tr><tr><td><div><table><tr><td><div>Servicios</div></td></tr><tr><td><div>False</div></td></tr><tr><td><div>http://www.web2py.com/book/default/chapter/10</div></td></tr></table></div></td></tr><tr><td><div><table><tr><td><div>Recetas AJAX</div></td></tr><tr><td><div>False</div></td></tr><tr><td><div>http://www.web2py.com/book/default/chapter/11</div></td></tr></table></div></td></tr><tr><td><div><table><tr><td><div>Componentes y Plugins</div></td></tr><tr><td><div>False</div></td></tr><tr><td><div>http://www.web2py.com/book/default/chapter/12</div></td></tr></table></div></td></tr><tr><td><div><table><tr><td><div>Recetas de despliegue</div></td></tr><tr><td><div>False</div></td></tr><tr><td><div>http://www.web2py.com/book/default/chapter/13</div></td></tr></table></div></td></tr><tr><td><div><table><tr><td><div>Otras Recetas</div></td></tr><tr><td><div>False</div></td></tr><tr><td><div>http://www.web2py.com/book/default/chapter/14</div></td></tr></table></div></td></tr><tr><td><div><table><tr><td><div>Helping web2py</div></td></tr><tr><td><div>False</div></td></tr><tr><td><div>http://www.web2py.com/book/default/chapter/15</div></td></tr></table></div></td></tr><tr><td><div><table><tr><td><div>Buy web2py\'s book</div></td></tr><tr><td><div>False</div></td></tr><tr><td><div>http://stores.lulu.com/web2py</div></td></tr></table></div></td></tr></table></div></td></tr></table></div></td></tr><tr><td><div><table><tr><td><div>Comunidad</div></td></tr><tr><td><div>False</div></td></tr><tr><td><div>None</div></td></tr><tr><td><div><table><tr><td><div><table><tr><td><div>Grupos</div></td></tr><tr><td><div>False</div></td></tr><tr><td><div>http://www.web2py.com/examples/default/usergroups</div></td></tr></table></div></td></tr><tr><td><div><table><tr><td><div>Twitter</div></td></tr><tr><td><div>False</div></td></tr><tr><td><div>http://twitter.com/web2py</div></td></tr></table></div></td></tr><tr><td><div><table><tr><td><div>Chat en vivo</div></td></tr><tr><td><div>False</div></td></tr><tr><td><div>http://webchat.freenode.net/?channels=web2py</div></td></tr></table></div></td></tr></table></div></td></tr></table></div></td></tr></table></div></td></tr><tr><td style="font-weight:bold;vertical-align:top;">meta</td><td style="vertical-align:top;">:</td><td><div><table><tr><td style="font-weight:bold;vertical-align:top;">author</td><td style="vertical-align:top;">:</td><td><div>Your Name &lt;you@example.com&gt;</div></td></tr><tr><td style="font-weight:bold;vertical-align:top;">description</td><td style="vertical-align:top;">:</td><td><div>a cool new app</div></td></tr><tr><td style="font-weight:bold;vertical-align:top;">generator</td><td style="vertical-align:top;">:</td><td><div>Web2py Web Framework</div></td></tr><tr><td style="font-weight:bold;vertical-align:top;">keywords</td><td style="vertical-align:top;">:</td><td><div><table><tr><td><div>web2py</div></td></tr><tr><td><div>python</div></td></tr><tr><td><div>framework</div></td></tr></table></div></td></tr></table></div></td></tr><tr><td style="font-weight:bold;vertical-align:top;">models_to_run</td><td style="vertical-align:top;">:</td><td><div><table><tr><td><div>^\\w+\\.py$</div></td></tr><tr><td><div>^default/\\w+\\.py$</div></td></tr><tr><td><div>^default/admin/\\w+\\.py$</div></td></tr></table></div></td></tr><tr><td style="font-weight:bold;vertical-align:top;">postprocessing</td><td style="vertical-align:top;">:</td><td><div><table></table></div></td></tr><tr><td style="font-weight:bold;vertical-align:top;">session_client</td><td style="vertical-align:top;">:</td><td><div>127.0.0.1</div></td></tr><tr><td style="font-weight:bold;vertical-align:top;">session_cookie_compression_level</td><td style="vertical-align:top;">:</td><td><div>None</div></td></tr><tr><td style="font-weight:bold;vertical-align:top;">session_cookie_expires</td><td style="vertical-align:top;">:</td><td><div>None</div></td></tr><tr><td style="font-weight:bold;vertical-align:top;">session_data_name</td><td style="vertical-align:top;">:</td><td><div>session_data_sispiorafael2</div></td></tr><tr><td style="font-weight:bold;vertical-align:top;">session_file</td><td style="vertical-align:top;">:</td><td><div>&lt;open file &#x27;C:\\\\Users\\\\Rafael Cisneros\\\\Desktop\\\\web2py\\\\web2py\\\\applications\\\\SisPIOrafael2\\\\sessions\\\\1f7\\\\1e8\\\\127.0.0.1-2a04b74e-f0d0-4477-949f-24a4a69c78a2&#x27;, mode &#x27;rb+&#x27; at 0x0479E548&gt;</div></td></tr><tr><td style="font-weight:bold;vertical-align:top;">session_filename</td><td style="vertical-align:top;">:</td><td><div>C:\\Users\\Rafael Cisneros\\Desktop\\web2py\\web2py\\applications\\SisPIOrafael2\\sessions\\127.0.0.1-2a04b74e-f0d0-4477-949f-24a4a69c78a2</div></td></tr><tr><td style="font-weight:bold;vertical-align:top;">session_hash</td><td style="vertical-align:top;">:</td><td><div>7bfff591bfb494dffa2ae244359585b1</div></td></tr><tr><td style="font-weight:bold;vertical-align:top;">session_id</td><td style="vertical-align:top;">:</td><td><div>127.0.0.1-2a04b74e-f0d0-4477-949f-24a4a69c78a2</div></td></tr><tr><td style="font-weight:bold;vertical-align:top;">session_id_name</td><td style="vertical-align:top;">:</td><td><div>session_id_sispiorafael2</div></td></tr><tr><td style="font-weight:bold;vertical-align:top;">session_locked</td><td style="vertical-align:top;">:</td><td><div>True</div></td></tr><tr><td style="font-weight:bold;vertical-align:top;">session_masterapp</td><td style="vertical-align:top;">:</td><td><div>SisPIOrafael2</div></td></tr><tr><td style="font-weight:bold;vertical-align:top;">session_new</td><td style="vertical-align:top;">:</td><td><div>False</div></td></tr><tr><td style="font-weight:bold;vertical-align:top;">session_storage_type</td><td style="vertical-align:top;">:</td><td><div>file</div></td></tr><tr><td style="font-weight:bold;vertical-align:top;">status</td><td style="vertical-align:top;">:</td><td><div>200</div></td></tr><tr><td style="font-weight:bold;vertical-align:top;">subtitle</td><td style="vertical-align:top;">:</td><td><div></div></td></tr><tr><td style="font-weight:bold;vertical-align:top;">title</td><td style="vertical-align:top;">:</td><td><div>Sispiorafael2</div></td></tr><tr><td style="font-weight:bold;vertical-align:top;">view</td><td style="vertical-align:top;">:</td><td><div>default/admin.html</div></td></tr></table></div>'
tRp119
sS'locals'
p120
(dp121
S'Service'
p122
S"<class 'gluon.tools.Service'>"
p123
sS'OBJECT'
p124
S"<class 'gluon.html.OBJECT'>"
p125
sS'SQLDB'
p126
S"<class 'pydal.base.DAL'>"
p127
sg112
S"<Storage {'_auth_next': None, 'flash': None, 'au...gin]': ['84809485-8ea4-48dc-9325-5037ec798edf']}>"
p128
sS'LINK'
p129
S"<class 'gluon.html.LINK'>"
p130
sS'BR'
p131
S"<class 'gluon.html.BR'>"
p132
sS'local_import'
p133
S'<function <lambda>>'
p134
sS'OPTGROUP'
p135
S"<class 'gluon.html.OPTGROUP'>"
p136
sS'__package__'
p137
S'None'
p138
sS'PRE'
p139
S"<class 'gluon.html.PRE'>"
p140
sS'IS_INT_IN_RANGE'
p141
S"<class 'gluon.validators.IS_INT_IN_RANGE'>"
p142
sS'IS_LOWER'
p143
S"<class 'gluon.validators.IS_LOWER'>"
p144
sS'IS_STRONG'
p145
S"<class 'gluon.validators.IS_STRONG'>"
p146
sS'cache'
p147
S'<gluon.cache.Cache object>'
p148
sS'IS_IN_DB'
p149
S"<class 'gluon.validators.IS_IN_DB'>"
p150
sS'TAG'
p151
S'<gluon.html.__TAG__ object>'
p152
sS'SQLField'
p153
S"<class 'pydal.objects.Field'>"
p154
sS'mail'
p155
S'<gluon.tools.Mail object>'
p156
sS'BODY'
p157
S"<class 'gluon.html.BODY'>"
p158
sS'IS_DATE_IN_RANGE'
p159
S"<class 'gluon.validators.IS_DATE_IN_RANGE'>"
p160
sS'IFRAME'
p161
S"<class 'gluon.html.IFRAME'>"
p162
sS'URL'
p163
S'<function URL>'
p164
sS'__file__'
p165
S"r'C:\\Users\\Rafael Cisneros\\Desktop\\web2py\\web2py\\applications\\SisPIOrafael2\\views\\default/admin.html'"
p166
sS'db'
p167
S'<DAL uri="postgres:******@localhost/SisPIO">'
p168
sS'auth'
p169
S'<gluon.tools.Auth object>'
p170
sS'P'
S"<class 'gluon.html.P'>"
p171
sS'TFOOT'
p172
S"<class 'gluon.html.TFOOT'>"
p173
sS'XHTML'
p174
S"<class 'gluon.html.XHTML'>"
p175
sS'ON'
p176
S'True'
p177
sS'OL'
p178
S"<class 'gluon.html.OL'>"
p179
sS'TEXTAREA'
p180
S"<class 'gluon.html.TEXTAREA'>"
p181
sS'MENU'
p182
S"<class 'gluon.html.MENU'>"
p183
sS'IS_IMAGE'
p184
S"<class 'gluon.validators.IS_IMAGE'>"
p185
sS'EM'
p186
S"<class 'gluon.html.EM'>"
p187
sS'CODE'
p188
S"<class 'gluon.html.CODE'>"
p189
sS'HTTP'
p190
S"<class 'gluon.http.HTTP'>"
p191
sS'HR'
p192
S"<class 'gluon.html.HR'>"
p193
sS'IS_DATETIME'
p194
S"<class 'gluon.validators.IS_DATETIME'>"
p195
sS'STYLE'
p196
S"<class 'gluon.html.STYLE'>"
p197
sS'LABEL'
p198
S"<class 'gluon.html.LABEL'>"
p199
sS'CLEANUP'
p200
S"<class 'gluon.validators.CLEANUP'>"
p201
sS'plugins'
p202
S'<gluon.tools.PluginManager object>'
p203
sS'aceptado'
p204
S'False'
p205
sS'SELECT'
p206
S"<class 'gluon.html.SELECT'>"
p207
sS'CENTER'
p208
S"<class 'gluon.html.CENTER'>"
p209
sS'Auth'
p210
S"<class 'gluon.tools.Auth'>"
p211
sS'DEVELOPMENT_MENU'
p212
g177
sS'__builtins__'
p213
S"{'ArithmeticError': <type 'exceptions.ArithmeticError'>, 'AssertionError': <type 'exceptions.AssertionError'>, 'AttributeError': <type 'exceptions.AttributeError'>, 'BaseException': <type 'exceptions.BaseException'>, 'BufferError': <type 'exceptions.BufferError'>, 'BytesWarning': <type 'exceptions.BytesWarning'>, 'DeprecationWarning': <type 'exceptions.DeprecationWarning'>, 'EOFError': <type 'exceptions.EOFError'>, 'Ellipsis': Ellipsis, 'EnvironmentError': <type 'exceptions.EnvironmentError'>, ...}"
p214
sS'HTML'
p215
S"<class 'gluon.html.HTML'>"
p216
sS'SQLFORM'
p217
S"<class 'gluon.sqlhtml.SQLFORM'>"
p218
sS'LOAD'
p219
S'<function LOAD>'
p220
sS'redirect'
p221
S'<function redirect>'
p222
sS'FIELDSET'
p223
S"<class 'gluon.html.FIELDSET'>"
p224
sS'IS_EQUAL_TO'
p225
S"<class 'gluon.validators.IS_EQUAL_TO'>"
p226
sS'embed64'
p227
S'<function embed64>'
p228
sS'IS_LIST_OF'
p229
S"<class 'gluon.validators.IS_LIST_OF'>"
p230
sS'INPUT'
p231
S"<class 'gluon.html.INPUT'>"
p232
sS'EMBED'
p233
S"<class 'gluon.html.EMBED'>"
p234
sS'_'
S'<function _>'
p235
sS'myconf'
p236
S"{'forms': {'formstyle': 'bootstrap3_inline', 'se...': {'names': 'localhost:*, 127.0.0.1:*, *:*, *'}}"
p237
sS'H2'
p238
S"<class 'gluon.html.H2'>"
p239
sS'H3'
p240
S"<class 'gluon.html.H3'>"
p241
sS'AppConfig'
p242
S'<function AppConfig>'
p243
sS'H1'
p244
S"<class 'gluon.html.H1'>"
p245
sS'H6'
p246
S"<class 'gluon.html.H6'>"
p247
sS'H4'
p248
S"<class 'gluon.html.H4'>"
p249
sS'H5'
p250
S"<class 'gluon.html.H5'>"
p251
sS'UL'
p252
S"<class 'gluon.html.UL'>"
p253
sS'IS_UPPER'
p254
S"<class 'gluon.validators.IS_UPPER'>"
p255
sS'xmlescape'
p256
S'<function xmlescape>'
p257
sS'IS_TIME'
p258
S"<class 'gluon.validators.IS_TIME'>"
p259
sS'OPTION'
p260
S"<class 'gluon.html.OPTION'>"
p261
sS'TITLE'
p262
S"<class 'gluon.html.TITLE'>"
p263
sS'CRYPT'
p264
S"<class 'gluon.validators.CRYPT'>"
p265
sS'IS_EMPTY_OR'
p266
S"<class 'gluon.validators.IS_EMPTY_OR'>"
p267
sS'MARKMIN'
p268
S"<class 'gluon.html.MARKMIN'>"
p269
sS'__name__'
p270
S"'__restricted__'"
p271
sS'STRONG'
p272
S"<class 'gluon.html.STRONG'>"
p273
sS'COL'
p274
S"<class 'gluon.html.COL'>"
p275
sS'service'
p276
S'<gluon.tools.Service object>'
p277
sS'SCRIPT'
p278
S"<class 'gluon.html.SCRIPT'>"
p279
sS'TABLE'
p280
S"<class 'gluon.html.TABLE'>"
p281
sS'IS_IPV4'
p282
S"<class 'gluon.validators.IS_IPV4'>"
p283
sS'IS_LENGTH'
p284
S"<class 'gluon.validators.IS_LENGTH'>"
p285
sS'IS_IPV6'
p286
S"<class 'gluon.validators.IS_IPV6'>"
p287
sS'XML'
p288
S"<class 'gluon.html.XML'>"
p289
sS'B'
S"<class 'gluon.html.B'>"
p290
sS'IMG'
p291
S"<class 'gluon.html.IMG'>"
p292
sS'SQLTABLE'
p293
S"<class 'gluon.sqlhtml.SQLTABLE'>"
p294
sS'IS_MATCH'
p295
S"<class 'gluon.validators.IS_MATCH'>"
p296
sS'IS_ALPHANUMERIC'
p297
S"<class 'gluon.validators.IS_ALPHANUMERIC'>"
p298
sS'SPAN'
p299
S"<class 'gluon.html.SPAN'>"
p300
sS'IS_JSON'
p301
S"<class 'gluon.validators.IS_JSON'>"
p302
sS'IS_IPADDRESS'
p303
S"<class 'gluon.validators.IS_IPADDRESS'>"
p304
sS'IS_SLUG'
p305
S"<class 'gluon.validators.IS_SLUG'>"
p306
sS'BEAUTIFY'
p307
S"<class 'gluon.html.BEAUTIFY'>"
p308
sS'META'
p309
S"<class 'gluon.html.META'>"
p310
sS'BUTTON'
p311
S"<class 'gluon.html.BUTTON'>"
p312
sS'IS_DATE'
p313
S"<class 'gluon.validators.IS_DATE'>"
p314
sS'IS_EMAIL'
p315
S"<class 'gluon.validators.IS_EMAIL'>"
p316
sS'IS_NOT_EMPTY'
p317
S"<class 'gluon.validators.IS_NOT_EMPTY'>"
p318
sS'IS_FLOAT_IN_RANGE'
p319
S"<class 'gluon.validators.IS_FLOAT_IN_RANGE'>"
p320
sS'TBODY'
p321
S"<class 'gluon.html.TBODY'>"
p322
sS'CAT'
p323
S"<class 'gluon.html.CAT'>"
p324
sS'Field'
p325
S"<class 'pydal.objects.Field'>"
p326
sS'IS_LIST_OF_EMAILS'
p327
S"<class 'gluon.validators.IS_LIST_OF_EMAILS'>"
p328
sS'DIV'
p329
S"<class 'gluon.html.DIV'>"
p330
sS'LEGEND'
p331
S"<class 'gluon.html.LEGEND'>"
p332
sS'COLGROUP'
p333
S"<class 'gluon.html.COLGROUP'>"
p334
sS'DAL'
p335
S"<class 'pydal.base.DAL'>"
p336
sS'ASSIGNJS'
p337
S'<function ASSIGNJS>'
p338
sS'TR'
p339
S"<class 'gluon.html.TR'>"
p340
sS'LI'
p341
S"<class 'gluon.html.LI'>"
p342
sS'TH'
p343
S"<class 'gluon.html.TH'>"
p344
sS'TD'
p345
S"<class 'gluon.html.TD'>"
p346
sS'PluginManager'
p347
S"<class 'gluon.tools.PluginManager'>"
p348
sS'IS_URL'
p349
S"<class 'gluon.validators.IS_URL'>"
p350
sS'A'
S"<class 'gluon.html.A'>"
p351
sS'HEAD'
p352
S"<class 'gluon.html.HEAD'>"
p353
sS'IS_DATETIME_IN_RANGE'
p354
S"<class 'gluon.validators.IS_DATETIME_IN_RANGE'>"
p355
sS'FORM'
p356
S"<class 'gluon.html.FORM'>"
p357
sS'I'
S"<class 'gluon.html.I'>"
p358
sS'IS_NOT_IN_DB'
p359
S"<class 'gluon.validators.IS_NOT_IN_DB'>"
p360
sS'formAdministrador'
p361
S'<gluon.sqlhtml.SQLFORM object>'
p362
sg118
S"<Storage {'body': <cStringIO.StringO object at 0...a> at 0x04691DB0>, 'view': 'default/admin.html'}>"
p363
sS'THEAD'
p364
S"<class 'gluon.html.THEAD'>"
p365
sS'ANY_OF'
p366
S"<class 'gluon.validators.ANY_OF'>"
p367
sS'IS_NULL_OR'
p368
S"<class 'gluon.validators.IS_EMPTY_OR'>"
p369
sg56
S"<Storage {'_vars': <Storage {'fileToUpload': 'ej...\\web2py\\\\web2py\\\\applications\\\\SisPIOrafael2\\\\'}>"
p370
sS'IS_EXPR'
p371
S"<class 'gluon.validators.IS_EXPR'>"
p372
sS'T'
S'<gluon.languages.translator object>'
p373
sS'IS_IN_SET'
p374
S"<class 'gluon.validators.IS_IN_SET'>"
p375
sS'IS_UPLOAD_FILENAME'
p376
S"<class 'gluon.validators.IS_UPLOAD_FILENAME'>"
p377
sS'TT'
p378
S"<class 'gluon.html.TT'>"
p379
sS'IS_DECIMAL_IN_RANGE'
p380
S"<class 'gluon.validators.IS_DECIMAL_IN_RANGE'>"
p381
sssS'traceback'
p382
S'Traceback (most recent call last):\n  File "C:\\Users\\Rafael Cisneros\\Desktop\\web2py\\web2py\\gluon\\restricted.py", line 227, in restricted\n    exec ccode in environment\n  File "C:\\Users\\Rafael Cisneros\\Desktop\\web2py\\web2py\\applications\\SisPIOrafael2\\views\\default/admin.html", line 22, in <module>\n    </head>\nAttributeError: \'str\' object has no attribute \'filename\'\n'
p383
s.