(dp1
S'output'
p2
S"<type 'exceptions.SyntaxError'> invalid syntax (default/admin.html, line 2)"
p3
sS'layer'
p4
S'C:\\Users\\Rafael Cisneros\\Desktop\\web2py\\web2py\\applications\\SisPIOrafael2\\views\\default/admin.html'
p5
sS'code'
p6
S'response.write(\'\\n<!DOCTYPE html>\\n<html lang="es">\\n\\n<head>\\n    <meta charset="utf-8">\\n    <meta http-equiv="X-UA-Compatible" content="IE=edge">\\n    <meta name="viewport" content="width=device-width, initial-scale=1">\\n    <!-- The above 3 meta tags *must* come first in the head; any other head content must come *after* these tags. Will make it responsive-->\\n    <title>Sistema PIO</title>\\n    <link rel="shortcut icon" href="img/logoUSB.png" />\\n     <!-- Bootstrap -->\\n    <link href="css/bootstrap.min.css" rel="stylesheet">\\n    <link href="css/bootstrap-theme.min.css" rel="stylesheet">\\n    <link href="css/index.css" rel="stylesheet">\\n\\n    <!-- HTML5 shim and Respond.js for IE8 support of HTML5 elements and media queries -->\\n    <!-- WARNING: Respond.js doesn\\\'t work if you view the page via file:// -->\\n    <!--[if lt IE 9]>\\n      <script src="https://oss.maxcdn.com/html5shiv/3.7.3/html5shiv.min.js"></script>\\n      <script src="https://oss.maxcdn.com/respond/1.4.2/respond.min.js"></script>\\n    <![endif]-->\\n</head>\\n<div class="container">\\n        <div class="row">\\n            <!--HEADER --> \\n            <div class="col-sm-12">\\n                <img id="Logo" class="img-responsive" src="img/bar6.png" >\\n            </div>\\n            \\n             <!--Navbar -->\\n            <div class=" col-sm-12">\\n                \\n                <nav class="navbar navbar-default inicioSesion">\\n                  <div class="container-fluid">\\n                    <!-- Brand and toggle get grouped for better mobile display -->\\n                    <div class="navbar-header">\\n                      <button type="button" class="navbar-toggle collapsed" data-toggle="collapse" data-target="#bs-example-navbar-collapse-1" aria-expanded="false">\\n                        <span class="sr-only">Toggle navigation</span>\\n                        <span class="icon-bar"></span>\\n                        <span class="icon-bar"></span>\\n                        <span class="icon-bar"></span>\\n                      </button>\\n                    </div>\\n\\n                    <!-- Collect the nav links, forms, and other content for toggling -->\\n                    <div class="collapse navbar-collapse" id="bs-example-navbar-collapse-1">\\n                      <ul class="nav navbar-nav navbar-right">\\n                          <li class="dropdown">\\n                              <a href="#" class="dropdown-toggle" data-toggle="dropdown" role="button" aria-haspopup="true" aria-expanded="false">Nombre de usuario <span class="caret"></span></a>\\n                              <ul class="dropdown-menu">\\n                                    <li id="userinfo"><a href="#"><span class="glyphicon glyphicon-user "></span> Mi perfil </a></li>\\n                                    <li id="enviar"><a href="#"><span class="glyphicon glyphicon-envelope"></span> Contactanos</a></li>\\n                                    <li role="separator" class="divider"></li>\\n                                    <li><a href="\', escape=False)\nresponse.write(URL(\'default/user/logout\')\'\')\nresponse.write(\'"><span class="glyphicon glyphicon-log-out"></span> Salir </a></li>\\n                              </ul>\\n                          </li>\\n                        </ul>\\n                    </div><!-- /.navbar-collapse -->\\n                  </div><!-- /.container-fluid -->\\n                </nav>\\n            </div><!--col12-->\\n        </div><!--row-->\\n            \\n    </div><!--container-->\\n\\n<body>\\n    <div  class="container">\\n         <!-- Information-->\\n        <div id="inicio" class="row">\\n            <div class="col-md-12">  \\n              <div class="row">\\n                <div class="col-md-3">\\n                    <!--Aspirantes-->\\n                    <h3> Aspirantes </h3>\\n                    <div class="row">\\n                    <ul class="nav nav-pills nav-stacked">\\n                    <li role="presentation"><a id="add">Agregar Manualmente </a></li>\\n                     <li role="presentation" ><a id="upload" href="#">Cargar archivo</a></li>\\n                      <li role="presentation"><a id="lookfor" href="#">Consultar</a></li>\\n                     <li role="presentation"><a id="edit" href="#">Modificar</a></li>\\n                      <li role="presentation"><a id="comp" href="#">Generar comprobante</a></li>\\n                    </ul>\\n                    </div>\\n                     <!--OTROS-->   \\n                    <h3> Otros </h3>\\n                    <div class="row">\\n                    <ul class="nav nav-pills nav-stacked">\\n                      <li role="presentation" class="active"><a id="principal" href="#">Inicio</a></li>\\n                     <li role="presentation" ><a id="news" href="#">Noticias</a></li>\\n                      <li role="presentation"><a class="perfil" href="#">Mi Perfil</a></li>\\n                     <li role="presentation"><a id="allow" href="#">Permisos</a></li>\\n                      <li role="presentation"><a id="contacto" href="#">Correo Masivo</a></li>\\n                      <li role="presentation"><a id="pass" href="#">Cambiar contrase\\xc3\\xb1a</a></li>\\n                      <li role="presentation"><a id="logOut" href="#">Salir</a></li>\\n                    </ul>\\n                        <br>\\n                  </div>\\n                </div>\\n                <div class="col-md-9">\\n                    <!-- INICIO -->\\n                    <div id="information">\\n                         <h1> Bienvenido al PIO </h1>\\n                        <br><br>\\n                        <p><strong>Coordinadores,</strong></p><br>\\n                        <p class="textCoor">\\n                            Bienvenido al Sistema PIO, para continuar en el proceso de carga de estudiantes es obligatorio llenar el siguiente formulario: <a class="perfil"><strong>Validar mis datos </strong></a></p>\\n                        <p class="textCoor"> \\n                            Recuerde imprimir su comprobante de carga de estudiantes con la opcion generar comprobante, luego de ingresar a sus alumnos al sistema.</p>\\n                        <div>\\n                            <h1 class="datos1">Nombre de usuario  </h1>\\n                            <h1 class="datos1"><a id="Editar" href="#"><span class="glyphicon glyphicon-edit green-icn"></span></a></h1>\\n                            <p class="datos">\\n                                <b>Nombre completo: </b> Maigualida Margarita De la Santisima Trinidad Perez Bustamante\\n                                <br>\\n                                <b>Cedula de identidad: </b> 1234567<br>\\n                                <b>Correo electronico: </b> fulanito@uncorreo.com <br>\\n                                <b>Telefono:</b>  (0123) 25689632\\n                                <br>\\n                            </p>\\n                        </div>\\n                    </div>\\n                    <!-- Noticias -->\\n                    <div id="noticias">\\n                        <h1>Noticias</h1>\\n                        <p class="textCoor">No hay noticias recientes</p>\\n                    \\n                    </div>\\n                    <!--Agregar Manual-->\\n                    <div id="agregar">\\n                        <h1>Agregar usuarios al Sistema PIO</h1><br>\\n                        <form method="get" >\\n                        <fieldset>\\n                            <legend>Tipo de usuario</legend>\\n                            <div class="form-group">\\n                                <label for="quien"  class="col-sm-8 control-label lineCentral">Seleccione el tipo de usuario a ingresar: </label><br>\\n                                   <br><input type="checkbox" class="" name="estudiantes" value="Estudiantes" >Estudiante<br>\\n                                    <input type="checkbox" class="" name="profesores" value="Profesores" >Profesor <br>\\n                                    <input type="checkbox" class="" name="coordinadorLiceo" value="CoorLiceo" >Coordinador Liceo <br>\\n                                    <input type="checkbox" class="" name="coorPio" value="coorPio" >Coordinador Pio<br>\\n                            </div>\\n                        </fieldset>\\n                        <fieldset>\\n                            <legend>Datos personales</legend>\\n                        <!-- Person ID -->\\n                            <label for="cedula">Cedula de identidad: </label>\\n                            <input type="text" id="cedula" name="ID" placeholder="Cedula de identidad" required> <br>\\n                        <!-- Person name -->\\n                            <label for="name">Nombres: </label>\\n                            <input type="text" id="nombre" name="Nombre" placeholder="Primer y segundo nombre" required > <br>\\n                        <!-- Person last name -->\\n                            <label for="apellido">Apellidos: </label>\\n                            <input type="text" id="apellido" name="Apellido" placeholder="Primer y segundo apellido"> <br>\\n                        \\n                        <!-- Person average-->\\n                            <label for="promedioEntero">Promedio:</label>\\n                            <input type="number" min="0" max="2" step="1" value="0" id="promedioEntero" class="text-right" name="PromedioEntero">\\n                            <strong> .</strong>\\n                            <input type="number" min="0" max="2" step="1" value="0" id="promedioDecimal" class="text-right" name="PromedioDecimal" required>\\n                            <br>\\n                        <!-- Person country -->\\n                            <label for="country" >Liceo de procedencia: </label>\\n                            <select class="select-style" name="cities" >\\n                                <option value="ccs" disable >Seleccione uno</option>\\n                                <option value="ccs">Programa de Cadena 2017</option>\\n                            </select>\\n                            <br>\\n                        <!--Person email -->\\n                            <label for="email">Email: </label>\\n                            <input type="email" id="email" name="Email" placeholder="Correo electronico"><br>\\n                        <!-- Person mobile -->\\n                            <label for="mobile">Telefono principal: </label>\\n                            <input type="tel" id="mobile" name="Mobile" placeholder="Telefono principal" max="11">\\n                            <br>\\n                        <!-- Person address-->\\n                            <label class="dir" for="direccion">Direccion:</label>\\n                            <div class="textarea1"><textarea id="direccion" > </textarea> </div>\\n                            <br>\\n                        </fieldset> <br>\\n                        \\n                        <div class="save text-center"><input type="submit" class="btn btn-primary save" value="Agregar"></div>\\n                      </form>\\n                    \\n                    </div>\\n                    <!--CARGAR ARCHIVO-->\\n                    <div id="cargar">\\n                    <h1>Cargar archivo</h1><br>\\n                        <p class="textCoor">Por favor selecione su archivo a cargar y presione enviar</p><br>\\n                        <label for="file">Archivo: </label> \\n\\t\\t\\t\\t        <input type="file" id="file" name="fileToUpload" require><br><br>\\n                         <div class="save text-center"><input type="submit" class="btn btn-primary save" value="Enviar"></div>\\n                    </div>\\n                    <!-- MI PERFIL -->\\n                    <div id="miPerfil" class="row">\\n                     <form method="get" >\\n                        \\n                        <fieldset>\\n                            <legend>Datos personales</legend>\\n                        <!-- Person ID -->\\n                            <label for="cedula">Cedula de identidad: </label>\\n                            <input type="text" id="cedula" name="ID" placeholder="Cedula de identidad" readonly="readonly"> <br>\\n                        <!-- Person name -->\\n                            <label for="name">Nombres: </label>\\n                            <input type="text" id="nombre" name="Nombre" placeholder="Primer y segundo nombre" required readonly="readonly"> <br>\\n                        <!-- Person last name -->\\n                            <label for="apellido">Apellidos: </label>\\n                            <input type="text" id="apellido" name="Apellido" placeholder="Primer y segundo apellido" readonly="readonly"> <br>\\n                        \\n                        <!-- Person gender -->\\n                            <label for="gender">Genero: </label>\\n                            <input type="radio" class="gender" name="gender" value="female">Femenino \\n                            <input type="radio" class="gender" name="gender" value="male" checked>Masculino <br>\\n                        <!-- Person age-->\\n                            <label for="age">Edad:</label>\\n                            <input type="number" min="0" max="150" step="1" value="18" id="age" name="age" required><br>\\n                        <!-- Person Birth-->\\n                            <label for="birthday">Fecha de nacimiento:</label>\\n                            <input type="date" id="birthday" name="birthday" required><br>\\n                        <!-- Person average-->\\n                            <label for="promedioEntero">Promedio:</label>\\n                            <input type="number" min="0" max="20" step="1" value="0" id="promedioEntero" class="text-right" name="PromedioEntero" readonly="readonly">\\n                            <strong> .</strong>\\n                            <input type="number" min="0" max="20" step="1" value="0" id="promedioDecimal" class="text-right" name="PromedioDecimal" readonly="readonly">\\n                            \\n                            <br>\\n                        <!-- Person country -->\\n                            <label for="country" >Liceo de procedencia: </label>\\n                            <select class="select-style" name="cities" >\\n                                <option value="ccs" disable >Seleccione uno</option>\\n                                <option value="ccs">Programa de Cadena 2017</option>\\n                            </select>\\n                        </fieldset> <br>\\n                        <fieldset>\\n                            <legend>Informacion de contacto</legend>\\n                        <!--Person email -->\\n                            <label for="email">Email: </label>\\n                            <input type="email" id="email" name="Email" placeholder="Correo electronico" required><br>\\n                        <!-- Person mobile -->\\n                            <label for="mobile">Telefono principal: </label>\\n                            <input type="tel" id="mobile" name="Mobile" placeholder="Telefono principal" require max="11">\\n                            <br>\\n                        <!-- Person mobile -->\\n                            <label for="secundario">Telefono secundario: </label>\\n                            <input type="tel" id="secundario" name="Mobile2" placeholder="Telefono secundario" require max="11">\\n                            <br>\\n                        <!-- Person address-->\\n                            <label class="dir" for="direccion">Direccion:</label>\\n                            <div class="textarea1"><textarea id="direccion" > </textarea> </div>\\n                            <br>\\n                        </fieldset> <br>\\n                        \\n                        <div class="save text-center"><input type="submit" class="btn btn-primary save" value="Guardar"></div>\\n                      </form>\\n                     </div>\\n                    <!-- CONSULTA -->\\n                    <div id="consultar" class="row">\\n                      <form method="get" >\\n                        <h1>Consultas </h1><br>\\n                        <p class="textCoor">Busqueda de todos los alumnos:</p>\\n                            <div class="form-group">\\n                                   <input type="checkbox" class="gender marg" name="todos" value="todos" checked>Todos<br>\\n                            </div>\\n                           <div class="buscar"><input type="submit" class="btn btn-primary" value="Consultar"></div>\\n                         <!-- institucionn -->\\n                            <p class="textCoor">Busqueda por:</p><br>\\n                            <div class="form-group">\\n                            <label for="institucion"  class="col-sm-2 control-label lineCentral">Institucion: </label>\\n                                <select class="selectStyle" name="institucion" required >\\n                                    <option value="" inactive >Seleccione una institucion</option>\\n                                    <option value="">Institucion</option>\\n                                </select>\\n                            </div>\\n                        <br>\\n                             <!-- Por profesor -->\\n                            \\n                            <div class="form-group">\\n                            <label for="profesor"  class="col-sm-2 control-label lineCentral">Profesor: </label>\\n                                <select class="selectStyle" name="profesor" required >\\n                                    <option value="" inactive >Seleccione un profesor</option>\\n                                    <option value="">Institucion</option>\\n                                </select>\\n                            </div>\\n                        <br>\\n                             <!-- Por cohorte -->\\n                                \\n                                <div class="form-group">\\n                                <label for="profesor"  class="col-sm-2 control-label lineCentral">Cohorte: </label>\\n                                    <select class="selectStyle" name="profesor" required >\\n                                        <option value="" inactive >Seleccione una cohorte</option>\\n                                        <option value="">Institucion</option>\\n                                    </select>\\n                                </div>\\n                            <br>\\n                                <!-- Por seccion -->\\n                                \\n                                <div class="form-group">\\n                                <label for="profesor"  class="col-sm-2 control-label lineCentral">Seccion: </label>\\n                                    <select class="selectStyle" name="profesor" required >\\n                                        <option value="" inactive >Seleccione una seccion</option>\\n                                        <option value="">Institucion</option>\\n                                    </select>\\n                                </div>\\n                            <br>\\n                             <!--Edad-->\\n                                    <div class="form-group">\\n                                    <label for="profesor"  class="col-sm-2 control-label lineCentral">Edad: </label>\\n                                        <select class="selectStyle" name="profesor" required >\\n                                            <option value="" inactive >Seleccione una edad</option>\\n                                            <option value="">Institucion</option>\\n                                        </select>\\n                                    </div>\\n                                <br>\\n                        <!--Genero--> \\n                                \\n                                <div class="form-group">\\n                                <label for="profesor"  class="col-sm-2 control-label lineCentral">Genero: </label>\\n                                   <input type="checkbox" class="gender marg" name="gender" value="female" >Femenino<br>\\n\\t\\t\\t\\t                    <input type="checkbox" class="gender marg" name="gender" value="male" >Masculino <br>\\n                                </div>\\n                            <br>\\n                        <!--NOtas-->\\n                            \\n                                <div class="form-group">\\n                                    <strong>Nota menor que:</strong>\\n                                    <input type="number" min="0" max="20" step="1" value="0" id="promedioEntero" class="text-right" name="PromedioEntero">\\n                                    <strong>  Nota mayor que: </strong>\\n                                    <input type="number" min="0" max="20" step="1" value="0" id="promedioDecimal" class="text-right" name="PromedioDecimal"><br>\\n                                </div>\\n                            <br>\\n                         <!--Fecha-->\\n                           \\n                                <div class="form-group">\\n                                    <strong>Fecha entre:</strong>\\n                                    <input type="date" id="fecha1" name="fecha" required>\\n                                    <strong> y : </strong>\\n                                    <input type="date" id="fecha2" name="fecha" required><br><br>\\n                                </div>\\n                            <br>\\n                           <div class="save text-center"><input type="submit" class="btn btn-primary save" value="Consultar"></div>\\n                        </form>\\n                    </div>\\n                    <!--MODIFICAR-->\\n                    <div id="modificar">\\n                        <h1>Modificar datos del estudiante</h1>\\n                    </div>\\n                    <!--REPORTE-->\\n                    <div id="reporte">\\n                        <h1>Generar comprobrante</h1>\\n                    </div>\\n                    <!--PERMISOS-->\\n                    <div id="permiso">\\n                        <h1>Permisos</h1><br>\\n                        <p class="textCoor">Ingrese la cedula de indentidad de la persona que le otorga permiso de ADMINISTRADOR</p>\\n                        <br>\\n                         <!-- Person ID -->\\n                            <label for="cedula">Cedula de identidad: </label>\\n                            <input type="text" id="id" name="ID" placeholder="Cedula de identidad"> <br><br>\\n                        <div class="save text-center"><input type="submit" class="btn btn-primary save" value="Permitir"></div>\\n                    </div>\\n                    <!-- CONTRASENA -->\\n                    <div id="cambioContra" class="row">\\n                        <h1>Cambiar contrase\\xc3\\xb1a</h1><br><br>\\n                    <form method="get">\\n                       <!-- Contrase;a actual -->\\n                            <label for="contrase\\xc3\\xb1a">Contrase\\xc3\\xb1a actual: </label>\\n                            <input type="password" id="contrasena" name="contrase\\xc3\\xb1a" placeholder="Contrase\\xc3\\xb1a actual" required> <br>\\n                        <!-- Contrase;a nueva -->\\n                            <label for="contrase\\xc3\\xb1a">Contrase\\xc3\\xb1a nueva: </label>\\n                            <input type="password" id="password" name="contrase\\xc3\\xb1a" placeholder="Contrase\\xc3\\xb1a nueva" required> <br>\\n                        <!-- Contrase;a nueva -->\\n                            <label for="contrase\\xc3\\xb1a">Confirmar contrase\\xc3\\xb1a: </label>\\n                            <input type="password" id="confirm_password" name="contrase\\xc3\\xb1a" placeholder="Contrase\\xc3\\xb1a nueva" required> <br><br>\\n                        <div class="save text-center"><input type="submit" class="btn btn-primary save" value="Guardar"></div>\\n                        </form>\\n                    </div>\\n                    <!-- Contactanos -->\\n                    <div id="enviarEmail" class="row">\\n                        <h1>Correos Masivos </h1>\\n                        <p class="textCoor marg">Seleccione a las personas que sera dirigido el correo electronico</p>\\n\\n                        <p class="textCoor marg "> Si presenta algun problema comunicarse con el servicio tecnico.</p>\\n                        <form role="form" method="post" >\\n                            <br><br>\\n                            <!-- institucionn -->\\n                            <div class="form-group">\\n                                <label for="quien"  class="col-sm-2 control-label lineCentral">Dirigido a: </label><br>\\n                                   <br><input type="checkbox" class="gender marg" name="estudiantes" value="Estudiantes" >Estudiantes<br>\\n                                    <input type="checkbox" class="gender marg" name="profesores" value="Profesores" >Profesores <br>\\n                                    <input type="checkbox" class="gender marg" name="coordinadorLiceo" value="CoorLiceo" >Coordinadores Liceo <br>\\n                                    <input type="checkbox" class="gender marg" name="coorPio" value="coorPio" >Coordinador Pio<br>\\n                            </div>\\n                        <br>\\n                            <!-- Asunto-->\\n                            <div class="form-group">\\n                                <label for="name" class="col-sm-4 control-label">Correo especifico:</label>\\n                                <br><br>\\n                                <div class="col-sm-10">\\n                                    <input type="email" class="form-control" id="email" name="email" placeholder="Ingrese correo destino" value="" required>\\n                                </div>\\n                            </div>\\n                            <br>\\n                           <br>\\n                            <!-- Asunto-->\\n                            <div class="form-group">\\n                                <label for="name" class="col-sm-2 control-label">Asunto</label>\\n                                <br><br>\\n                                <div class="col-sm-10">\\n                                    <input type="text" class="form-control" id="asunto" name="asunto" placeholder="Asunto" value="" required>\\n                                </div>\\n                            </div>\\n                           <br>\\n                            <!-- mensaje -->\\n                            <div class="form-group">\\n                                <br><br>\\n                                <label for="message" class="col-sm-2 control-label">Mensaje</label><br><br>\\n                                <div class="col-sm-10">\\n                                    <textarea class="form-control" rows="4" name="message" required></textarea>\\n                                </div>\\n                            </div>\\n                            \\n                            <div class="form-group">\\n                                <div class="col-sm-10 col-sm-offset-2">\\n                                    <br><br><div class="send">\\n                                    <input id="submit" name="submit" type="submit" value="Enviar" class="btn btn-primary"></div>\\n                                    <br><br>\\n                                    <br>\\n                                </div>\\n                            </div>\\n                        </form>\\n                    </div>\\n                    \\n                </div>\\n                </div><!--row-->\\n              </div><!--colmd12-->\\n                \\n            </div><!-- row -->\\n            \\n            \\n        </div><!-- col md 10-->\\n    </div><!-- container-->\\n   \\n\\n    <footer class="container-fluid footer">\\n        <div class="row">\\n            <p class="text-center minText">Universidad Simon Bolivar<br>Sartenejas, Baruta, Edo. Miranda - Apartado 89000 - Cable Unibolivar - Caracas Venezuela. Tel\\xc3\\xa9fono +58 0212-9063111.<br>\\nDise\\xc3\\xb1ada y desarrollada por Software for the World</p>\\n        </div>\\n    </footer>\\n\\n    <!-- jQuery (necessary for Bootstrap\\\'s JavaScript plugins) -->\\n     <script src="https://ajax.googleapis.com/ajax/libs/jquery/1.12.4/jquery.min.js"></script>\\n    <!-- Include all compiled plugins (below), or include individual files as needed -->\\n    <script src="js/bootstrap.min.js"></script>\\n    <!-- JQUERY-->\\n    <script>\\n        /*Comparacion de contrase;as*/\\n        var password = document.getElementById("password")\\n          , confirm_password = document.getElementById("confirm_password");\\n\\n        function validatePassword(){\\n          if(password.value != confirm_password.value) {\\n            confirm_password.setCustomValidity("Las contrase\\xc3\\xb1as no coinciden");\\n          } else {\\n            confirm_password.setCustomValidity(\\\'\\\');\\n          }\\n        }\\n\\n        password.onchange = validatePassword;\\n        confirm_password.onkeyup = validatePassword;\\n        \\n        \\n        /*Cambio de seleccion en el menu izquierdo*/\\n    $(".nav-stacked a").on("click", function(){\\n       $(".nav").find(".active").removeClass("active");\\n       $(this).parent().addClass("active");\\n    });\\n        \\n    $(document).ready(function(){\\n       \\n    $(".glyphicon, #userinfo" ).click(function(){\\n        $("#information, #agregar,#modificar").hide();\\n        $("#enviarEmail, #cargar,#permiso").hide();\\n        $("#cambioContra, #reporte").hide();\\n        $("#noticias, #consultar").hide();\\n        $("#miPerfil").show();\\n        $(".nav").find(".active").removeClass("active");\\n        $(".perfil").parent().addClass("active");\\n    });\\n   \\n    $(".perfil").click(function(){\\n        $("#information, #agregar, #cargar").hide();\\n        $("#enviarEmail,#permiso").hide();\\n        $("#noticias, #reporte").hide();\\n        $("#cambioContra, #consultar").hide();\\n        $("#miPerfil").show();\\n         $(".nav").find(".active").removeClass("active");\\n        $(".perfil").parent().addClass("active");\\n    });\\n    $("#principal").click(function(){\\n        $("#information").show();\\n        $("#noticias, #agregar, #cargar").hide();\\n        $("#enviarEmail,#modificar").hide();\\n        $("#cambioContra, #reporte,#permiso").hide();\\n        $("#miPerfil, #consultar").hide();\\n    });\\n    $("#pass").click(function(){\\n        $("#information, #agregar, #cargar").hide();\\n        $("#enviarEmail,#modificar").hide();\\n        $("#noticias, #reporte,#permiso").hide();\\n        $("#cambioContra").show();\\n        $("#miPerfil, #consultar").hide();\\n    });\\n     $("#comp").click(function(){\\n        $("#information, #agregar, #cargar").hide();\\n        $("#enviarEmail,#permiso").hide();\\n        $("#noticias,#modificar").hide();\\n         $("#reporte").show();\\n        $("#cambioContra").hide();\\n        $("#miPerfil, #consultar").hide();\\n    });\\n    $("#upload").click(function(){\\n        $("#information, #agregar, #cargar").hide();\\n        $("#enviarEmail,#permiso").hide();\\n        $("#noticias,#modificar").hide();\\n        $("#cambioContra, #reporte").hide();\\n        $("#cargar").show();\\n        $("#miPerfil, #consultar").hide();\\n    });\\n    $("#lookfor").click(function(){\\n        $("#information, #agregar, #cargar").hide();\\n        $("#enviarEmail,#modificar").hide();\\n        $("#noticias,#permiso").hide();\\n        $("#cambioContra").hide();\\n        $("#consultar").show();\\n        $("#miPerfil, #reporte").hide();\\n    });\\n    $("#add").click(function(){\\n        $("#information, #cargar").hide();\\n        $("#enviarEmail,#permiso").hide();\\n        $("#noticias, #consultar").hide();\\n        $("#agregar").show();\\n        $("#cambioContra,#modificar").hide();\\n        $("#miPerfil, #reporte").hide();\\n    });\\n    $("#edit").click(function(){\\n        $("#information, #cargar").hide();\\n        $("#enviarEmail,#permiso").hide();\\n        $("#noticias, #consultar").hide();\\n        $("#modificar").show();\\n        $("#cambioContra,#agregar").hide();\\n        $("#miPerfil, #reporte").hide();\\n    });\\n    $("#news").click(function(){\\n        $("#information, #agregar, #cargar, #consultar,#permiso").hide();\\n        $("#enviarEmail,#modificar").hide();\\n        $("#noticias").show();\\n        $("#cambioContra").hide();\\n        $("#miPerfil, #reporte").hide();\\n    });\\n    $("#allow").click(function(){\\n        $("#information, #agregar, #cargar, #consultar,#permiso").hide();\\n        $("#enviarEmail,#modificar").hide();\\n        $("#noticias").hide();\\n        $("#permiso").show();\\n        $("#cambioContra").hide();\\n        $("#miPerfil, #reporte").hide();\\n    });\\n    $("#contacto, #enviar").click(function(){\\n        $("#information, #agregar, #cargar").hide();\\n        $("#enviarEmail").show();\\n        $("#cambioContra, #consultar").hide();\\n        $("#noticias, #reporte,#permiso").hide();\\n        $("#miPerfil,#modificar").hide();\\n        $(".nav").find(".active").removeClass("active");\\n        $("#contacto").parent().addClass("active");\\n    });\\n});\\n    </script>\\n\\n</body>\\n\\n</html>\', escape=False)'
p7
sS'snapshot'
p8
(dp9
S'exception'
p10
(dp11
S'__getslice__'
p12
S"<method-wrapper '__getslice__' of exceptions.SyntaxError object>"
p13
sS'text'
p14
S'"response.write(URL(\'default/user/logout\')\'\')\\n"'
p15
sS'__str__'
p16
S"<method-wrapper '__str__' of exceptions.SyntaxError object>"
p17
sS'__reduce__'
p18
S'<built-in method __reduce__ of exceptions.SyntaxError object>'
p19
sS'__dict__'
p20
S'{}'
p21
sS'__sizeof__'
p22
S'<built-in method __sizeof__ of exceptions.SyntaxError object>'
p23
sS'__init__'
p24
S"<method-wrapper '__init__' of exceptions.SyntaxError object>"
p25
sS'__setattr__'
p26
S"<method-wrapper '__setattr__' of exceptions.SyntaxError object>"
p27
sS'__reduce_ex__'
p28
S'<built-in method __reduce_ex__ of exceptions.SyntaxError object>'
p29
sS'__new__'
p30
S'<built-in method __new__ of type object>'
p31
sS'__format__'
p32
S'<built-in method __format__ of exceptions.SyntaxError object>'
p33
sS'__class__'
p34
S"<type 'exceptions.SyntaxError'>"
p35
sS'filename'
p36
S"r'C:\\Users\\Rafael Cisneros\\Desktop\\web2py\\web2py\\applications\\SisPIOrafael2\\views\\default/admin.html'"
p37
sS'lineno'
p38
S'2'
sS'msg'
p39
S"'invalid syntax'"
p40
sS'__doc__'
p41
S"'Invalid syntax.'"
p42
sS'__getitem__'
p43
S"<method-wrapper '__getitem__' of exceptions.SyntaxError object>"
p44
sS'__setstate__'
p45
S'<built-in method __setstate__ of exceptions.SyntaxError object>'
p46
sS'__getattribute__'
p47
S"<method-wrapper '__getattribute__' of exceptions.SyntaxError object>"
p48
sS'print_file_and_line'
p49
S'None'
p50
sS'args'
p51
S'(\'invalid syntax\', (r\'C:\\Users\\Rafael Cisneros\\Desktop\\web2py\\web2py\\applications\\SisPIOrafael2\\views\\default/admin.html\', 2, 43, "response.write(URL(\'default/user/logout\')\'\')\\n"))'
p52
sS'__subclasshook__'
p53
S'<built-in method __subclasshook__ of type object>'
p54
sS'offset'
p55
S'43'
p56
sS'__unicode__'
p57
S'<built-in method __unicode__ of exceptions.SyntaxError object>'
p58
sS'__delattr__'
p59
S"<method-wrapper '__delattr__' of exceptions.SyntaxError object>"
p60
sS'__repr__'
p61
S"<method-wrapper '__repr__' of exceptions.SyntaxError object>"
p62
sS'__hash__'
p63
S"<method-wrapper '__hash__' of exceptions.SyntaxError object>"
p64
ssS'evalue'
p65
S'invalid syntax (default/admin.html, line 2)'
p66
sS'request'
p67
cgluon.html
XML_unpickle
p68
(S's\x1f^\x00\x00<div><table><tr><td style="font-weight:bold;vertical-align:top;">ajax</td><td style="vertical-align:top;">:</td><td><div>False</div></td></tr><tr><td style="font-weight:bold;vertical-align:top;">application</td><td style="vertical-align:top;">:</td><td><div>SisPIOrafael2</div></td></tr><tr><td style="font-weight:bold;vertical-align:top;">args</td><td style="vertical-align:top;">:</td><td><div><table></table></div></td></tr><tr><td style="font-weight:bold;vertical-align:top;">cid</td><td style="vertical-align:top;">:</td><td><div>None</div></td></tr><tr><td style="font-weight:bold;vertical-align:top;">client</td><td style="vertical-align:top;">:</td><td><div>127.0.0.1</div></td></tr><tr><td style="font-weight:bold;vertical-align:top;">controller</td><td style="vertical-align:top;">:</td><td><div>default</div></td></tr><tr><td style="font-weight:bold;vertical-align:top;">cookies</td><td style="vertical-align:top;">:</td><td><div><table><tr><td style="font-weight:bold;vertical-align:top;">session_id_admin</td><td style="vertical-align:top;">:</td><td><div>127.0.0.1-418f6bd5-d7b4-4957-b62e-09c3594f6452<table><tr><td style="font-weight:bold;vertical-align:top;">comment</td><td style="vertical-align:top;">:</td><td><div></div></td></tr><tr><td style="font-weight:bold;vertical-align:top;">domain</td><td style="vertical-align:top;">:</td><td><div></div></td></tr><tr><td style="font-weight:bold;vertical-align:top;">expires</td><td style="vertical-align:top;">:</td><td><div></div></td></tr><tr><td style="font-weight:bold;vertical-align:top;">httponly</td><td style="vertical-align:top;">:</td><td><div></div></td></tr><tr><td style="font-weight:bold;vertical-align:top;">max-age</td><td style="vertical-align:top;">:</td><td><div></div></td></tr><tr><td style="font-weight:bold;vertical-align:top;">path</td><td style="vertical-align:top;">:</td><td><div></div></td></tr><tr><td style="font-weight:bold;vertical-align:top;">secure</td><td style="vertical-align:top;">:</td><td><div></div></td></tr><tr><td style="font-weight:bold;vertical-align:top;">version</td><td style="vertical-align:top;">:</td><td><div></div></td></tr></table></div></td></tr><tr><td style="font-weight:bold;vertical-align:top;">session_id_sispiorafael2</td><td style="vertical-align:top;">:</td><td><div>127.0.0.1-fe9af3ee-0c67-42d0-8062-f58c520aa293<table><tr><td style="font-weight:bold;vertical-align:top;">comment</td><td style="vertical-align:top;">:</td><td><div></div></td></tr><tr><td style="font-weight:bold;vertical-align:top;">domain</td><td style="vertical-align:top;">:</td><td><div></div></td></tr><tr><td style="font-weight:bold;vertical-align:top;">expires</td><td style="vertical-align:top;">:</td><td><div></div></td></tr><tr><td style="font-weight:bold;vertical-align:top;">httponly</td><td style="vertical-align:top;">:</td><td><div></div></td></tr><tr><td style="font-weight:bold;vertical-align:top;">max-age</td><td style="vertical-align:top;">:</td><td><div></div></td></tr><tr><td style="font-weight:bold;vertical-align:top;">path</td><td style="vertical-align:top;">:</td><td><div></div></td></tr><tr><td style="font-weight:bold;vertical-align:top;">secure</td><td style="vertical-align:top;">:</td><td><div></div></td></tr><tr><td style="font-weight:bold;vertical-align:top;">version</td><td style="vertical-align:top;">:</td><td><div></div></td></tr></table></div></td></tr><tr><td style="font-weight:bold;vertical-align:top;">session_id_welcome</td><td style="vertical-align:top;">:</td><td><div>127.0.0.1-27148e72-a687-4b3f-b23a-10cf790e16f6<table><tr><td style="font-weight:bold;vertical-align:top;">comment</td><td style="vertical-align:top;">:</td><td><div></div></td></tr><tr><td style="font-weight:bold;vertical-align:top;">domain</td><td style="vertical-align:top;">:</td><td><div></div></td></tr><tr><td style="font-weight:bold;vertical-align:top;">expires</td><td style="vertical-align:top;">:</td><td><div></div></td></tr><tr><td style="font-weight:bold;vertical-align:top;">httponly</td><td style="vertical-align:top;">:</td><td><div></div></td></tr><tr><td style="font-weight:bold;vertical-align:top;">max-age</td><td style="vertical-align:top;">:</td><td><div></div></td></tr><tr><td style="font-weight:bold;vertical-align:top;">path</td><td style="vertical-align:top;">:</td><td><div></div></td></tr><tr><td style="font-weight:bold;vertical-align:top;">secure</td><td style="vertical-align:top;">:</td><td><div></div></td></tr><tr><td style="font-weight:bold;vertical-align:top;">version</td><td style="vertical-align:top;">:</td><td><div></div></td></tr></table></div></td></tr></table></div></td></tr><tr><td style="font-weight:bold;vertical-align:top;">env</td><td style="vertical-align:top;">:</td><td><div><table><tr><td style="font-weight:bold;vertical-align:top;">HTTP_ACCEPT</td><td style="vertical-align:top;">:</td><td><div>text/html,application/xhtml+xml,application/xml;q=0.9,image/webp,image/apng,*/*;q=0.8</div></td></tr><tr><td style="font-weight:bold;vertical-align:top;">HTTP_ACCEPT_ENCODING</td><td style="vertical-align:top;">:</td><td><div>gzip, deflate, br</div></td></tr><tr><td style="font-weight:bold;vertical-align:top;">HTTP_ACCEPT_LANGUAGE</td><td style="vertical-align:top;">:</td><td><div>es-419,es;q=0.8</div></td></tr><tr><td style="font-weight:bold;vertical-align:top;">HTTP_CACHE_CONTROL</td><td style="vertical-align:top;">:</td><td><div>max-age=0</div></td></tr><tr><td style="font-weight:bold;vertical-align:top;">HTTP_CONNECTION</td><td style="vertical-align:top;">:</td><td><div>keep-alive</div></td></tr><tr><td style="font-weight:bold;vertical-align:top;">HTTP_COOKIE</td><td style="vertical-align:top;">:</td><td><div>session_id_welcome=127.0.0.1-27148e72-a687-4b3f-b23a-10cf790e16f6; session_id_admin=127.0.0.1-418f6bd5-d7b4-4957-b62e-09c3594f6452; session_id_sispiorafael2=127.0.0.1-fe9af3ee-0c67-42d0-8062-f58c520aa293</div></td></tr><tr><td style="font-weight:bold;vertical-align:top;">HTTP_HOST</td><td style="vertical-align:top;">:</td><td><div>127.0.0.1:8000</div></td></tr><tr><td style="font-weight:bold;vertical-align:top;">HTTP_UPGRADE_INSECURE_REQUESTS</td><td style="vertical-align:top;">:</td><td><div>1</div></td></tr><tr><td style="font-weight:bold;vertical-align:top;">HTTP_USER_AGENT</td><td style="vertical-align:top;">:</td><td><div>Mozilla/5.0 (Windows NT 10.0; Win64; x64) AppleWebKit/537.36 (KHTML, like Gecko) Chrome/61.0.3163.100 Safari/537.36</div></td></tr><tr><td style="font-weight:bold;vertical-align:top;">PATH_INFO</td><td style="vertical-align:top;">:</td><td><div>/SisPIOrafael2/default/admin</div></td></tr><tr><td style="font-weight:bold;vertical-align:top;">QUERY_STRING</td><td style="vertical-align:top;">:</td><td><div></div></td></tr><tr><td style="font-weight:bold;vertical-align:top;">REMOTE_ADDR</td><td style="vertical-align:top;">:</td><td><div>127.0.0.1</div></td></tr><tr><td style="font-weight:bold;vertical-align:top;">REMOTE_PORT</td><td style="vertical-align:top;">:</td><td><div>62281</div></td></tr><tr><td style="font-weight:bold;vertical-align:top;">REQUEST_METHOD</td><td style="vertical-align:top;">:</td><td><div>GET</div></td></tr><tr><td style="font-weight:bold;vertical-align:top;">SCRIPT_NAME</td><td style="vertical-align:top;">:</td><td><div></div></td></tr><tr><td style="font-weight:bold;vertical-align:top;">SERVER_NAME</td><td style="vertical-align:top;">:</td><td><div>Rafa-PC</div></td></tr><tr><td style="font-weight:bold;vertical-align:top;">SERVER_PORT</td><td style="vertical-align:top;">:</td><td><div>8000</div></td></tr><tr><td style="font-weight:bold;vertical-align:top;">SERVER_PROTOCOL</td><td style="vertical-align:top;">:</td><td><div>HTTP/1.1</div></td></tr><tr><td style="font-weight:bold;vertical-align:top;">SERVER_SOFTWARE</td><td style="vertical-align:top;">:</td><td><div>Rocket 1.2.6</div></td></tr><tr><td style="font-weight:bold;vertical-align:top;">app_folders</td><td style="vertical-align:top;">:</td><td><div>set([&#x27;C:\\\\Users\\\\Rafael Cisneros\\\\Desktop\\\\web2py\\\\web2py\\\\applications\\\\SisPIOrafael2\\\\&#x27;, &#x27;C:\\\\Users\\\\Rafael Cisneros\\\\Desktop\\\\web2py\\\\web2py\\\\applications\\\\admin\\\\&#x27;, &#x27;C:\\\\Users\\\\Rafael Cisneros\\\\Desktop\\\\web2py\\\\web2py\\\\applications\\\\welcome\\\\&#x27;])</div></td></tr><tr><td style="font-weight:bold;vertical-align:top;">applications_parent</td><td style="vertical-align:top;">:</td><td><div>C:\\Users\\Rafael Cisneros\\Desktop\\web2py\\web2py</div></td></tr><tr><td style="font-weight:bold;vertical-align:top;">cmd_args</td><td style="vertical-align:top;">:</td><td><div><table></table></div></td></tr><tr><td style="font-weight:bold;vertical-align:top;">cmd_options</td><td style="vertical-align:top;">:</td><td><div>&lt;Values at 0x2ffcee0: {&#x27;verbose&#x27;: False, &#x27;ip&#x27;: &#x27;127.0.0.1&#x27;, &#x27;debuglevel&#x27;: 30, &#x27;with_scheduler&#x27;: False, &#x27;shutdown_timeout&#x27;: 5, &#x27;taskbar&#x27;: False, &#x27;with_coverage&#x27;: False, &#x27;pid_filename&#x27;: &#x27;httpserver.pid&#x27;, &#x27;maxthreads&#x27;: None, &#x27;softcron&#x27;: False, &#x27;server_name&#x27;: &#x27;Rafa-PC&#x27;, &#x27;bpython&#x27;: False, &#x27;nogui&#x27;: False, &#x27;port&#x27;: 8000, &#x27;print_errors&#x27;: False, &#x27;extcron&#x27;: False, &#x27;runcron&#x27;: False, &#x27;run_system_tests&#x27;: False, &#x27;test&#x27;: None, &#x27;folder&#x27;: &#x27;C:\\\\Users\\\\Rafael Cisneros\\\\Desktop\\\\web2py\\\\web2py&#x27;, &#x27;config&#x27;: &#x27;&#x27;, &#x27;minthreads&#x27;: None, &#x27;shell&#x27;: None, &#x27;run&#x27;: &#x27;&#x27;, &#x27;log_filename&#x27;: &#x27;httpserver.log&#x27;, &#x27;profiler_dir&#x27;: None, &#x27;args&#x27;: [&#x27;&#x27;], &#x27;socket_timeout&#x27;: 5, &#x27;ssl_ca_certificate&#x27;: None, &#x27;scheduler&#x27;: None, &#x27;interfaces&#x27;: None, &#x27;ssl_private_key&#x27;: &#x27;&#x27;, &#x27;gae&#x27;: None, &#x27;password&#x27;: &#x27;******&#x27;, &#x27;request_queue_size&#x27;: 5, &#x27;ssl_certificate&#x27;: &#x27;&#x27;, &#x27;cronjob&#x27;: False, &#x27;numthreads&#x27;: None, &#x27;quiet&#x27;: False, &#x27;import_models&#x27;: False, &#x27;timeout&#x27;: 10, &#x27;plain&#x27;: False, &#x27;nobanner&#x27;: False}&gt;</div></td></tr><tr><td style="font-weight:bold;vertical-align:top;">db_sessions</td><td style="vertical-align:top;">:</td><td><div>set([])</div></td></tr><tr><td style="font-weight:bold;vertical-align:top;">debugging</td><td style="vertical-align:top;">:</td><td><div>True</div></td></tr><tr><td style="font-weight:bold;vertical-align:top;">gluon_parent</td><td style="vertical-align:top;">:</td><td><div>C:\\Users\\Rafael Cisneros\\Desktop\\web2py\\web2py</div></td></tr><tr><td style="font-weight:bold;vertical-align:top;">http_accept</td><td style="vertical-align:top;">:</td><td><div>text/html,application/xhtml+xml,application/xml;q=0.9,image/webp,image/apng,*/*;q=0.8</div></td></tr><tr><td style="font-weight:bold;vertical-align:top;">http_accept_encoding</td><td style="vertical-align:top;">:</td><td><div>gzip, deflate, br</div></td></tr><tr><td style="font-weight:bold;vertical-align:top;">http_accept_language</td><td style="vertical-align:top;">:</td><td><div>es-419,es;q=0.8</div></td></tr><tr><td style="font-weight:bold;vertical-align:top;">http_cache_control</td><td style="vertical-align:top;">:</td><td><div>max-age=0</div></td></tr><tr><td style="font-weight:bold;vertical-align:top;">http_connection</td><td style="vertical-align:top;">:</td><td><div>keep-alive</div></td></tr><tr><td style="font-weight:bold;vertical-align:top;">http_cookie</td><td style="vertical-align:top;">:</td><td><div>session_id_welcome=127.0.0.1-27148e72-a687-4b3f-b23a-10cf790e16f6; session_id_admin=127.0.0.1-418f6bd5-d7b4-4957-b62e-09c3594f6452; session_id_sispiorafael2=127.0.0.1-fe9af3ee-0c67-42d0-8062-f58c520aa293</div></td></tr><tr><td style="font-weight:bold;vertical-align:top;">http_host</td><td style="vertical-align:top;">:</td><td><div>127.0.0.1:8000</div></td></tr><tr><td style="font-weight:bold;vertical-align:top;">http_upgrade_insecure_requests</td><td style="vertical-align:top;">:</td><td><div>1</div></td></tr><tr><td style="font-weight:bold;vertical-align:top;">http_user_agent</td><td style="vertical-align:top;">:</td><td><div>Mozilla/5.0 (Windows NT 10.0; Win64; x64) AppleWebKit/537.36 (KHTML, like Gecko) Chrome/61.0.3163.100 Safari/537.36</div></td></tr><tr><td style="font-weight:bold;vertical-align:top;">is_jython</td><td style="vertical-align:top;">:</td><td><div>False</div></td></tr><tr><td style="font-weight:bold;vertical-align:top;">is_pypy</td><td style="vertical-align:top;">:</td><td><div>False</div></td></tr><tr><td style="font-weight:bold;vertical-align:top;">is_source</td><td style="vertical-align:top;">:</td><td><div>False</div></td></tr><tr><td style="font-weight:bold;vertical-align:top;">local_hosts</td><td style="vertical-align:top;">:</td><td><div><table><tr><td><div>Rafa-PC</div></td></tr><tr><td><div>fe80::287e:2186:3f57:ff9a%5</div></td></tr><tr><td><div>2001:0:5ef5:79fd:287e:2186:3f57:ff9a</div></td></tr><tr><td><div>::ffff:127.0.0.1</div></td></tr><tr><td><div>::1</div></td></tr><tr><td><div>192.168.0.101</div></td></tr><tr><td><div>fe80::4018:b4d4:ee94:6775%15</div></td></tr><tr><td><div>127.0.0.1</div></td></tr></table></div></td></tr><tr><td style="font-weight:bold;vertical-align:top;">path_info</td><td style="vertical-align:top;">:</td><td><div>/SisPIOrafael2/default/admin</div></td></tr><tr><td style="font-weight:bold;vertical-align:top;">query_string</td><td style="vertical-align:top;">:</td><td><div></div></td></tr><tr><td style="font-weight:bold;vertical-align:top;">remote_addr</td><td style="vertical-align:top;">:</td><td><div>127.0.0.1</div></td></tr><tr><td style="font-weight:bold;vertical-align:top;">remote_port</td><td style="vertical-align:top;">:</td><td><div>62281</div></td></tr><tr><td style="font-weight:bold;vertical-align:top;">request_method</td><td style="vertical-align:top;">:</td><td><div>GET</div></td></tr><tr><td style="font-weight:bold;vertical-align:top;">request_uri</td><td style="vertical-align:top;">:</td><td><div>/SisPIOrafael2/default/admin</div></td></tr><tr><td style="font-weight:bold;vertical-align:top;">script_name</td><td style="vertical-align:top;">:</td><td><div></div></td></tr><tr><td style="font-weight:bold;vertical-align:top;">server_name</td><td style="vertical-align:top;">:</td><td><div>Rafa-PC</div></td></tr><tr><td style="font-weight:bold;vertical-align:top;">server_port</td><td style="vertical-align:top;">:</td><td><div>8000</div></td></tr><tr><td style="font-weight:bold;vertical-align:top;">server_protocol</td><td style="vertical-align:top;">:</td><td><div>HTTP/1.1</div></td></tr><tr><td style="font-weight:bold;vertical-align:top;">server_software</td><td style="vertical-align:top;">:</td><td><div>Rocket 1.2.6</div></td></tr><tr><td style="font-weight:bold;vertical-align:top;">web2py_path</td><td style="vertical-align:top;">:</td><td><div>C:\\Users\\Rafael Cisneros\\Desktop\\web2py\\web2py</div></td></tr><tr><td style="font-weight:bold;vertical-align:top;">web2py_version</td><td style="vertical-align:top;">:</td><td><div>2.14.6-stable+timestamp.2016.05.10.00.21.47</div></td></tr><tr><td style="font-weight:bold;vertical-align:top;">wsgi.errors</td><td style="vertical-align:top;">:</td><td><div>&lt;open file &#x27;&lt;stderr&gt;&#x27;, mode &#x27;w&#x27; at 0x0211D0D0&gt;</div></td></tr><tr><td style="font-weight:bold;vertical-align:top;">wsgi.file_wrapper</td><td style="vertical-align:top;">:</td><td><div>&lt;class wsgiref.util.FileWrapper at 0x030D3068&gt;</div></td></tr><tr><td style="font-weight:bold;vertical-align:top;">wsgi.input</td><td style="vertical-align:top;">:</td><td><div>&lt;socket._fileobject object at 0x03C41BB0&gt;</div></td></tr><tr><td style="font-weight:bold;vertical-align:top;">wsgi.multiprocess</td><td style="vertical-align:top;">:</td><td><div>False</div></td></tr><tr><td style="font-weight:bold;vertical-align:top;">wsgi.multithread</td><td style="vertical-align:top;">:</td><td><div>True</div></td></tr><tr><td style="font-weight:bold;vertical-align:top;">wsgi.run_once</td><td style="vertical-align:top;">:</td><td><div>False</div></td></tr><tr><td style="font-weight:bold;vertical-align:top;">wsgi.url_scheme</td><td style="vertical-align:top;">:</td><td><div>http</div></td></tr><tr><td style="font-weight:bold;vertical-align:top;">wsgi.version</td><td style="vertical-align:top;">:</td><td><div><table><tr><td><div>1</div></td></tr><tr><td><div>0</div></td></tr></table></div></td></tr><tr><td style="font-weight:bold;vertical-align:top;">wsgi_errors</td><td style="vertical-align:top;">:</td><td><div>&lt;open file &#x27;&lt;stderr&gt;&#x27;, mode &#x27;w&#x27; at 0x0211D0D0&gt;</div></td></tr><tr><td style="font-weight:bold;vertical-align:top;">wsgi_file_wrapper</td><td style="vertical-align:top;">:</td><td><div>&lt;class wsgiref.util.FileWrapper at 0x030D3068&gt;</div></td></tr><tr><td style="font-weight:bold;vertical-align:top;">wsgi_input</td><td style="vertical-align:top;">:</td><td><div>&lt;socket._fileobject object at 0x03C41BB0&gt;</div></td></tr><tr><td style="font-weight:bold;vertical-align:top;">wsgi_multiprocess</td><td style="vertical-align:top;">:</td><td><div>False</div></td></tr><tr><td style="font-weight:bold;vertical-align:top;">wsgi_multithread</td><td style="vertical-align:top;">:</td><td><div>True</div></td></tr><tr><td style="font-weight:bold;vertical-align:top;">wsgi_run_once</td><td style="vertical-align:top;">:</td><td><div>False</div></td></tr><tr><td style="font-weight:bold;vertical-align:top;">wsgi_url_scheme</td><td style="vertical-align:top;">:</td><td><div>http</div></td></tr><tr><td style="font-weight:bold;vertical-align:top;">wsgi_version</td><td style="vertical-align:top;">:</td><td><div><table><tr><td><div>1</div></td></tr><tr><td><div>0</div></td></tr></table></div></td></tr></table></div></td></tr><tr><td style="font-weight:bold;vertical-align:top;">extension</td><td style="vertical-align:top;">:</td><td><div>html</div></td></tr><tr><td style="font-weight:bold;vertical-align:top;">folder</td><td style="vertical-align:top;">:</td><td><div>C:\\Users\\Rafael Cisneros\\Desktop\\web2py\\web2py\\applications\\SisPIOrafael2\\</div></td></tr><tr><td style="font-weight:bold;vertical-align:top;">function</td><td style="vertical-align:top;">:</td><td><div>admin</div></td></tr><tr><td style="font-weight:bold;vertical-align:top;">global_settings</td><td style="vertical-align:top;">:</td><td><div><table><tr><td style="font-weight:bold;vertical-align:top;">app_folders</td><td style="vertical-align:top;">:</td><td><div>set([&#x27;C:\\\\Users\\\\Rafael Cisneros\\\\Desktop\\\\web2py\\\\web2py\\\\applications\\\\SisPIOrafael2\\\\&#x27;, &#x27;C:\\\\Users\\\\Rafael Cisneros\\\\Desktop\\\\web2py\\\\web2py\\\\applications\\\\admin\\\\&#x27;, &#x27;C:\\\\Users\\\\Rafael Cisneros\\\\Desktop\\\\web2py\\\\web2py\\\\applications\\\\welcome\\\\&#x27;])</div></td></tr><tr><td style="font-weight:bold;vertical-align:top;">applications_parent</td><td style="vertical-align:top;">:</td><td><div>C:\\Users\\Rafael Cisneros\\Desktop\\web2py\\web2py</div></td></tr><tr><td style="font-weight:bold;vertical-align:top;">cmd_args</td><td style="vertical-align:top;">:</td><td><div><table></table></div></td></tr><tr><td style="font-weight:bold;vertical-align:top;">cmd_options</td><td style="vertical-align:top;">:</td><td><div>&lt;Values at 0x2ffcee0: {&#x27;verbose&#x27;: False, &#x27;ip&#x27;: &#x27;127.0.0.1&#x27;, &#x27;debuglevel&#x27;: 30, &#x27;with_scheduler&#x27;: False, &#x27;shutdown_timeout&#x27;: 5, &#x27;taskbar&#x27;: False, &#x27;with_coverage&#x27;: False, &#x27;pid_filename&#x27;: &#x27;httpserver.pid&#x27;, &#x27;maxthreads&#x27;: None, &#x27;softcron&#x27;: False, &#x27;server_name&#x27;: &#x27;Rafa-PC&#x27;, &#x27;bpython&#x27;: False, &#x27;nogui&#x27;: False, &#x27;port&#x27;: 8000, &#x27;print_errors&#x27;: False, &#x27;extcron&#x27;: False, &#x27;runcron&#x27;: False, &#x27;run_system_tests&#x27;: False, &#x27;test&#x27;: None, &#x27;folder&#x27;: &#x27;C:\\\\Users\\\\Rafael Cisneros\\\\Desktop\\\\web2py\\\\web2py&#x27;, &#x27;config&#x27;: &#x27;&#x27;, &#x27;minthreads&#x27;: None, &#x27;shell&#x27;: None, &#x27;run&#x27;: &#x27;&#x27;, &#x27;log_filename&#x27;: &#x27;httpserver.log&#x27;, &#x27;profiler_dir&#x27;: None, &#x27;args&#x27;: [&#x27;&#x27;], &#x27;socket_timeout&#x27;: 5, &#x27;ssl_ca_certificate&#x27;: None, &#x27;scheduler&#x27;: None, &#x27;interfaces&#x27;: None, &#x27;ssl_private_key&#x27;: &#x27;&#x27;, &#x27;gae&#x27;: None, &#x27;password&#x27;: &#x27;******&#x27;, &#x27;request_queue_size&#x27;: 5, &#x27;ssl_certificate&#x27;: &#x27;&#x27;, &#x27;cronjob&#x27;: False, &#x27;numthreads&#x27;: None, &#x27;quiet&#x27;: False, &#x27;import_models&#x27;: False, &#x27;timeout&#x27;: 10, &#x27;plain&#x27;: False, &#x27;nobanner&#x27;: False}&gt;</div></td></tr><tr><td style="font-weight:bold;vertical-align:top;">db_sessions</td><td style="vertical-align:top;">:</td><td><div>set([])</div></td></tr><tr><td style="font-weight:bold;vertical-align:top;">debugging</td><td style="vertical-align:top;">:</td><td><div>True</div></td></tr><tr><td style="font-weight:bold;vertical-align:top;">gluon_parent</td><td style="vertical-align:top;">:</td><td><div>C:\\Users\\Rafael Cisneros\\Desktop\\web2py\\web2py</div></td></tr><tr><td style="font-weight:bold;vertical-align:top;">is_jython</td><td style="vertical-align:top;">:</td><td><div>False</div></td></tr><tr><td style="font-weight:bold;vertical-align:top;">is_pypy</td><td style="vertical-align:top;">:</td><td><div>False</div></td></tr><tr><td style="font-weight:bold;vertical-align:top;">is_source</td><td style="vertical-align:top;">:</td><td><div>False</div></td></tr><tr><td style="font-weight:bold;vertical-align:top;">local_hosts</td><td style="vertical-align:top;">:</td><td><div><table><tr><td><div>Rafa-PC</div></td></tr><tr><td><div>fe80::287e:2186:3f57:ff9a%5</div></td></tr><tr><td><div>2001:0:5ef5:79fd:287e:2186:3f57:ff9a</div></td></tr><tr><td><div>::ffff:127.0.0.1</div></td></tr><tr><td><div>::1</div></td></tr><tr><td><div>192.168.0.101</div></td></tr><tr><td><div>fe80::4018:b4d4:ee94:6775%15</div></td></tr><tr><td><div>127.0.0.1</div></td></tr></table></div></td></tr><tr><td style="font-weight:bold;vertical-align:top;">web2py_version</td><td style="vertical-align:top;">:</td><td><div>2.14.6-stable+timestamp.2016.05.10.00.21.47</div></td></tr></table></div></td></tr><tr><td style="font-weight:bold;vertical-align:top;">is_https</td><td style="vertical-align:top;">:</td><td><div>False</div></td></tr><tr><td style="font-weight:bold;vertical-align:top;">is_local</td><td style="vertical-align:top;">:</td><td><div>True</div></td></tr><tr><td style="font-weight:bold;vertical-align:top;">is_restful</td><td style="vertical-align:top;">:</td><td><div>False</div></td></tr><tr><td style="font-weight:bold;vertical-align:top;">is_scheduler</td><td style="vertical-align:top;">:</td><td><div>False</div></td></tr><tr><td style="font-weight:bold;vertical-align:top;">is_shell</td><td style="vertical-align:top;">:</td><td><div>False</div></td></tr><tr><td style="font-weight:bold;vertical-align:top;">now</td><td style="vertical-align:top;">:</td><td><div>datetime.datetime(2017, 10, 10, 15, 52, 22, 880000)</div></td></tr><tr><td style="font-weight:bold;vertical-align:top;">raw_args</td><td style="vertical-align:top;">:</td><td><div></div></td></tr><tr><td style="font-weight:bold;vertical-align:top;">raw_extension</td><td style="vertical-align:top;">:</td><td><div>None</div></td></tr><tr><td style="font-weight:bold;vertical-align:top;">url</td><td style="vertical-align:top;">:</td><td><div>/SisPIOrafael2/default/admin</div></td></tr><tr><td style="font-weight:bold;vertical-align:top;">utcnow</td><td style="vertical-align:top;">:</td><td><div>datetime.datetime(2017, 10, 10, 19, 52, 22, 880000)</div></td></tr><tr><td style="font-weight:bold;vertical-align:top;">wsgi</td><td style="vertical-align:top;">:</td><td><div>&lt;gluon.main.LazyWSGI object at 0x09A37850&gt;</div></td></tr></table></div>'
tRp69
sS'frames'
p70
(lp71
(dp72
S'file'
p73
S'C:\\Users\\Rafael Cisneros\\Desktop\\web2py\\web2py\\gluon\\restricted.py'
p74
sS'dump'
p75
(dp76
S'code'
p77
S'\'response.write(\\\'\\\\n<!DOCTYPE html>\\\\n<html lang="e...  </script>\\\\n\\\\n</body>\\\\n\\\\n</html>\\\', escape=False)\''
p78
sS'layer'
p79
S"r'C:\\Users\\Rafael Cisneros\\Desktop\\web2py\\web2py\\applications\\SisPIOrafael2\\views\\default/admin.html'"
p80
sS'global compile2'
p81
S'<function compile2>'
p82
sS'ccode'
p83
S'undefined'
p84
ssS'lnum'
p85
I226
sS'lines'
p86
(dp87
I224
S'            ccode = code'
p88
sI225
S'        else:'
p89
sI226
S'            ccode = compile2(code, layer)'
p90
sI227
S'        exec ccode in environment'
p91
sI228
S'    except HTTP:'
p92
sI229
S'        raise'
p93
sI230
S'    except RestrictedError:'
p94
sI221
S"    environment['__name__'] = '__restricted__'"
p95
sI222
S'    try:'
p96
sI223
S'        if isinstance(code, types.CodeType):'
p97
ssS'call'
p98
S'(code=\'response.write(\\\'\\\\n<!DOCTYPE html>\\\\n<html lang="e...  </script>\\\\n\\\\n</body>\\\\n\\\\n</html>\\\', escape=False)\', environment={\'A\': <class \'gluon.html.A\'>, \'ANY_OF\': <class \'gluon.validators.ANY_OF\'>, \'ASSIGNJS\': <function ASSIGNJS>, \'AppConfig\': <function AppConfig>, \'Auth\': <class \'gluon.tools.Auth\'>, \'B\': <class \'gluon.html.B\'>, \'BEAUTIFY\': <class \'gluon.html.BEAUTIFY\'>, \'BODY\': <class \'gluon.html.BODY\'>, \'BR\': <class \'gluon.html.BR\'>, \'BUTTON\': <class \'gluon.html.BUTTON\'>, ...}, layer=r\'C:\\Users\\Rafael Cisneros\\Desktop\\web2py\\web2py\\applications\\SisPIOrafael2\\views\\default/admin.html\')'
p99
sS'func'
p100
S'restricted'
p101
sa(dp102
g73
S'C:\\Users\\Rafael Cisneros\\Desktop\\web2py\\web2py\\gluon\\restricted.py'
p103
sg75
(dp104
S'builtincompile'
p105
S'<built-in function compile>'
p106
sS'code'
p107
S'\'response.write(\\\'\\\\n<!DOCTYPE html>\\\\n<html lang="e...  </script>\\\\n\\\\n</body>\\\\n\\\\n</html>\\\', escape=False)\''
p108
sS'code.rstrip'
p109
S'<built-in method rstrip of str object>'
p110
sS').replace'
p111
g84
sS'layer'
p112
S"r'C:\\Users\\Rafael Cisneros\\Desktop\\web2py\\web2py\\applications\\SisPIOrafael2\\views\\default/admin.html'"
p113
ssg85
I209
sg86
(dp114
I204
S'def compile2(code, layer):'
p115
sI205
S'    """'
p116
sI206
S"    The ``+'\\\\n'`` is necessary else compile fails when code ends in a comment."
p117
sI207
S'    """'
p118
sI208
S''
sI209
S"    return compile(code.rstrip().replace('\\r\\n', '\\n') + '\\n', layer, 'exec')"
p119
sI210
S''
sI211
S''
sI212
S"def restricted(code, environment=None, layer='Unknown'):"
p120
sI213
S'    """'
p121
ssg98
S'(code=\'response.write(\\\'\\\\n<!DOCTYPE html>\\\\n<html lang="e...  </script>\\\\n\\\\n</body>\\\\n\\\\n</html>\\\', escape=False)\', layer=r\'C:\\Users\\Rafael Cisneros\\Desktop\\web2py\\web2py\\applications\\SisPIOrafael2\\views\\default/admin.html\')'
p122
sg100
S'compile2'
p123
sasS'pyver'
p124
S'Python 2.7.9: C:\\Users\\Rafael Cisneros\\Desktop\\web2py\\web2py\\web2py.exe (prefix: C:\\Python27)'
p125
sS'session'
p126
g68
(S's\x98\x00\x00\x00<div><table><tr><td style="font-weight:bold;vertical-align:top;">flash</td><td style="vertical-align:top;">:</td><td><div></div></td></tr></table></div>'
tRp127
sS'etype'
p128
S"<type 'exceptions.SyntaxError'>"
p129
sS'date'
p130
S'Tue Oct 10 15:52:23 2017'
p131
sS'response'
p132
g68
(S's`@\x00\x00<div><table><tr><td style="font-weight:bold;vertical-align:top;">body</td><td style="vertical-align:top;">:</td><td><div>&lt;cStringIO.StringO object at 0x03CC1B80&gt;</div></td></tr><tr><td style="font-weight:bold;vertical-align:top;">cookies</td><td style="vertical-align:top;">:</td><td><div><table><tr><td style="font-weight:bold;vertical-align:top;">session_id_sispiorafael2</td><td style="vertical-align:top;">:</td><td><div>127.0.0.1-fe9af3ee-0c67-42d0-8062-f58c520aa293<table><tr><td style="font-weight:bold;vertical-align:top;">comment</td><td style="vertical-align:top;">:</td><td><div></div></td></tr><tr><td style="font-weight:bold;vertical-align:top;">domain</td><td style="vertical-align:top;">:</td><td><div></div></td></tr><tr><td style="font-weight:bold;vertical-align:top;">expires</td><td style="vertical-align:top;">:</td><td><div></div></td></tr><tr><td style="font-weight:bold;vertical-align:top;">httponly</td><td style="vertical-align:top;">:</td><td><div></div></td></tr><tr><td style="font-weight:bold;vertical-align:top;">max-age</td><td style="vertical-align:top;">:</td><td><div></div></td></tr><tr><td style="font-weight:bold;vertical-align:top;">path</td><td style="vertical-align:top;">:</td><td><div>/</div></td></tr><tr><td style="font-weight:bold;vertical-align:top;">secure</td><td style="vertical-align:top;">:</td><td><div></div></td></tr><tr><td style="font-weight:bold;vertical-align:top;">version</td><td style="vertical-align:top;">:</td><td><div></div></td></tr></table></div></td></tr></table></div></td></tr><tr><td style="font-weight:bold;vertical-align:top;">delimiters</td><td style="vertical-align:top;">:</td><td><div><table><tr><td><div>{{</div></td></tr><tr><td><div>}}</div></td></tr></table></div></td></tr><tr><td style="font-weight:bold;vertical-align:top;">files</td><td style="vertical-align:top;">:</td><td><div><table></table></div></td></tr><tr><td style="font-weight:bold;vertical-align:top;">flash</td><td style="vertical-align:top;">:</td><td><div></div></td></tr><tr><td style="font-weight:bold;vertical-align:top;">form_label_separator</td><td style="vertical-align:top;">:</td><td><div></div></td></tr><tr><td style="font-weight:bold;vertical-align:top;">formstyle</td><td style="vertical-align:top;">:</td><td><div>bootstrap3_inline</div></td></tr><tr><td style="font-weight:bold;vertical-align:top;">generic_patterns</td><td style="vertical-align:top;">:</td><td><div><table><tr><td><div>*</div></td></tr></table></div></td></tr><tr><td style="font-weight:bold;vertical-align:top;">google_analytics_id</td><td style="vertical-align:top;">:</td><td><div>None</div></td></tr><tr><td style="font-weight:bold;vertical-align:top;">headers</td><td style="vertical-align:top;">:</td><td><div><table><tr><td style="font-weight:bold;vertical-align:top;">X-Powered-By</td><td style="vertical-align:top;">:</td><td><div>web2py</div></td></tr></table></div></td></tr><tr><td style="font-weight:bold;vertical-align:top;">logo</td><td style="vertical-align:top;">:</td><td><div><a class="navbar-brand" href="http://www.web2py.com/" id="web2py-logo"><b>web<span>2</span>py</b>&trade;&nbsp;</a></div></td></tr><tr><td style="font-weight:bold;vertical-align:top;">menu</td><td style="vertical-align:top;">:</td><td><div><table><tr><td><div><table><tr><td><div>Inicio</div></td></tr><tr><td><div>False</div></td></tr><tr><td><div>/SisPIOrafael2/default/index</div></td></tr><tr><td><div><table></table></div></td></tr></table></div></td></tr><tr><td><div><table><tr><td><div>Mis Sitios</div></td></tr><tr><td><div>False</div></td></tr><tr><td><div>/admin/default/site</div></td></tr></table></div></td></tr><tr><td><div><table><tr><td><div>Esta Aplicaci\xc3\xb3n</div></td></tr><tr><td><div>False</div></td></tr><tr><td><div>#</div></td></tr><tr><td><div><table><tr><td><div><table><tr><td><div>Design</div></td></tr><tr><td><div>False</div></td></tr><tr><td><div>/admin/default/design/SisPIOrafael2</div></td></tr></table></div></td></tr><tr><td><div><li class="divider"></li></div></td></tr><tr><td><div><table><tr><td><div>Controlador</div></td></tr><tr><td><div>False</div></td></tr><tr><td><div>/admin/default/edit/SisPIOrafael2/controllers/default.py</div></td></tr></table></div></td></tr><tr><td><div><table><tr><td><div>Vista</div></td></tr><tr><td><div>False</div></td></tr><tr><td><div>/admin/default/edit/SisPIOrafael2/views/default/admin.html</div></td></tr></table></div></td></tr><tr><td><div><table><tr><td><div>Modelo BDD</div></td></tr><tr><td><div>False</div></td></tr><tr><td><div>/admin/default/edit/SisPIOrafael2/models/db.py</div></td></tr></table></div></td></tr><tr><td><div><table><tr><td><div>Modelo "menu"</div></td></tr><tr><td><div>False</div></td></tr><tr><td><div>/admin/default/edit/SisPIOrafael2/models/menu.py</div></td></tr></table></div></td></tr><tr><td><div><table><tr><td><div>Config.ini</div></td></tr><tr><td><div>False</div></td></tr><tr><td><div>/admin/default/edit/SisPIOrafael2/private/appconfig.ini</div></td></tr></table></div></td></tr><tr><td><div><table><tr><td><div>Dise\xc3\xb1o de p\xc3\xa1gina</div></td></tr><tr><td><div>False</div></td></tr><tr><td><div>/admin/default/edit/SisPIOrafael2/views/layout.html</div></td></tr></table></div></td></tr><tr><td><div><table><tr><td><div>Hoja de estilo</div></td></tr><tr><td><div>False</div></td></tr><tr><td><div>/admin/default/edit/SisPIOrafael2/static/css/web2py-bootstrap3.css</div></td></tr></table></div></td></tr><tr><td><div><table><tr><td><div>Base de datos</div></td></tr><tr><td><div>False</div></td></tr><tr><td><div>/SisPIOrafael2/appadmin/index</div></td></tr></table></div></td></tr><tr><td><div><table><tr><td><div>Errores</div></td></tr><tr><td><div>False</div></td></tr><tr><td><div>/admin/default/errors/SisPIOrafael2</div></td></tr></table></div></td></tr><tr><td><div><table><tr><td><div>Acerca de</div></td></tr><tr><td><div>False</div></td></tr><tr><td><div>/admin/default/about/SisPIOrafael2</div></td></tr></table></div></td></tr></table></div></td></tr></table></div></td></tr><tr><td><div><table><tr><td><div>web2py.com</div></td></tr><tr><td><div>False</div></td></tr><tr><td><div>#</div></td></tr><tr><td><div><table><tr><td><div><table><tr><td><div>Descargas</div></td></tr><tr><td><div>False</div></td></tr><tr><td><div>http://www.web2py.com/examples/default/download</div></td></tr></table></div></td></tr><tr><td><div><table><tr><td><div>Soporte</div></td></tr><tr><td><div>False</div></td></tr><tr><td><div>http://www.web2py.com/examples/default/support</div></td></tr></table></div></td></tr><tr><td><div><table><tr><td><div>Demostraci\xc3\xb3n</div></td></tr><tr><td><div>False</div></td></tr><tr><td><div>http://web2py.com/demo_admin</div></td></tr></table></div></td></tr><tr><td><div><table><tr><td><div>Ejemplos R\xc3\xa1pidos</div></td></tr><tr><td><div>False</div></td></tr><tr><td><div>http://web2py.com/examples/default/examples</div></td></tr></table></div></td></tr><tr><td><div><table><tr><td><div>FAQ</div></td></tr><tr><td><div>False</div></td></tr><tr><td><div>http://web2py.com/AlterEgo</div></td></tr></table></div></td></tr><tr><td><div><table><tr><td><div>V\xc3\xaddeos</div></td></tr><tr><td><div>False</div></td></tr><tr><td><div>http://www.web2py.com/examples/default/videos/</div></td></tr></table></div></td></tr><tr><td><div><table><tr><td><div>Aplicaciones Libres</div></td></tr><tr><td><div>False</div></td></tr><tr><td><div>http://web2py.com/appliances</div></td></tr></table></div></td></tr><tr><td><div><table><tr><td><div>Plugins</div></td></tr><tr><td><div>False</div></td></tr><tr><td><div>http://web2py.com/plugins</div></td></tr></table></div></td></tr><tr><td><div><table><tr><td><div>Recetas</div></td></tr><tr><td><div>False</div></td></tr><tr><td><div>http://web2pyslices.com/</div></td></tr></table></div></td></tr></table></div></td></tr></table></div></td></tr><tr><td><div><table><tr><td><div>Documentaci\xc3\xb3n</div></td></tr><tr><td><div>False</div></td></tr><tr><td><div>#</div></td></tr><tr><td><div><table><tr><td><div><table><tr><td><div>Online book</div></td></tr><tr><td><div>False</div></td></tr><tr><td><div>http://www.web2py.com/book</div></td></tr></table></div></td></tr><tr><td><div><li class="divider"></li></div></td></tr><tr><td><div><table><tr><td><div>Prefacio</div></td></tr><tr><td><div>False</div></td></tr><tr><td><div>http://www.web2py.com/book/default/chapter/00</div></td></tr></table></div></td></tr><tr><td><div><table><tr><td><div>Introducci\xc3\xb3n</div></td></tr><tr><td><div>False</div></td></tr><tr><td><div>http://www.web2py.com/book/default/chapter/01</div></td></tr></table></div></td></tr><tr><td><div><table><tr><td><div>Python</div></td></tr><tr><td><div>False</div></td></tr><tr><td><div>http://www.web2py.com/book/default/chapter/02</div></td></tr></table></div></td></tr><tr><td><div><table><tr><td><div>Resumen</div></td></tr><tr><td><div>False</div></td></tr><tr><td><div>http://www.web2py.com/book/default/chapter/03</div></td></tr></table></div></td></tr><tr><td><div><table><tr><td><div>El N\xc3\xbacleo</div></td></tr><tr><td><div>False</div></td></tr><tr><td><div>http://www.web2py.com/book/default/chapter/04</div></td></tr></table></div></td></tr><tr><td><div><table><tr><td><div>Las Vistas</div></td></tr><tr><td><div>False</div></td></tr><tr><td><div>http://www.web2py.com/book/default/chapter/05</div></td></tr></table></div></td></tr><tr><td><div><table><tr><td><div>Base de datos</div></td></tr><tr><td><div>False</div></td></tr><tr><td><div>http://www.web2py.com/book/default/chapter/06</div></td></tr></table></div></td></tr><tr><td><div><table><tr><td><div>Formularios y validadores</div></td></tr><tr><td><div>False</div></td></tr><tr><td><div>http://www.web2py.com/book/default/chapter/07</div></td></tr></table></div></td></tr><tr><td><div><table><tr><td><div>Correo electr\xc3\xb3nico y SMS</div></td></tr><tr><td><div>False</div></td></tr><tr><td><div>http://www.web2py.com/book/default/chapter/08</div></td></tr></table></div></td></tr><tr><td><div><table><tr><td><div>Control de Acceso</div></td></tr><tr><td><div>False</div></td></tr><tr><td><div>http://www.web2py.com/book/default/chapter/09</div></td></tr></table></div></td></tr><tr><td><div><table><tr><td><div>Servicios</div></td></tr><tr><td><div>False</div></td></tr><tr><td><div>http://www.web2py.com/book/default/chapter/10</div></td></tr></table></div></td></tr><tr><td><div><table><tr><td><div>Recetas AJAX</div></td></tr><tr><td><div>False</div></td></tr><tr><td><div>http://www.web2py.com/book/default/chapter/11</div></td></tr></table></div></td></tr><tr><td><div><table><tr><td><div>Componentes y Plugins</div></td></tr><tr><td><div>False</div></td></tr><tr><td><div>http://www.web2py.com/book/default/chapter/12</div></td></tr></table></div></td></tr><tr><td><div><table><tr><td><div>Recetas de despliegue</div></td></tr><tr><td><div>False</div></td></tr><tr><td><div>http://www.web2py.com/book/default/chapter/13</div></td></tr></table></div></td></tr><tr><td><div><table><tr><td><div>Otras Recetas</div></td></tr><tr><td><div>False</div></td></tr><tr><td><div>http://www.web2py.com/book/default/chapter/14</div></td></tr></table></div></td></tr><tr><td><div><table><tr><td><div>Helping web2py</div></td></tr><tr><td><div>False</div></td></tr><tr><td><div>http://www.web2py.com/book/default/chapter/15</div></td></tr></table></div></td></tr><tr><td><div><table><tr><td><div>Buy web2py\'s book</div></td></tr><tr><td><div>False</div></td></tr><tr><td><div>http://stores.lulu.com/web2py</div></td></tr></table></div></td></tr></table></div></td></tr></table></div></td></tr><tr><td><div><table><tr><td><div>Comunidad</div></td></tr><tr><td><div>False</div></td></tr><tr><td><div>None</div></td></tr><tr><td><div><table><tr><td><div><table><tr><td><div>Grupos</div></td></tr><tr><td><div>False</div></td></tr><tr><td><div>http://www.web2py.com/examples/default/usergroups</div></td></tr></table></div></td></tr><tr><td><div><table><tr><td><div>Twitter</div></td></tr><tr><td><div>False</div></td></tr><tr><td><div>http://twitter.com/web2py</div></td></tr></table></div></td></tr><tr><td><div><table><tr><td><div>Chat en vivo</div></td></tr><tr><td><div>False</div></td></tr><tr><td><div>http://webchat.freenode.net/?channels=web2py</div></td></tr></table></div></td></tr></table></div></td></tr></table></div></td></tr></table></div></td></tr><tr><td style="font-weight:bold;vertical-align:top;">meta</td><td style="vertical-align:top;">:</td><td><div><table><tr><td style="font-weight:bold;vertical-align:top;">author</td><td style="vertical-align:top;">:</td><td><div>Your Name &lt;you@example.com&gt;</div></td></tr><tr><td style="font-weight:bold;vertical-align:top;">description</td><td style="vertical-align:top;">:</td><td><div>a cool new app</div></td></tr><tr><td style="font-weight:bold;vertical-align:top;">generator</td><td style="vertical-align:top;">:</td><td><div>Web2py Web Framework</div></td></tr><tr><td style="font-weight:bold;vertical-align:top;">keywords</td><td style="vertical-align:top;">:</td><td><div><table><tr><td><div>web2py</div></td></tr><tr><td><div>python</div></td></tr><tr><td><div>framework</div></td></tr></table></div></td></tr></table></div></td></tr><tr><td style="font-weight:bold;vertical-align:top;">models_to_run</td><td style="vertical-align:top;">:</td><td><div><table><tr><td><div>^\\w+\\.py$</div></td></tr><tr><td><div>^default/\\w+\\.py$</div></td></tr><tr><td><div>^default/admin/\\w+\\.py$</div></td></tr></table></div></td></tr><tr><td style="font-weight:bold;vertical-align:top;">postprocessing</td><td style="vertical-align:top;">:</td><td><div><table></table></div></td></tr><tr><td style="font-weight:bold;vertical-align:top;">session_client</td><td style="vertical-align:top;">:</td><td><div>127.0.0.1</div></td></tr><tr><td style="font-weight:bold;vertical-align:top;">session_cookie_compression_level</td><td style="vertical-align:top;">:</td><td><div>None</div></td></tr><tr><td style="font-weight:bold;vertical-align:top;">session_cookie_expires</td><td style="vertical-align:top;">:</td><td><div>None</div></td></tr><tr><td style="font-weight:bold;vertical-align:top;">session_data_name</td><td style="vertical-align:top;">:</td><td><div>session_data_sispiorafael2</div></td></tr><tr><td style="font-weight:bold;vertical-align:top;">session_file</td><td style="vertical-align:top;">:</td><td><div>&lt;open file &#x27;C:\\\\Users\\\\Rafael Cisneros\\\\Desktop\\\\web2py\\\\web2py\\\\applications\\\\SisPIOrafael2\\\\sessions\\\\10c\\\\1c7\\\\127.0.0.1-fe9af3ee-0c67-42d0-8062-f58c520aa293&#x27;, mode &#x27;rb+&#x27; at 0x03DE4C28&gt;</div></td></tr><tr><td style="font-weight:bold;vertical-align:top;">session_filename</td><td style="vertical-align:top;">:</td><td><div>C:\\Users\\Rafael Cisneros\\Desktop\\web2py\\web2py\\applications\\SisPIOrafael2\\sessions\\127.0.0.1-fe9af3ee-0c67-42d0-8062-f58c520aa293</div></td></tr><tr><td style="font-weight:bold;vertical-align:top;">session_hash</td><td style="vertical-align:top;">:</td><td><div>2d1833574e2cc6f27955f7c916d09f67</div></td></tr><tr><td style="font-weight:bold;vertical-align:top;">session_id</td><td style="vertical-align:top;">:</td><td><div>127.0.0.1-fe9af3ee-0c67-42d0-8062-f58c520aa293</div></td></tr><tr><td style="font-weight:bold;vertical-align:top;">session_id_name</td><td style="vertical-align:top;">:</td><td><div>session_id_sispiorafael2</div></td></tr><tr><td style="font-weight:bold;vertical-align:top;">session_locked</td><td style="vertical-align:top;">:</td><td><div>True</div></td></tr><tr><td style="font-weight:bold;vertical-align:top;">session_masterapp</td><td style="vertical-align:top;">:</td><td><div>SisPIOrafael2</div></td></tr><tr><td style="font-weight:bold;vertical-align:top;">session_new</td><td style="vertical-align:top;">:</td><td><div>False</div></td></tr><tr><td style="font-weight:bold;vertical-align:top;">session_storage_type</td><td style="vertical-align:top;">:</td><td><div>file</div></td></tr><tr><td style="font-weight:bold;vertical-align:top;">status</td><td style="vertical-align:top;">:</td><td><div>200</div></td></tr><tr><td style="font-weight:bold;vertical-align:top;">subtitle</td><td style="vertical-align:top;">:</td><td><div></div></td></tr><tr><td style="font-weight:bold;vertical-align:top;">title</td><td style="vertical-align:top;">:</td><td><div>Sispiorafael2</div></td></tr><tr><td style="font-weight:bold;vertical-align:top;">view</td><td style="vertical-align:top;">:</td><td><div>default/admin.html</div></td></tr></table></div>'
tRp133
sS'locals'
p134
(dp135
g4
S"r'C:\\Users\\Rafael Cisneros\\Desktop\\web2py\\web2py\\applications\\SisPIOrafael2\\views\\default/admin.html'"
p136
sg6
S'\'response.write(\\\'\\\\n<!DOCTYPE html>\\\\n<html lang="e...  </script>\\\\n\\\\n</body>\\\\n\\\\n</html>\\\', escape=False)\''
p137
sssS'traceback'
p138
S'Traceback (most recent call last):\n  File "C:\\Users\\Rafael Cisneros\\Desktop\\web2py\\web2py\\gluon\\restricted.py", line 226, in restricted\n    ccode = compile2(code, layer)\n  File "C:\\Users\\Rafael Cisneros\\Desktop\\web2py\\web2py\\gluon\\restricted.py", line 209, in compile2\n    return compile(code.rstrip().replace(\'\\r\\n\', \'\\n\') + \'\\n\', layer, \'exec\')\n  File "C:\\Users\\Rafael Cisneros\\Desktop\\web2py\\web2py\\applications\\SisPIOrafael2\\views\\default/admin.html", line 2\n    response.write(URL(\'default/user/logout\')\'\')\n                                              ^\nSyntaxError: invalid syntax\n'
p139
s.