(dp1
S'output'
p2
S'Unable to open included view file: /home/mabraca/Documentos/universidad/Sistema de Informacion/web2py/applications/Lab/views/layoutAdmin.html'
p3
sS'layer'
p4
S'ParserContainer'
p5
sS'code'
p6
S'<!DOCTYPE html>\n\n {{extend \'layoutAdmin.html\'}}\n\n\n    <div  class="container">\n         <!-- Information-->\n        <div id="inicio" class="row">\n            <div class="col-md-12">  \n              <div class="row">\n                <div class="col-md-3">\n                    <!--Aspirantes-->\n                    <h3> Aspirantes </h3>\n                    <div class="row">\n                    <ul class="nav nav-pills nav-stacked">\n                    <li role="presentation"><a id="add">Agregar Manualmente </a></li>\n                     <li role="presentation" ><a id="upload" href="#">Cargar archivo</a></li>\n                      <li role="presentation"><a id="lookfor" href="#">Consultar</a></li>\n                     <li role="presentation"><a id="edit" href="#">Modificar</a></li>\n                      <li role="presentation"><a id="comp" href="#">Generar comprobante</a></li>\n                    </ul>\n                    </div>\n                     <!--OTROS-->   \n                    <h3> Otros </h3>\n                    <div class="row">\n                    <ul class="nav nav-pills nav-stacked">\n                      <li role="presentation" class="active"><a id="principal" href="#">Inicio</a></li>\n                     <li role="presentation" ><a id="news" href="#">Noticias</a></li>\n                      <li role="presentation"><a class="perfil" href="#">Mi Perfil</a></li>\n                     <li role="presentation"><a id="allow" href="#">Permisos</a></li>\n                      <li role="presentation"><a id="contacto" href="#">Correo Masivo</a></li>\n                      <li role="presentation"><a id="pass" href="#">Cambiar contrase\xc3\xb1a</a></li>\n                      <li role="presentation"><a id="logOut" href="{{=URL(\'default\', \'user\', args=\'logout\')}}">Salir</a></li>\n                    </ul>\n                        <br>\n                  </div>\n                </div>\n                <div class="col-md-9">\n                    <!-- INICIO -->\n                    <div id="information">\n                         <h1> Bienvenido al PIO </h1>\n                        <br><br>\n                        <p><strong>Coordinadores,</strong></p><br>\n                        <p class="textCoor">\n                            Bienvenido al Sistema PIO, para continuar en el proceso de carga de estudiantes es obligatorio llenar el siguiente formulario: <a class="perfil"><strong>Validar mis datos </strong></a></p>\n                        <p class="textCoor"> \n                            Recuerde imprimir su comprobante de carga de estudiantes con la opcion generar comprobante, luego de ingresar a sus alumnos al sistema.</p>\n                        <div>\n                            <h1 class="datos1">{{=formAdministrador[0][0][1][0]}}  </h1>\n                            <h1 class="datos1"><a id="Editar" href="#"><span class="glyphicon glyphicon-edit green-icn"></span></a></h1>\n                            <p class="datos">\n                                <b>Nombre completo: </b> Maigualida Margarita De la Santisima Trinidad Perez Bustamante\n                                <br>\n                                <b>Cedula de identidad: </b> 1234567<br>\n                                <b>Correo electronico: </b> fulanito@uncorreo.com <br>\n                                <b>Telefono:</b>  (0123) 25689632\n                                <br>\n                            </p>\n                        </div>\n                    </div>\n                    <!-- Noticias -->\n                    <div id="noticias">\n                        <h1>Noticias</h1>\n                        <p class="textCoor">No hay noticias recientes</p>\n                    \n                    </div>\n                    <!--Agregar Manual-->\n                    <div id="agregar">\n                        <h1>Agregar usuarios al Sistema PIO</h1><br>\n                        <form method="get" >\n                        <fieldset>\n                            <legend>Tipo de usuario</legend>\n                            <div class="form-group">\n                                <label for="quien"  class="col-sm-8 control-label lineCentral">Seleccione el tipo de usuario a ingresar: </label><br>\n                                   <br><input type="checkbox" class="" name="estudiantes" value="Estudiantes" >Estudiante<br>\n                                    <input type="checkbox" class="" name="profesores" value="Profesores" >Profesor <br>\n                                    <input type="checkbox" class="" name="coordinadorLiceo" value="CoorLiceo" >Coordinador Liceo <br>\n                                    <input type="checkbox" class="" name="coorPio" value="coorPio" >Coordinador Pio<br>\n                            </div>\n                        </fieldset>\n                        <fieldset>\n                            <legend>Datos personales</legend>\n                        <!-- Person ID -->\n                            <label for="cedula">Cedula de identidad: </label>\n                            <input type="text" id="cedula" name="ID" placeholder="Cedula de identidad" required> <br>\n                        <!-- Person name -->\n                            <label for="name">Nombres: </label>\n                            <input type="text" id="nombre" name="Nombre" placeholder="Primer y segundo nombre" required > <br>\n                        <!-- Person last name -->\n                            <label for="apellido">Apellidos: </label>\n                            <input type="text" id="apellido" name="Apellido" placeholder="Primer y segundo apellido"> <br>\n                        \n                        <!-- Person average-->\n                            <label for="promedioEntero">Promedio:</label>\n                            <input type="number" min="0" max="2" step="1" value="0" id="promedioEntero" class="text-right" name="PromedioEntero">\n                            <strong> .</strong>\n                            <input type="number" min="0" max="2" step="1" value="0" id="promedioDecimal" class="text-right" name="PromedioDecimal" required>\n                            <br>\n                        <!-- Person country -->\n                            <label for="country" >Liceo de procedencia: </label>\n                            <select class="select-style" name="cities" >\n                                <option value="ccs" disable >Seleccione uno</option>\n                                <option value="ccs">Programa de Cadena 2017</option>\n                            </select>\n                            <br>\n                        <!--Person email -->\n                            <label for="email">Email: </label>\n                            <input type="email" id="email" name="Email" placeholder="Correo electronico"><br>\n                        <!-- Person mobile -->\n                            <label for="mobile">Telefono principal: </label>\n                            <input type="tel" id="mobile" name="Mobile" placeholder="Telefono principal" max="11">\n                            <br>\n                        <!-- Person address-->\n                            <label class="dir" for="direccion">Direccion:</label>\n                            <div class="textarea1"><textarea id="direccion" > </textarea> </div>\n                            <br>\n                        </fieldset> <br>\n                        \n                        <div class="save text-center"><input type="submit" class="btn btn-primary save" value="Agregar"></div>\n                      </form>\n                    \n                    </div>\n                     <!--CARGAR ARCHIVO-->\n                    <div id="cargar">\n                         <div class="row">\n                                    <form method="get" >\n                                        <fieldset>\n                                            <legend><h2>Cargar archivo</h2></legend>\n                                            <div class="form-group">\n                                                <p class="textCoor">Seleccione el tipo de usuario a cargar:</p>\n                                                <div class="radio">\n                                                <label class="textCoor"><input type="radio" name="optradio">Estudiante</label>\n                                                </div>\n                                                <div class="radio">\n                                                  <label class="textCoor"><input type="radio" name="optradio">Profesor</label>\n                                                </div>\n                                                <div class="radio">\n                                                  <label class="textCoor"><input type="radio" name="optradio">Coordinador liceo</label>\n                                                </div>\n                                                <div class="radio">\n                                                  <label class="textCoor"><input type="radio" name="optradio">Coordinador sede</label>\n                                                </div>\n                                            </div>\n                                        </fieldset>\n                                        <fieldset>\n                                                <legend>Seleccionar archivo</legend>\n                                                <div class="form-group">\n                                                    <br>\n                                                    <p class="textCoor">Por favor selecione su archivo a cargar y presione enviar</p><br>\n                                                    <label for="file" class="textCoor">Archivo: </label> \n                            \t\t\t\t        <input type="file" id="file" name="fileToUpload" require><br><br>\n                                                </div>\n                                        </fieldset>\n                                        <div class="save text-center"><input type="submit" class="btn btn-primary save" value="Enviar"></div>\n                                    </form>\n                        </div>\n                    </div>\n                    <!-- MI PERFIL -->\n                    <div id="miPerfil" class="row">\n                     <form method="get" >\n                        \n                        <fieldset>\n                            <legend>Datos personales</legend>\n                        <!-- Person ID -->\n                            <label for="cedula">Cedula de identidad: </label>\n                            <input type="text" id="cedula" name="ID" placeholder="Cedula de identidad" readonly="readonly"> <br>\n                        <!-- Person name -->\n                            <label for="name">Nombres: </label>\n                            <input type="text" id="nombre" name="Nombre" placeholder="Primer y segundo nombre" required readonly="readonly"> <br>\n                        <!-- Person last name -->\n                            <label for="apellido">Apellidos: </label>\n                            <input type="text" id="apellido" name="Apellido" placeholder="Primer y segundo apellido" readonly="readonly"> <br>\n                        \n                        <!-- Person gender -->\n                            <label for="gender">Genero: </label>\n                            <input type="radio" class="gender" name="gender" value="female">Femenino \n                            <input type="radio" class="gender" name="gender" value="male" checked>Masculino <br>\n                        <!-- Person age-->\n                            <label for="age">Edad:</label>\n                            <input type="number" min="0" max="150" step="1" value="18" id="age" name="age" required><br>\n                        <!-- Person Birth-->\n                            <label for="birthday">Fecha de nacimiento:</label>\n                            <input type="date" id="birthday" name="birthday" required><br>\n                        <!-- Person average-->\n                            <label for="promedioEntero">Promedio:</label>\n                            <input type="number" min="0" max="20" step="1" value="0" id="promedioEntero" class="text-right" name="PromedioEntero" readonly="readonly">\n                            <strong> .</strong>\n                            <input type="number" min="0" max="20" step="1" value="0" id="promedioDecimal" class="text-right" name="PromedioDecimal" readonly="readonly">\n                            \n                            <br>\n                        <!-- Person country -->\n                            <label for="country" >Liceo de procedencia: </label>\n                            <select class="select-style" name="cities" >\n                                <option value="ccs" disable >Seleccione uno</option>\n                                <option value="ccs">Programa de Cadena 2017</option>\n                            </select>\n                        </fieldset> <br>\n                        <fieldset>\n                            <legend>Informacion de contacto</legend>\n                        <!--Person email -->\n                            <label for="email">Email: </label>\n                            <input type="email" id="email" name="Email" placeholder="Correo electronico" required><br>\n                        <!-- Person mobile -->\n                            <label for="mobile">Telefono principal: </label>\n                            <input type="tel" id="mobile" name="Mobile" placeholder="Telefono principal" require max="11">\n                            <br>\n                        <!-- Person mobile -->\n                            <label for="secundario">Telefono secundario: </label>\n                            <input type="tel" id="secundario" name="Mobile2" placeholder="Telefono secundario" require max="11">\n                            <br>\n                        <!-- Person address-->\n                            <label class="dir" for="direccion">Direccion:</label>\n                            <div class="textarea1"><textarea id="direccion" > </textarea> </div>\n                            <br>\n                        </fieldset> <br>\n                        \n                        <div class="save text-center"><input type="submit" class="btn btn-primary save" value="Guardar"></div>\n                      </form>\n                     </div>\n                    <!-- CONSULTA -->\n                    <div id="consultar" class="row">\n                      <form method="get" >\n                        <h1>Consultas </h1><br>\n                        <p class="textCoor">Busqueda de todos los alumnos:</p>\n                            <div class="form-group">\n                                   <input type="checkbox" class="gender marg" name="todos" value="todos" checked>Todos<br>\n                            </div>\n                           <div class="buscar"><button type="button" class="btn btn-primary save"  value="Consultar" data-toggle="modal" data-target="#ConsultarModal">\n                              Consultar\n                            </button></div>\n                         <!-- institucionn -->\n                            <p class="textCoor">Busqueda por:</p><br>\n                            <div class="form-group">\n                            <label for="institucion"  class="col-sm-2 control-label lineCentral">Institucion: </label>\n                                <select class="selectStyle" name="institucion" required >\n                                    <option value="" inactive >Seleccione una institucion</option>\n                                    <option value="">Institucion</option>\n                                </select>\n                            </div>\n                        <br>\n                             <!-- Por profesor -->\n                            \n                            <div class="form-group">\n                            <label for="profesor"  class="col-sm-2 control-label lineCentral">Profesor: </label>\n                                <select class="selectStyle" name="profesor" required >\n                                    <option value="" inactive >Seleccione un profesor</option>\n                                    <option value="">Institucion</option>\n                                </select>\n                            </div>\n                        <br>\n                             <!-- Por cohorte -->\n                                \n                                <div class="form-group">\n                                <label for="profesor"  class="col-sm-2 control-label lineCentral">Cohorte: </label>\n                                    <select class="selectStyle" name="profesor" required >\n                                        <option value="" inactive >Seleccione una cohorte</option>\n                                        <option value="">Institucion</option>\n                                    </select>\n                                </div>\n                            <br>\n                               \n                             <!--Edad-->\n                                    <div class="form-group">\n                                    <label for="profesor"  class="col-sm-2 control-label lineCentral">Edad: </label>\n                                        <select class="selectStyle" name="profesor" required >\n                                            <option value="" inactive >Seleccione una edad</option>\n                                            <option value="">Institucion</option>\n                                        </select>\n                                    </div>\n                                <br>\n                        <!--Genero--> \n                                \n                                <div class="form-group">\n                                <label for="profesor"  class="col-sm-2 control-label lineCentral">Genero: </label>\n                                   <input type="checkbox" class="gender marg" name="gender" value="female" >Femenino<br>\n\t\t\t\t                    <input type="checkbox" class="gender marg" name="gender" value="male" >Masculino <br>\n                                </div>\n                            <br>\n                        <!--NOtas-->\n                            \n                                <div class="form-group">\n                                    <strong>Nota menor que:</strong>\n                                    <input type="number" min="0" max="20" step="1" value="0" id="promedioEntero" class="text-right" name="PromedioEntero">\n                                    <strong>  Nota mayor que: </strong>\n                                    <input type="number" min="0" max="20" step="1" value="0" id="promedioDecimal" class="text-right" name="PromedioDecimal"><br>\n                                </div>\n                            <br>\n                         <!--Fecha-->\n                           \n                                <div class="form-group">\n                                    <strong>Fecha entre:</strong>\n                                    <input type="date" id="fecha1" name="fecha" required>\n                                    <strong> y : </strong>\n                                    <input type="date" id="fecha2" name="fecha" required><br><br>\n                                </div>\n                            <br>\n                           <!-- Button trigger modal -->\n                            <div class="save text-center"><button type="button" class="btn btn-primary save"  value="Consultar" data-toggle="modal" data-target="#ConsultarModal">\n                              Consultar\n                            </button></div>\n                        </form>\n                        <!-- Modal -->\n                            <div class="modal fade" id="ConsultarModal" tabindex="-1" role="dialog" aria-labelledby="modalConsult">\n                              <div class="modal-dialog modal-lg" role="document">\n                                <div class="modal-content">\n                                  <div class="modal-header">\n                                    <button type="button" class="close" data-dismiss="modal" aria-label="Close"><span aria-hidden="true">&times;</span></button>\n                                    <h4 class="modal-title" id="modalConsult">Consulta</h4>\n                                  </div>\n                                  <div class="modal-body">                                                                                  \n                                          <div class="table-responsive">          \n                                          <table class="table">\n                                            <thead>\n                                              <tr>\n                                                <th>CD</th>\n                                                <th>Nombre</th>\n                                                <th>Apellido</th>\n                                                <th>Correo</th>\n                                                <th>Status</th>\n                                                <th>Promedio</th>\n                                              </tr>\n                                            </thead>\n                                            <tbody>\n                                              <tr>\n                                                <td>260733</td>\n                                                <td>Anna</td>\n                                                <td>Pitt</td>\n                                                <td>fulanito@gmail.com</td>\n                                                <td>ACTIVA</td>\n                                                <td>20.0</td>\n                                              </tr>\n                                            </tbody>\n                                          </table>\n                                          </div>\n                                  </div>\n                                  <div class="modal-footer">\n                                    <button type="button" class="btn btn-default" data-dismiss="modal">Close</button>\n                                    <button type="button" class="btn btn-primary">Imprimir</button>\n                                  </div>\n                                </div>\n                              </div>\n                            </div>\n                    </div>\n                    <!--MODIFICAR-->\n                    <div id="modificar">\n                        <h1>Modificar datos del estudiante</h1>\n                    </div>\n                    <!--REPORTE-->\n                    <div id="reporte">\n                        <h1>Generar comprobrante</h1>\n                    </div>\n                    <!--PERMISOS-->\n                    <div id="permiso">\n                        <h1>Permisos</h1><br>\n                        <p class="textCoor">Ingrese la cedula de indentidad de la persona que le otorga permiso de ADMINISTRADOR</p>\n                        <br>\n                         <!-- Person ID -->\n                            <label for="cedula">Cedula de identidad: </label>\n                            <input type="text" id="id" name="ID" placeholder="Cedula de identidad"> <br><br>\n                        <div class="save text-center"><input type="submit" class="btn btn-primary save" value="Permitir"></div>\n                    </div>\n                    <!-- CONTRASENA -->\n                    <div id="cambioContra" class="row">\n                        <h1>Cambiar contrase\xc3\xb1a</h1><br><br>\n                    <form method="get">\n                       <!-- Contrase;a actual -->\n                            <label for="contrase\xc3\xb1a">Contrase\xc3\xb1a actual: </label>\n                            <input type="password" id="contrasena" name="contrase\xc3\xb1a" placeholder="Contrase\xc3\xb1a actual" required> <br>\n                        <!-- Contrase;a nueva -->\n                            <label for="contrase\xc3\xb1a">Contrase\xc3\xb1a nueva: </label>\n                            <input type="password" id="password" name="contrase\xc3\xb1a" placeholder="Contrase\xc3\xb1a nueva" required> <br>\n                        <!-- Contrase;a nueva -->\n                            <label for="contrase\xc3\xb1a">Confirmar contrase\xc3\xb1a: </label>\n                            <input type="password" id="confirm_password" name="contrase\xc3\xb1a" placeholder="Contrase\xc3\xb1a nueva" required> <br><br>\n                        <div class="save text-center"><input type="submit" class="btn btn-primary save" value="Guardar"></div>\n                        </form>\n                    </div>\n                    <!-- Contactanos -->\n                    <div id="enviarEmail" class="row">\n                        <h1>Correos Masivos </h1>\n                        <p class="textCoor marg">Seleccione a las personas que sera dirigido el correo electronico</p>\n\n                        <p class="textCoor marg "> Si presenta algun problema comunicarse con el servicio tecnico.</p>\n                        <form role="form" method="post" >\n                            <br><br>\n                            <!-- institucionn -->\n                            <div class="form-group">\n                                <label for="quien"  class="col-sm-2 control-label lineCentral">Dirigido a: </label><br>\n                                   <br><input type="checkbox" class="gender marg" name="estudiantes" value="Estudiantes" >Estudiantes<br>\n                                    <input type="checkbox" class="gender marg" name="profesores" value="Profesores" >Profesores <br>\n                                    <input type="checkbox" class="gender marg" name="coordinadorLiceo" value="CoorLiceo" >Coordinadores Liceo <br>\n                                    <input type="checkbox" class="gender marg" name="coorPio" value="coorPio" >Coordinador Pio<br>\n                            </div>\n                        <br>\n                            <!-- Asunto-->\n                            <div class="form-group">\n                                <label for="name" class="col-sm-4 control-label">Correo especifico:</label>\n                                <br><br>\n                                <div class="col-sm-10">\n                                    <input type="email" class="form-control" id="email" name="email" placeholder="Ingrese correo destino" value="" required>\n                                </div>\n                            </div>\n                            <br>\n                           <br>\n                            <!-- Asunto-->\n                            <div class="form-group">\n                                <label for="name" class="col-sm-2 control-label">Asunto</label>\n                                <br><br>\n                                <div class="col-sm-10">\n                                    <input type="text" class="form-control" id="asunto" name="asunto" placeholder="Asunto" value="" required>\n                                </div>\n                            </div>\n                           <br>\n                            <!-- mensaje -->\n                            <div class="form-group">\n                                <br><br>\n                                <label for="message" class="col-sm-2 control-label">Mensaje</label><br><br>\n                                <div class="col-sm-10">\n                                    <textarea class="form-control" rows="4" name="message" required></textarea>\n                                </div>\n                            </div>\n                            \n                            <div class="form-group">\n                                <div class="col-sm-10 col-sm-offset-2">\n                                    <br><br><div class="send">\n                                    <input id="submit" name="submit" type="submit" value="Enviar" class="btn btn-primary"></div>\n                                    <br><br>\n                                    <br>\n                                </div>\n                            </div>\n                        </form>\n                    </div>\n                    \n                </div>\n                </div><!--row-->\n              </div><!--colmd12-->\n                \n            </div><!-- row -->\n            \n            \n        </div><!-- col md 10-->\n    </div><!-- container-->\n   \n\n    <footer class="container-fluid footer">\n        <div class="row">\n            <p class="text-center minText">Universidad Simon Bolivar<br>Sartenejas, Baruta, Edo. Miranda - Apartado 89000 - Cable Unibolivar - Caracas Venezuela. Tel\xc3\xa9fono +58 0212-9063111.<br>\nDise\xc3\xb1ada y desarrollada por Software for the World</p>\n        </div>\n    </footer>\n\n    <!-- jQuery (necessary for Bootstrap\'s JavaScript plugins) -->\n     <script src="https://ajax.googleapis.com/ajax/libs/jquery/1.12.4/jquery.min.js"></script>\n    <!-- Include all compiled plugins (below), or include individual files as needed -->\n    <script src="{{=URL(\'static\', \'js/bootstrap.min.js\')}}"></script>\n    <!-- JQUERY-->\n    <script>\n        /*Comparacion de contrase;as*/\n        var password = document.getElementById("password")\n          , confirm_password = document.getElementById("confirm_password");\n\n        function validatePassword(){\n          if(password.value != confirm_password.value) {\n            confirm_password.setCustomValidity("Las contrase\xc3\xb1as no coinciden");\n          } else {\n            confirm_password.setCustomValidity(\'\');\n          }\n        }\n\n        password.onchange = validatePassword;\n        confirm_password.onkeyup = validatePassword;\n        \n        \n        /*Cambio de seleccion en el menu izquierdo*/\n    $(".nav-stacked a").on("click", function(){\n       $(".nav").find(".active").removeClass("active");\n       $(this).parent().addClass("active");\n    });\n        \n    $(document).ready(function(){\n       \n    $(".glyphicon, #userinfo" ).click(function(){\n        $("#information, #agregar,#modificar").hide();\n        $("#enviarEmail, #cargar,#permiso").hide();\n        $("#cambioContra, #reporte").hide();\n        $("#noticias, #consultar").hide();\n        $("#miPerfil").show();\n        $(".nav").find(".active").removeClass("active");\n        $(".perfil").parent().addClass("active");\n    });\n   \n    $(".perfil").click(function(){\n        $("#information, #agregar, #cargar").hide();\n        $("#enviarEmail,#permiso").hide();\n        $("#noticias, #reporte").hide();\n        $("#cambioContra, #consultar").hide();\n        $("#miPerfil").show();\n         $(".nav").find(".active").removeClass("active");\n        $(".perfil").parent().addClass("active");\n    });\n    $("#principal").click(function(){\n        $("#information").show();\n        $("#noticias, #agregar, #cargar").hide();\n        $("#enviarEmail,#modificar").hide();\n        $("#cambioContra, #reporte,#permiso").hide();\n        $("#miPerfil, #consultar").hide();\n    });\n    $("#pass").click(function(){\n        $("#information, #agregar, #cargar").hide();\n        $("#enviarEmail,#modificar").hide();\n        $("#noticias, #reporte,#permiso").hide();\n        $("#cambioContra").show();\n        $("#miPerfil, #consultar").hide();\n    });\n     $("#comp").click(function(){\n        $("#information, #agregar, #cargar").hide();\n        $("#enviarEmail,#permiso").hide();\n        $("#noticias,#modificar").hide();\n         $("#reporte").show();\n        $("#cambioContra").hide();\n        $("#miPerfil, #consultar").hide();\n    });\n    $("#upload").click(function(){\n        $("#information, #agregar, #cargar").hide();\n        $("#enviarEmail,#permiso").hide();\n        $("#noticias,#modificar").hide();\n        $("#cambioContra, #reporte").hide();\n        $("#cargar").show();\n        $("#miPerfil, #consultar").hide();\n    });\n    $("#lookfor").click(function(){\n        $("#information, #agregar, #cargar").hide();\n        $("#enviarEmail,#modificar").hide();\n        $("#noticias,#permiso").hide();\n        $("#cambioContra").hide();\n        $("#consultar").show();\n        $("#miPerfil, #reporte").hide();\n    });\n    $("#add").click(function(){\n        $("#information, #cargar").hide();\n        $("#enviarEmail,#permiso").hide();\n        $("#noticias, #consultar").hide();\n        $("#agregar").show();\n        $("#cambioContra,#modificar").hide();\n        $("#miPerfil, #reporte").hide();\n    });\n    $("#edit").click(function(){\n        $("#information, #cargar").hide();\n        $("#enviarEmail,#permiso").hide();\n        $("#noticias, #consultar").hide();\n        $("#modificar").show();\n        $("#cambioContra,#agregar").hide();\n        $("#miPerfil, #reporte").hide();\n    });\n    $("#news").click(function(){\n        $("#information, #agregar, #cargar, #consultar,#permiso").hide();\n        $("#enviarEmail,#modificar").hide();\n        $("#noticias").show();\n        $("#cambioContra").hide();\n        $("#miPerfil, #reporte").hide();\n    });\n    $("#allow").click(function(){\n        $("#information, #agregar, #cargar, #consultar,#permiso").hide();\n        $("#enviarEmail,#modificar").hide();\n        $("#noticias").hide();\n        $("#permiso").show();\n        $("#cambioContra").hide();\n        $("#miPerfil, #reporte").hide();\n    });\n    $("#contacto, #enviar").click(function(){\n        $("#information, #agregar, #cargar").hide();\n        $("#enviarEmail").show();\n        $("#cambioContra, #consultar").hide();\n        $("#noticias, #reporte,#permiso").hide();\n        $("#miPerfil,#modificar").hide();\n        $(".nav").find(".active").removeClass("active");\n        $("#contacto").parent().addClass("active");\n    });\n});\n    </script>\n\n'
p7
sS'snapshot'
p8
(dp9
S'exception'
p10
(dp11
S'__getslice__'
p12
S"<method-wrapper '__getslice__' of exceptions.IOError object>"
p13
sS'__str__'
p14
S"<method-wrapper '__str__' of exceptions.IOError object>"
p15
sS'__reduce__'
p16
S'<built-in method __reduce__ of exceptions.IOError object>'
p17
sS'__dict__'
p18
S'{}'
p19
sS'__sizeof__'
p20
S'<built-in method __sizeof__ of exceptions.IOError object>'
p21
sS'message'
p22
S"''"
p23
sS'__init__'
p24
S"<method-wrapper '__init__' of exceptions.IOError object>"
p25
sS'__setattr__'
p26
S"<method-wrapper '__setattr__' of exceptions.IOError object>"
p27
sS'__reduce_ex__'
p28
S'<built-in method __reduce_ex__ of exceptions.IOError object>'
p29
sS'__new__'
p30
S'<built-in method __new__ of type object>'
p31
sS'errno'
p32
S'2'
sS'__format__'
p33
S'<built-in method __format__ of exceptions.IOError object>'
p34
sS'__class__'
p35
S"<type 'exceptions.IOError'>"
p36
sS'filename'
p37
S"'/home/mabraca/Documentos/universidad/Sistema de ...on/web2py/applications/Lab/views/layoutAdmin.html'"
p38
sS'__doc__'
p39
S"'I/O operation failed.'"
p40
sS'__getitem__'
p41
S"<method-wrapper '__getitem__' of exceptions.IOError object>"
p42
sS'__setstate__'
p43
S'<built-in method __setstate__ of exceptions.IOError object>'
p44
sS'__getattribute__'
p45
S"<method-wrapper '__getattribute__' of exceptions.IOError object>"
p46
sS'args'
p47
S"(2, 'No such file or directory')"
p48
sS'__subclasshook__'
p49
S'<built-in method __subclasshook__ of type object>'
p50
sS'__unicode__'
p51
S'<built-in method __unicode__ of exceptions.IOError object>'
p52
sS'strerror'
p53
S"'No such file or directory'"
p54
sS'__delattr__'
p55
S"<method-wrapper '__delattr__' of exceptions.IOError object>"
p56
sS'__repr__'
p57
S"<method-wrapper '__repr__' of exceptions.IOError object>"
p58
sS'__hash__'
p59
S"<method-wrapper '__hash__' of exceptions.IOError object>"
p60
ssS'evalue'
p61
S"[Errno 2] No such file or directory: '/home/mabraca/Documentos/universidad/Sistema de Informacion/web2py/applications/Lab/views/layoutAdmin.html'"
p62
sS'frames'
p63
(lp64
(dp65
S'file'
p66
S'/home/mabraca/Documentos/universidad/Sistema de Informacion/web2py/gluon/template.py'
p67
sS'dump'
p68
(dp69
S'builtinopen'
p70
S'<built-in function open>'
p71
sS'fileobj'
p72
S'undefined'
p73
sS'filepath'
p74
S"'/home/mabraca/Documentos/universidad/Sistema de ...on/web2py/applications/Lab/views/layoutAdmin.html'"
p75
ssS'lnum'
p76
I445
sS'lines'
p77
(dp78
I448
S'        except IOError:'
p79
sI449
S"            self._raise_error('Unable to open included view file: ' + filepath)"
p80
sI440
S'        # Get the path of the file on the system.'
p81
sI441
S'        filepath = self.path and os.path.join(self.path, filename) or filename'
p82
sI442
S''
sI443
S'        # try to read the text.'
p83
sI444
S'        try:'
p84
sI445
S"            fileobj = open(filepath, 'rb')"
p85
sI446
S'            text = fileobj.read()'
p86
sI447
S'            fileobj.close()'
p87
ssS'call'
p88
S"(self=<gluon.template.TemplateParser object>, filename='layoutAdmin.html')"
p89
sS'func'
p90
S'_get_file_text'
p91
sasS'pyver'
p92
S'Python 2.7.6: /usr/bin/python2.7 (prefix: /usr)'
p93
sS'etype'
p94
S"<type 'exceptions.IOError'>"
p95
sS'date'
p96
S'Sat Oct 21 15:21:17 2017'
p97
sS'locals'
p98
(dp99
S'self'
p100
S'<gluon.template.TemplateParser object>'
p101
sS'filepath'
p102
S"'/home/mabraca/Documentos/universidad/Sistema de ...on/web2py/applications/Lab/views/layoutAdmin.html'"
p103
sS'context'
p104
S"{'A': <class 'gluon.html.A'>, 'ANY_OF': <class 'gluon.validators.ANY_OF'>, 'ASSIGNJS': <function ASSIGNJS>, 'AppConfig': <function AppConfig>, 'Auth': <class 'gluon.tools.Auth'>, 'B': <class 'gluon.html.B'>, 'BEAUTIFY': <class 'gluon.html.BEAUTIFY'>, 'BODY': <class 'gluon.html.BODY'>, 'BR': <class 'gluon.html.BR'>, 'BUTTON': <class 'gluon.html.BUTTON'>, ...}"
p105
sg37
S"'layoutAdmin.html'"
p106
sssS'traceback'
p107
S'Traceback (most recent call last):\n  File "/home/mabraca/Documentos/universidad/Sistema de Informacion/web2py/gluon/template.py", line 445, in _get_file_text\n    fileobj = open(filepath, \'rb\')\nIOError: [Errno 2] No such file or directory: \'/home/mabraca/Documentos/universidad/Sistema de Informacion/web2py/applications/Lab/views/layoutAdmin.html\'\n'
p108
s.